Se incluyó el miembro del archivo debido al fichero (símbolo)

c:/espardino/bin/../lib/gcc/arm-elf/4.4.0/thumb/interwork\libgcc.a(_arm_addsubdf3.o)
                              main.o (__subdf3)
c:/espardino/bin/../lib/gcc/arm-elf/4.4.0/thumb/interwork\libgcc.a(_arm_muldivdf3.o)
                              servo.o (__muldf3)
c:/espardino/bin/../lib/gcc/arm-elf/4.4.0/thumb/interwork\libgcc.a(_arm_cmpdf2.o)
                              main.o (__gtdf2)
c:/espardino/bin/../lib/gcc/arm-elf/4.4.0/thumb/interwork\libgcc.a(_arm_fixdfsi.o)
                              servo.o (__fixdfsi)
c:/espardino/bin/../lib/gcc/arm-elf/4.4.0/../../../../arm-elf/lib\libnanoc++.a(nanoc++.o)
                              main.o (__gxx_personality_sj0)
c:/espardino/bin/../lib/gcc/arm-elf/4.4.0/../../../../arm-elf/lib/thumb/interwork\libvcom.a(main_serial.o)
                              main.o (VCOM_putchar_nl)
c:/espardino/bin/../lib/gcc/arm-elf/4.4.0/../../../../arm-elf/lib/thumb/interwork\libvcom.a(usbhw_lpc.o)
                              c:/espardino/bin/../lib/gcc/arm-elf/4.4.0/../../../../arm-elf/lib/thumb/interwork\libvcom.a(main_serial.o) (USBHwRegisterEPIntHandler)
c:/espardino/bin/../lib/gcc/arm-elf/4.4.0/../../../../arm-elf/lib/thumb/interwork\libvcom.a(usbcontrol.o)
                              c:/espardino/bin/../lib/gcc/arm-elf/4.4.0/../../../../arm-elf/lib/thumb/interwork\libvcom.a(main_serial.o) (USBRegisterRequestHandler)
c:/espardino/bin/../lib/gcc/arm-elf/4.4.0/../../../../arm-elf/lib/thumb/interwork\libvcom.a(usbstdreq.o)
                              c:/espardino/bin/../lib/gcc/arm-elf/4.4.0/../../../../arm-elf/lib/thumb/interwork\libvcom.a(main_serial.o) (USBRegisterDescriptors)
c:/espardino/bin/../lib/gcc/arm-elf/4.4.0/../../../../arm-elf/lib/thumb/interwork\libvcom.a(usbinit.o)
                              c:/espardino/bin/../lib/gcc/arm-elf/4.4.0/../../../../arm-elf/lib/thumb/interwork\libvcom.a(main_serial.o) (USBInit)
c:/espardino/bin/../lib/gcc/arm-elf/4.4.0/../../../../arm-elf/lib/thumb/interwork\libvcom.a(serial_fifo.o)
                              c:/espardino/bin/../lib/gcc/arm-elf/4.4.0/../../../../arm-elf/lib/thumb/interwork\libvcom.a(main_serial.o) (fifo_init)
c:/espardino/bin/../lib/gcc/arm-elf/4.4.0/../../../../arm-elf/lib/thumb/interwork\libvcom.a(armVIC.o)
                              c:/espardino/bin/../lib/gcc/arm-elf/4.4.0/../../../../arm-elf/lib/thumb/interwork\libvcom.a(main_serial.o) (enableIRQ)
c:/espardino/bin/../lib/gcc/arm-elf/4.4.0/../../../../arm-elf/lib\libmicro214x.a(leds.o)
                              main.o (LEDS_init)
c:/espardino/bin/../lib/gcc/arm-elf/4.4.0/../../../../arm-elf/lib\libmicro214x.a(pwm.o)
                              servo.o (PWM_pulsewidth_us)
c:/espardino/bin/../lib/gcc/arm-elf/4.4.0/../../../../arm-elf/lib\libmicro214x.a(sysclocks.o)
                              c:/espardino/bin/../lib/gcc/arm-elf/4.4.0/../../../../arm-elf/lib\libmicro214x.a(pwm.o) (VPB_get_speed)
c:/espardino/bin/../lib/gcc/arm-elf/4.4.0/../../../../arm-elf/lib\libmicro214x.a(iolib.o)
                              c:/espardino/bin/../lib/gcc/arm-elf/4.4.0/../../../../arm-elf/lib\libmicro214x.a(leds.o) (IO_output_low)
c:/espardino/bin/../lib/gcc/arm-elf/4.4.0/../../../../arm-elf/lib\libmicro214x.a(miniprintf.o)
                              main.o (xprintf_output)
c:/espardino/bin/../lib/gcc/arm-elf/4.4.0/../../../../arm-elf/lib/thumb/interwork\libm.a(lib_a-s_floor.o)
                              c:/espardino/bin/../lib/gcc/arm-elf/4.4.0/../../../../arm-elf/lib\libmicro214x.a(miniprintf.o) (floor)
c:/espardino/bin/../lib/gcc/arm-elf/4.4.0/thumb/interwork\libgcc.a(_udivsi3.o)
                              c:/espardino/bin/../lib/gcc/arm-elf/4.4.0/../../../../arm-elf/lib\libmicro214x.a(miniprintf.o) (__udivsi3)
c:/espardino/bin/../lib/gcc/arm-elf/4.4.0/thumb/interwork\libgcc.a(_divsi3.o)
                              c:/espardino/bin/../lib/gcc/arm-elf/4.4.0/../../../../arm-elf/lib\libmicro214x.a(pwm.o) (__divsi3)
c:/espardino/bin/../lib/gcc/arm-elf/4.4.0/thumb/interwork\libgcc.a(_umodsi3.o)
                              c:/espardino/bin/../lib/gcc/arm-elf/4.4.0/../../../../arm-elf/lib\libmicro214x.a(miniprintf.o) (__umodsi3)
c:/espardino/bin/../lib/gcc/arm-elf/4.4.0/thumb/interwork\libgcc.a(_dvmd_tls.o)
                              c:/espardino/bin/../lib/gcc/arm-elf/4.4.0/thumb/interwork\libgcc.a(_udivsi3.o) (__div0)
c:/espardino/bin/../lib/gcc/arm-elf/4.4.0/../../../../arm-elf/lib/thumb/interwork\libg.a(lib_a-malloc.o)
                              c:/espardino/bin/../lib/gcc/arm-elf/4.4.0/../../../../arm-elf/lib\libnanoc++.a(nanoc++.o) (free)
c:/espardino/bin/../lib/gcc/arm-elf/4.4.0/../../../../arm-elf/lib/thumb/interwork\libg.a(lib_a-mallocr.o)
                              c:/espardino/bin/../lib/gcc/arm-elf/4.4.0/../../../../arm-elf/lib/thumb/interwork\libg.a(lib_a-malloc.o) (_malloc_r)
c:/espardino/bin/../lib/gcc/arm-elf/4.4.0/../../../../arm-elf/lib/thumb/interwork\libg.a(lib_a-memcpy.o)
                              c:/espardino/bin/../lib/gcc/arm-elf/4.4.0/../../../../arm-elf/lib/thumb/interwork\libvcom.a(main_serial.o) (memcpy)
c:/espardino/bin/../lib/gcc/arm-elf/4.4.0/../../../../arm-elf/lib/thumb/interwork\libg.a(lib_a-mlock.o)
                              c:/espardino/bin/../lib/gcc/arm-elf/4.4.0/../../../../arm-elf/lib/thumb/interwork\libg.a(lib_a-mallocr.o) (__malloc_lock)
c:/espardino/bin/../lib/gcc/arm-elf/4.4.0/../../../../arm-elf/lib/thumb/interwork\libg.a(lib_a-sbrkr.o)
                              c:/espardino/bin/../lib/gcc/arm-elf/4.4.0/../../../../arm-elf/lib/thumb/interwork\libg.a(lib_a-mallocr.o) (_sbrk_r)
c:/espardino/bin/../lib/gcc/arm-elf/4.4.0/../../../../arm-elf/lib/thumb/interwork\libg.a(lib_a-syscalls.o)
                              c:/espardino/bin/../lib/gcc/arm-elf/4.4.0/../../../../arm-elf/lib/thumb/interwork\libg.a(lib_a-sbrkr.o) (_sbrk)
c:/espardino/bin/../lib/gcc/arm-elf/4.4.0/../../../../arm-elf/lib/thumb/interwork\libg.a(lib_a-errno.o)
                              c:/espardino/bin/../lib/gcc/arm-elf/4.4.0/../../../../arm-elf/lib/thumb/interwork\libg.a(lib_a-syscalls.o) (__errno)
c:/espardino/bin/../lib/gcc/arm-elf/4.4.0/../../../../arm-elf/lib/thumb/interwork\libg.a(lib_a-findfp.o)
                              c:/espardino/bin/../lib/gcc/arm-elf/4.4.0/../../../../arm-elf/lib/thumb/interwork\libg.a(lib_a-syscalls.o) (__sinit)
c:/espardino/bin/../lib/gcc/arm-elf/4.4.0/../../../../arm-elf/lib/thumb/interwork\libg.a(lib_a-freer.o)
                              c:/espardino/bin/../lib/gcc/arm-elf/4.4.0/../../../../arm-elf/lib/thumb/interwork\libg.a(lib_a-malloc.o) (_free_r)
c:/espardino/bin/../lib/gcc/arm-elf/4.4.0/../../../../arm-elf/lib/thumb/interwork\libg.a(lib_a-fwalk.o)
                              c:/espardino/bin/../lib/gcc/arm-elf/4.4.0/../../../../arm-elf/lib/thumb/interwork\libg.a(lib_a-findfp.o) (_fwalk)
c:/espardino/bin/../lib/gcc/arm-elf/4.4.0/../../../../arm-elf/lib/thumb/interwork\libg.a(lib_a-impure.o)
                              c:/espardino/bin/../lib/gcc/arm-elf/4.4.0/../../../../arm-elf/lib/thumb/interwork\libg.a(lib_a-malloc.o) (_impure_ptr)
c:/espardino/bin/../lib/gcc/arm-elf/4.4.0/../../../../arm-elf/lib/thumb/interwork\libg.a(lib_a-memset.o)
                              c:/espardino/bin/../lib/gcc/arm-elf/4.4.0/../../../../arm-elf/lib/thumb/interwork\libg.a(lib_a-syscalls.o) (memset)
c:/espardino/bin/../lib/gcc/arm-elf/4.4.0/../../../../arm-elf/lib/thumb/interwork\libg.a(lib_a-reent.o)
                              c:/espardino/bin/../lib/gcc/arm-elf/4.4.0/../../../../arm-elf/lib/thumb/interwork\libg.a(lib_a-sbrkr.o) (errno)
c:/espardino/bin/../lib/gcc/arm-elf/4.4.0/../../../../arm-elf/lib/thumb/interwork\libg.a(lib_a-stdio.o)
                              c:/espardino/bin/../lib/gcc/arm-elf/4.4.0/../../../../arm-elf/lib/thumb/interwork\libg.a(lib_a-findfp.o) (__sclose)
c:/espardino/bin/../lib/gcc/arm-elf/4.4.0/../../../../arm-elf/lib/thumb/interwork\libg.a(lib_a-strlen.o)
                              c:/espardino/bin/../lib/gcc/arm-elf/4.4.0/../../../../arm-elf/lib/thumb/interwork\libg.a(lib_a-syscalls.o) (strlen)
c:/espardino/bin/../lib/gcc/arm-elf/4.4.0/../../../../arm-elf/lib/thumb/interwork\libg.a(lib_a-writer.o)
                              c:/espardino/bin/../lib/gcc/arm-elf/4.4.0/../../../../arm-elf/lib/thumb/interwork\libg.a(lib_a-stdio.o) (_write_r)
c:/espardino/bin/../lib/gcc/arm-elf/4.4.0/../../../../arm-elf/lib/thumb/interwork\libg.a(lib_a-closer.o)
                              c:/espardino/bin/../lib/gcc/arm-elf/4.4.0/../../../../arm-elf/lib/thumb/interwork\libg.a(lib_a-stdio.o) (_close_r)
c:/espardino/bin/../lib/gcc/arm-elf/4.4.0/../../../../arm-elf/lib/thumb/interwork\libg.a(lib_a-fclose.o)
                              c:/espardino/bin/../lib/gcc/arm-elf/4.4.0/../../../../arm-elf/lib/thumb/interwork\libg.a(lib_a-findfp.o) (fclose)
c:/espardino/bin/../lib/gcc/arm-elf/4.4.0/../../../../arm-elf/lib/thumb/interwork\libg.a(lib_a-fflush.o)
                              c:/espardino/bin/../lib/gcc/arm-elf/4.4.0/../../../../arm-elf/lib/thumb/interwork\libg.a(lib_a-fclose.o) (_fflush_r)
c:/espardino/bin/../lib/gcc/arm-elf/4.4.0/../../../../arm-elf/lib/thumb/interwork\libg.a(lib_a-lseekr.o)
                              c:/espardino/bin/../lib/gcc/arm-elf/4.4.0/../../../../arm-elf/lib/thumb/interwork\libg.a(lib_a-stdio.o) (_lseek_r)
c:/espardino/bin/../lib/gcc/arm-elf/4.4.0/../../../../arm-elf/lib/thumb/interwork\libg.a(lib_a-readr.o)
                              c:/espardino/bin/../lib/gcc/arm-elf/4.4.0/../../../../arm-elf/lib/thumb/interwork\libg.a(lib_a-stdio.o) (_read_r)

Asignando símbolos comunes
Símbolo común       tamaño            fichero

PWM_us_precalc_factor
                    0x4               c:/espardino/bin/../lib/gcc/arm-elf/4.4.0/../../../../arm-elf/lib\libmicro214x.a(pwm.o)
PWM_pc_precalc_factor
                    0x4               c:/espardino/bin/../lib/gcc/arm-elf/4.4.0/../../../../arm-elf/lib\libmicro214x.a(pwm.o)
errno               0x4               c:/espardino/bin/../lib/gcc/arm-elf/4.4.0/../../../../arm-elf/lib/thumb/interwork\libg.a(lib_a-reent.o)

Discarded input sections

 .eh_frame      0x00000000        0x0 main.o
 .eh_frame      0x00000000        0x0 servo.o

Configuración de la Memoria

Nombre           Origen             Longitud           Atributos
ROM              0x00002000         0x0000e000         xr
RAM              0x40000000         0x00004000         rw
*default*        0x00000000         0xffffffff

Guión del enlazador y mapa de memoria

LOAD startup.o
LOAD main.o
LOAD servo.o
LOAD c:/espardino/bin/../lib/gcc/arm-elf/4.4.0/../../../../arm-elf/lib/thumb/interwork\libc.a
LOAD c:/espardino/bin/../lib/gcc/arm-elf/4.4.0/../../../../arm-elf/lib/thumb/interwork\libm.a
LOAD c:/espardino/bin/../lib/gcc/arm-elf/4.4.0/../../../../arm-elf/lib/thumb/interwork\libc.a
LOAD c:/espardino/bin/../lib/gcc/arm-elf/4.4.0/thumb/interwork\libgcc.a
LOAD c:/espardino/bin/../lib/gcc/arm-elf/4.4.0/../../../../arm-elf/lib\libnanoc++.a
LOAD c:/espardino/bin/../lib/gcc/arm-elf/4.4.0/../../../../arm-elf/lib/thumb/interwork\libvcom.a
LOAD c:/espardino/bin/../lib/gcc/arm-elf/4.4.0/../../../../arm-elf/lib\libmicro214x.a
LOAD c:/espardino/bin/../lib/gcc/arm-elf/4.4.0/../../../../arm-elf/lib/thumb/interwork\libm.a
START GROUP
LOAD c:/espardino/bin/../lib/gcc/arm-elf/4.4.0/thumb/interwork\libgcc.a
LOAD c:/espardino/bin/../lib/gcc/arm-elf/4.4.0/../../../../arm-elf/lib/thumb/interwork\libg.a
LOAD c:/espardino/bin/../lib/gcc/arm-elf/4.4.0/../../../../arm-elf/lib/thumb/interwork\libc.a
END GROUP
                0x00000010                STACK_SIZE = 0x10
                0x00004000                RAM_LENGTH = 0x4000

.startup        0x00002000      0x1b4
 *startup.o(.text)
 .text          0x00002000      0x1b4 startup.o
                0x00002000                _boot
                0x00002178                __exit_THUMB
                0x00002174                __exit_ARM

.text           0x000021b4     0x440c
 *(.init)
 *(.text .text.*)
 .text          0x000021b4      0x1b4 main.o
                0x000021b4                limit_angle(double*)
                0x0000221c                main
 .text          0x00002368      0x208 servo.o
                0x00002368                MyServo::MyServo()
                0x0000246c                MyServo::stop()
                0x000023b0                MyServo::move(double)
                0x00002488                MyServo::attach(int)
                0x0000238c                MyServo::MyServo()
 .text          0x00002570      0x430 c:/espardino/bin/../lib/gcc/arm-elf/4.4.0/thumb/interwork\libgcc.a(_arm_addsubdf3.o)
                0x00002934                __floatdidf
                0x000028b4                __floatsidf
                0x0000288c                __aeabi_ui2d
                0x00002570                __aeabi_drsub
                0x000028e0                __extendsfdf2
                0x0000257c                __adddf3
                0x0000288c                __floatunsidf
                0x0000257c                __aeabi_dadd
                0x00002920                __aeabi_ul2d
                0x00002578                __aeabi_dsub
                0x00002920                __floatundidf
                0x000028b4                __aeabi_i2d
                0x00002934                __aeabi_l2d
                0x000028e0                __aeabi_f2d
                0x00002578                __subdf3
 .text          0x000029a0      0x49c c:/espardino/bin/../lib/gcc/arm-elf/4.4.0/thumb/interwork\libgcc.a(_arm_muldivdf3.o)
                0x00002c30                __aeabi_ddiv
                0x000029a0                __aeabi_dmul
                0x00002c30                __divdf3
                0x000029a0                __muldf3
 .text          0x00002e3c      0x140 c:/espardino/bin/../lib/gcc/arm-elf/4.4.0/thumb/interwork\libgcc.a(_arm_cmpdf2.o)
                0x00002f34                __aeabi_dcmple
                0x00002e4c                __cmpdf2
                0x00002e4c                __eqdf2
                0x00002e3c                __gtdf2
                0x00002eec                __aeabi_cdcmple
                0x00002ed0                __aeabi_cdrcmple
                0x00002e44                __ltdf2
                0x00002f1c                __aeabi_dcmplt
                0x00002e44                __ledf2
                0x00002f64                __aeabi_dcmpgt
                0x00002f4c                __aeabi_dcmpge
                0x00002e4c                __nedf2
                0x00002f04                __aeabi_dcmpeq
                0x00002eec                __aeabi_cdcmpeq
                0x00002e3c                __gedf2
 .text          0x00002f7c       0x5c c:/espardino/bin/../lib/gcc/arm-elf/4.4.0/thumb/interwork\libgcc.a(_arm_fixdfsi.o)
                0x00002f7c                __fixdfsi
                0x00002f7c                __aeabi_d2iz
 .text          0x00002fd8       0x1c c:/espardino/bin/../lib/gcc/arm-elf/4.4.0/../../../../arm-elf/lib\libnanoc++.a(nanoc++.o)
                0x00002fe4                operator new(unsigned long)
                0x00002fd8                operator delete(void*)
 .text          0x00002ff4      0x3b0 c:/espardino/bin/../lib/gcc/arm-elf/4.4.0/../../../../arm-elf/lib/thumb/interwork\libvcom.a(main_serial.o)
                0x000032c0                VCOM_init_internal
                0x00003034                VCOM_kbhit
                0x000030b8                VCOM_putchar
                0x00003114                VCOM_putchar_nl
                0x000031bc                VCOM_getchar_nonblock
                0x00003168                VCOM_putchar_nonblock_nl
                0x0000313c                VCOM_putchar_nonblock
                0x000030e8                VCOM_puts
                0x00003190                VCOM_getchar
                0x000032ec                VCOM_init
 .text          0x000033a4      0x650 c:/espardino/bin/../lib/gcc/arm-elf/4.4.0/../../../../arm-elf/lib/thumb/interwork\libvcom.a(usbhw_lpc.o)
                0x000036d8                USBHwEPRead
                0x000037ec                USBHwISR
                0x0000363c                USBHwEPWrite
                0x000033a4                USBHwEPConfig
                0x00003490                USBHwSetAddress
                0x000034e4                USBHwConnect
                0x000035d8                USBHwEPStall
                0x00003460                USBHwRegisterDevIntHandler
                0x0000342c                USBHwRegisterEPIntHandler
                0x000037a0                USBHwConfigDevice
                0x00003530                USBHwNakIntEnable
                0x00003914                USBHwInit
                0x00003478                USBHwRegisterFrameHandler
                0x0000357c                USBHwEPGetStatus
 .text          0x000039f4      0x130 c:/espardino/bin/../lib/gcc/arm-elf/4.4.0/../../../../arm-elf/lib/thumb/interwork\libvcom.a(usbcontrol.o)
                0x00003a44                USBHandleControlTransfer
                0x000039f4                USBRegisterRequestHandler
 .text          0x00003b24      0x1b0 c:/espardino/bin/../lib/gcc/arm-elf/4.4.0/../../../../arm-elf/lib/thumb/interwork\libvcom.a(usbstdreq.o)
                0x00003b30                USBGetDescriptor
                0x00003b7c                USBRegisterCustomReqHandler
                0x00003b24                USBRegisterDescriptors
                0x00003b88                USBHandleStandardRequest
 .text          0x00003cd4       0x54 c:/espardino/bin/../lib/gcc/arm-elf/4.4.0/../../../../arm-elf/lib/thumb/interwork\libvcom.a(usbinit.o)
                0x00003cd8                USBInit
 .text          0x00003d28       0xb8 c:/espardino/bin/../lib/gcc/arm-elf/4.4.0/../../../../arm-elf/lib/thumb/interwork\libvcom.a(serial_fifo.o)
                0x00003d9c                fifo_avail
                0x00003d34                fifo_put
                0x00003d28                fifo_init
                0x00003d6c                fifo_get
                0x00003dbc                fifo_free
 .text          0x00003de0       0x78 c:/espardino/bin/../lib/gcc/arm-elf/4.4.0/../../../../arm-elf/lib/thumb/interwork\libvcom.a(armVIC.o)
                0x00003df0                restoreIRQ
                0x00003e48                enableFIQ
                0x00003e1c                disableFIQ
                0x00003e0c                enableIRQ
                0x00003e2c                restoreFIQ
                0x00003de0                disableIRQ
 .text          0x00003e58       0x64 c:/espardino/bin/../lib/gcc/arm-elf/4.4.0/../../../../arm-elf/lib\libmicro214x.a(leds.o)
                0x00003e8c                LEDS_on
                0x00003e58                LEDS_init
                0x00003e5c                LEDS_off
 .text          0x00003ebc      0x344 c:/espardino/bin/../lib/gcc/arm-elf/4.4.0/../../../../arm-elf/lib\libmicro214x.a(pwm.o)
                0x00003fe0                PWM_pulsewidth_us
                0x00003ff4                PWM_init
                0x00004194                PWM_frequency
                0x00003f64                PWM_length
                0x00003ebc                PWM_dutycycle
 .text          0x00004200       0x30 c:/espardino/bin/../lib/gcc/arm-elf/4.4.0/../../../../arm-elf/lib\libmicro214x.a(sysclocks.o)
                0x00004200                VPB_set_speed
                0x00004218                SYSCLK_set_speed
                0x0000420c                VPB_get_speed
                0x00004224                SYSCLK_get_speed
 .text          0x00004230      0x168 c:/espardino/bin/../lib/gcc/arm-elf/4.4.0/../../../../arm-elf/lib\libmicro214x.a(iolib.o)
                0x00004230                IO_init
                0x00004374                IO_output_low
                0x000042cc                IO_output
                0x00004380                IO_output_high
                0x00004250                IO_input
                0x0000438c                IO_get_mode
 .text          0x00004398      0x64c c:/espardino/bin/../lib/gcc/arm-elf/4.4.0/../../../../arm-elf/lib\libmicro214x.a(miniprintf.o)
                0x00004398                xprintf_output
                0x00004658                xprintf_print
                0x000049c4                xprintf
                0x00004410                xputs
                0x00004404                xputc
                0x0000499c                xsprintf
                0x00004974                xfprintf
 .text          0x000049e4      0x150 c:/espardino/bin/../lib/gcc/arm-elf/4.4.0/../../../../arm-elf/lib/thumb/interwork\libm.a(lib_a-s_floor.o)
                0x000049e4                floor
 .text          0x00004b34       0x8c c:/espardino/bin/../lib/gcc/arm-elf/4.4.0/thumb/interwork\libgcc.a(_udivsi3.o)
                0x00004b34                __udivsi3
                0x00004b34                __aeabi_uidiv
                0x00004bb0                __aeabi_uidivmod
 .text          0x00004bc0       0xa4 c:/espardino/bin/../lib/gcc/arm-elf/4.4.0/thumb/interwork\libgcc.a(_divsi3.o)
                0x00004bc0                __aeabi_idiv
                0x00004bc0                __divsi3
                0x00004c54                __aeabi_idivmod
 .text          0x00004c64       0xc8 c:/espardino/bin/../lib/gcc/arm-elf/4.4.0/thumb/interwork\libgcc.a(_umodsi3.o)
                0x00004c64                __umodsi3
 .text          0x00004d2c        0x4 c:/espardino/bin/../lib/gcc/arm-elf/4.4.0/thumb/interwork\libgcc.a(_dvmd_tls.o)
                0x00004d2c                __aeabi_ldiv0
                0x00004d2c                __div0
                0x00004d2c                __aeabi_idiv0
 .text          0x00004d30       0x28 c:/espardino/bin/../lib/gcc/arm-elf/4.4.0/../../../../arm-elf/lib/thumb/interwork\libg.a(lib_a-malloc.o)
                0x00004d44                malloc
                0x00004d30                free
 .text          0x00004d58      0x51c c:/espardino/bin/../lib/gcc/arm-elf/4.4.0/../../../../arm-elf/lib/thumb/interwork\libg.a(lib_a-mallocr.o)
                0x00004d58                _malloc_r
 .text          0x00005274       0x80 c:/espardino/bin/../lib/gcc/arm-elf/4.4.0/../../../../arm-elf/lib/thumb/interwork\libg.a(lib_a-memcpy.o)
                0x00005274                memcpy
 .text          0x000052f4        0x8 c:/espardino/bin/../lib/gcc/arm-elf/4.4.0/../../../../arm-elf/lib/thumb/interwork\libg.a(lib_a-mlock.o)
                0x000052f8                __malloc_unlock
                0x000052f4                __malloc_lock
 .text          0x000052fc       0x28 c:/espardino/bin/../lib/gcc/arm-elf/4.4.0/../../../../arm-elf/lib/thumb/interwork\libg.a(lib_a-sbrkr.o)
                0x000052fc                _sbrk_r
 .text          0x00005324      0x5e8 c:/espardino/bin/../lib/gcc/arm-elf/4.4.0/../../../../arm-elf/lib/thumb/interwork\libg.a(lib_a-syscalls.o)
                0x000053e4                _getpid
                0x00005324                initialise_monitor_handles
                0x000058e8                _fstat
                0x00005664                _isatty
                0x000055c8                _open
                0x000055e4                _sbrk
                0x000053f0                _raise
                0x00005420                _times
                0x000058ac                _stat
                0x00005810                _lseek
                0x000053e8                _link
                0x000056f0                _swiwrite
                0x00005464                _rename
                0x0000577c                _swilseek
                0x00005694                _swiclose
                0x0000553c                _swiopen
                0x00005500                _unlink
                0x00005718                _write
                0x0000539c                _kill
                0x000053f4                _gettimeofday
                0x0000584c                _read
                0x000053cc                _exit
                0x000054ac                _system
                0x00005824                _swiread
                0x000056dc                _close
 .text          0x0000590c        0xc c:/espardino/bin/../lib/gcc/arm-elf/4.4.0/../../../../arm-elf/lib/thumb/interwork\libg.a(lib_a-errno.o)
                0x0000590c                __errno
 .text          0x00005918      0x1d4 c:/espardino/bin/../lib/gcc/arm-elf/4.4.0/../../../../arm-elf/lib/thumb/interwork\libg.a(lib_a-findfp.o)
                0x000059d0                __sinit
                0x00005a2c                __sfmoreglue
                0x00005970                _cleanup
                0x00005960                _cleanup_r
                0x00005948                __fp_lock_all
                0x00005918                __sfp_lock_acquire
                0x00005a5c                __sfp
                0x00005924                __sinit_lock_release
                0x00005930                __fp_unlock_all
                0x0000591c                __sfp_lock_release
                0x00005920                __sinit_lock_acquire
 .text          0x00005aec      0x250 c:/espardino/bin/../lib/gcc/arm-elf/4.4.0/../../../../arm-elf/lib/thumb/interwork\libg.a(lib_a-freer.o)
                0x00005b90                _free_r
                0x00005aec                _malloc_trim_r
 .text          0x00005d3c       0xc4 c:/espardino/bin/../lib/gcc/arm-elf/4.4.0/../../../../arm-elf/lib/thumb/interwork\libg.a(lib_a-fwalk.o)
                0x00005da0                _fwalk
                0x00005d3c                _fwalk_reent
 .text          0x00005e00        0x0 c:/espardino/bin/../lib/gcc/arm-elf/4.4.0/../../../../arm-elf/lib/thumb/interwork\libg.a(lib_a-impure.o)
 .text          0x00005e00       0x94 c:/espardino/bin/../lib/gcc/arm-elf/4.4.0/../../../../arm-elf/lib/thumb/interwork\libg.a(lib_a-memset.o)
                0x00005e00                memset
 .text          0x00005e94      0x10c c:/espardino/bin/../lib/gcc/arm-elf/4.4.0/../../../../arm-elf/lib/thumb/interwork\libg.a(lib_a-reent.o)
                0x00005ee0                cleanup_glue
                0x00005f00                _reclaim_reent
                0x00005e94                _wrapup_reent
 .text          0x00005fa0       0xa8 c:/espardino/bin/../lib/gcc/arm-elf/4.4.0/../../../../arm-elf/lib/thumb/interwork\libg.a(lib_a-stdio.o)
                0x00005fb0                __sseek
                0x0000601c                __sread
                0x00005fa0                __sclose
                0x00005fe0                __swrite
 .text          0x00006048       0x6c c:/espardino/bin/../lib/gcc/arm-elf/4.4.0/../../../../arm-elf/lib/thumb/interwork\libg.a(lib_a-strlen.o)
                0x00006048                strlen
 .text          0x000060b4       0x2c c:/espardino/bin/../lib/gcc/arm-elf/4.4.0/../../../../arm-elf/lib/thumb/interwork\libg.a(lib_a-writer.o)
                0x000060b4                _write_r
 .text          0x000060e0       0x28 c:/espardino/bin/../lib/gcc/arm-elf/4.4.0/../../../../arm-elf/lib/thumb/interwork\libg.a(lib_a-closer.o)
                0x000060e0                _close_r
 .text          0x00006108       0xbc c:/espardino/bin/../lib/gcc/arm-elf/4.4.0/../../../../arm-elf/lib/thumb/interwork\libg.a(lib_a-fclose.o)
                0x00006108                _fclose_r
                0x000061ac                fclose
 .text          0x000061c4      0x144 c:/espardino/bin/../lib/gcc/arm-elf/4.4.0/../../../../arm-elf/lib/thumb/interwork\libg.a(lib_a-fflush.o)
                0x000062d8                fflush
                0x000061c4                _fflush_r
 .text          0x00006308       0x2c c:/espardino/bin/../lib/gcc/arm-elf/4.4.0/../../../../arm-elf/lib/thumb/interwork\libg.a(lib_a-lseekr.o)
                0x00006308                _lseek_r
 .text          0x00006334       0x2c c:/espardino/bin/../lib/gcc/arm-elf/4.4.0/../../../../arm-elf/lib/thumb/interwork\libg.a(lib_a-readr.o)
                0x00006334                _read_r
 *(.gnu.linkonce.t.*)
 *(.gcc_except_table)
 *(.glue_7)
 .glue_7        0x00006360        0x0 startup.o
 .glue_7        0x00006360        0x0 main.o
 .glue_7        0x00006360        0x0 servo.o
 .glue_7        0x00006360        0x0 c:/espardino/bin/../lib/gcc/arm-elf/4.4.0/thumb/interwork\libgcc.a(_arm_addsubdf3.o)
 .glue_7        0x00006360        0x0 c:/espardino/bin/../lib/gcc/arm-elf/4.4.0/thumb/interwork\libgcc.a(_arm_muldivdf3.o)
 .glue_7        0x00006360        0x0 c:/espardino/bin/../lib/gcc/arm-elf/4.4.0/thumb/interwork\libgcc.a(_arm_cmpdf2.o)
 .glue_7        0x00006360        0x0 c:/espardino/bin/../lib/gcc/arm-elf/4.4.0/thumb/interwork\libgcc.a(_arm_fixdfsi.o)
 .glue_7        0x00006360        0x0 c:/espardino/bin/../lib/gcc/arm-elf/4.4.0/../../../../arm-elf/lib\libnanoc++.a(nanoc++.o)
 .glue_7        0x00006360        0x0 c:/espardino/bin/../lib/gcc/arm-elf/4.4.0/../../../../arm-elf/lib/thumb/interwork\libvcom.a(main_serial.o)
 .glue_7        0x00006360        0x0 c:/espardino/bin/../lib/gcc/arm-elf/4.4.0/../../../../arm-elf/lib/thumb/interwork\libvcom.a(usbhw_lpc.o)
 .glue_7        0x00006360        0x0 c:/espardino/bin/../lib/gcc/arm-elf/4.4.0/../../../../arm-elf/lib/thumb/interwork\libvcom.a(usbcontrol.o)
 .glue_7        0x00006360        0x0 c:/espardino/bin/../lib/gcc/arm-elf/4.4.0/../../../../arm-elf/lib/thumb/interwork\libvcom.a(usbstdreq.o)
 .glue_7        0x00006360        0x0 c:/espardino/bin/../lib/gcc/arm-elf/4.4.0/../../../../arm-elf/lib/thumb/interwork\libvcom.a(usbinit.o)
 .glue_7        0x00006360        0x0 c:/espardino/bin/../lib/gcc/arm-elf/4.4.0/../../../../arm-elf/lib/thumb/interwork\libvcom.a(serial_fifo.o)
 .glue_7        0x00006360        0x0 c:/espardino/bin/../lib/gcc/arm-elf/4.4.0/../../../../arm-elf/lib/thumb/interwork\libvcom.a(armVIC.o)
 .glue_7        0x00006360        0x0 c:/espardino/bin/../lib/gcc/arm-elf/4.4.0/../../../../arm-elf/lib\libmicro214x.a(leds.o)
 .glue_7        0x00006360        0x0 c:/espardino/bin/../lib/gcc/arm-elf/4.4.0/../../../../arm-elf/lib\libmicro214x.a(pwm.o)
 .glue_7        0x00006360        0x0 c:/espardino/bin/../lib/gcc/arm-elf/4.4.0/../../../../arm-elf/lib\libmicro214x.a(sysclocks.o)
 .glue_7        0x00006360        0x0 c:/espardino/bin/../lib/gcc/arm-elf/4.4.0/../../../../arm-elf/lib\libmicro214x.a(iolib.o)
 .glue_7        0x00006360        0x0 c:/espardino/bin/../lib/gcc/arm-elf/4.4.0/../../../../arm-elf/lib\libmicro214x.a(miniprintf.o)
 .glue_7        0x00006360        0x0 c:/espardino/bin/../lib/gcc/arm-elf/4.4.0/../../../../arm-elf/lib/thumb/interwork\libm.a(lib_a-s_floor.o)
 .glue_7        0x00006360        0x0 c:/espardino/bin/../lib/gcc/arm-elf/4.4.0/thumb/interwork\libgcc.a(_udivsi3.o)
 .glue_7        0x00006360        0x0 c:/espardino/bin/../lib/gcc/arm-elf/4.4.0/thumb/interwork\libgcc.a(_divsi3.o)
 .glue_7        0x00006360        0x0 c:/espardino/bin/../lib/gcc/arm-elf/4.4.0/thumb/interwork\libgcc.a(_umodsi3.o)
 .glue_7        0x00006360        0x0 c:/espardino/bin/../lib/gcc/arm-elf/4.4.0/thumb/interwork\libgcc.a(_dvmd_tls.o)
 .glue_7        0x00006360        0x0 c:/espardino/bin/../lib/gcc/arm-elf/4.4.0/../../../../arm-elf/lib/thumb/interwork\libg.a(lib_a-malloc.o)
 .glue_7        0x00006360        0x0 c:/espardino/bin/../lib/gcc/arm-elf/4.4.0/../../../../arm-elf/lib/thumb/interwork\libg.a(lib_a-mallocr.o)
 .glue_7        0x00006360        0x0 c:/espardino/bin/../lib/gcc/arm-elf/4.4.0/../../../../arm-elf/lib/thumb/interwork\libg.a(lib_a-memcpy.o)
 .glue_7        0x00006360        0x0 c:/espardino/bin/../lib/gcc/arm-elf/4.4.0/../../../../arm-elf/lib/thumb/interwork\libg.a(lib_a-mlock.o)
 .glue_7        0x00006360        0x0 c:/espardino/bin/../lib/gcc/arm-elf/4.4.0/../../../../arm-elf/lib/thumb/interwork\libg.a(lib_a-sbrkr.o)
 .glue_7        0x00006360        0x0 c:/espardino/bin/../lib/gcc/arm-elf/4.4.0/../../../../arm-elf/lib/thumb/interwork\libg.a(lib_a-syscalls.o)
 .glue_7        0x00006360        0x0 c:/espardino/bin/../lib/gcc/arm-elf/4.4.0/../../../../arm-elf/lib/thumb/interwork\libg.a(lib_a-errno.o)
 .glue_7        0x00006360        0x0 c:/espardino/bin/../lib/gcc/arm-elf/4.4.0/../../../../arm-elf/lib/thumb/interwork\libg.a(lib_a-findfp.o)
 .glue_7        0x00006360        0x0 c:/espardino/bin/../lib/gcc/arm-elf/4.4.0/../../../../arm-elf/lib/thumb/interwork\libg.a(lib_a-freer.o)
 .glue_7        0x00006360        0x0 c:/espardino/bin/../lib/gcc/arm-elf/4.4.0/../../../../arm-elf/lib/thumb/interwork\libg.a(lib_a-fwalk.o)
 .glue_7        0x00006360        0x0 c:/espardino/bin/../lib/gcc/arm-elf/4.4.0/../../../../arm-elf/lib/thumb/interwork\libg.a(lib_a-impure.o)
 .glue_7        0x00006360        0x0 c:/espardino/bin/../lib/gcc/arm-elf/4.4.0/../../../../arm-elf/lib/thumb/interwork\libg.a(lib_a-memset.o)
 .glue_7        0x00006360        0x0 c:/espardino/bin/../lib/gcc/arm-elf/4.4.0/../../../../arm-elf/lib/thumb/interwork\libg.a(lib_a-reent.o)
 .glue_7        0x00006360        0x0 c:/espardino/bin/../lib/gcc/arm-elf/4.4.0/../../../../arm-elf/lib/thumb/interwork\libg.a(lib_a-stdio.o)
 .glue_7        0x00006360        0x0 c:/espardino/bin/../lib/gcc/arm-elf/4.4.0/../../../../arm-elf/lib/thumb/interwork\libg.a(lib_a-strlen.o)
 .glue_7        0x00006360        0x0 c:/espardino/bin/../lib/gcc/arm-elf/4.4.0/../../../../arm-elf/lib/thumb/interwork\libg.a(lib_a-writer.o)
 .glue_7        0x00006360        0x0 c:/espardino/bin/../lib/gcc/arm-elf/4.4.0/../../../../arm-elf/lib/thumb/interwork\libg.a(lib_a-closer.o)
 .glue_7        0x00006360        0x0 c:/espardino/bin/../lib/gcc/arm-elf/4.4.0/../../../../arm-elf/lib/thumb/interwork\libg.a(lib_a-fclose.o)
 .glue_7        0x00006360        0x0 c:/espardino/bin/../lib/gcc/arm-elf/4.4.0/../../../../arm-elf/lib/thumb/interwork\libg.a(lib_a-fflush.o)
 .glue_7        0x00006360        0x0 c:/espardino/bin/../lib/gcc/arm-elf/4.4.0/../../../../arm-elf/lib/thumb/interwork\libg.a(lib_a-lseekr.o)
 .glue_7        0x00006360      0x120 c:/espardino/bin/../lib/gcc/arm-elf/4.4.0/../../../../arm-elf/lib/thumb/interwork\libg.a(lib_a-readr.o)
                0x0000639c                __USBHwISR_from_arm
                0x00006450                __USBHwConnect_from_arm
                0x000063e4                __fifo_get_from_arm
                0x000063f0                __USBHwEPWrite_from_arm
                0x00006408                __fifo_init_from_arm
                0x00006384                __PWM_frequency_from_arm
                0x000063b4                __USBHwNakIntEnable_from_arm
                0x0000645c                ____umodsi3_from_arm
                0x00006468                ____udivsi3_from_arm
                0x000063a8                __fifo_avail_from_arm
                0x00006414                __USBInit_from_arm
                0x000063fc                __memcpy_from_arm
                0x00006444                __USBHwRegisterFrameHandler_from_arm
                0x00006420                __USBRegisterDescriptors_from_arm
                0x0000642c                __USBRegisterRequestHandler_from_arm
                0x0000636c                __LEDS_on_from_arm
                0x00006390                __PWM_init_from_arm
                0x00006360                __LEDS_init_from_arm
                0x00006474                __floor_from_arm
                0x000063d8                __fifo_put_from_arm
                0x000063cc                __USBHwEPRead_from_arm
                0x00006378                __PWM_pulsewidth_us_from_arm
                0x000063c0                __fifo_free_from_arm
                0x00006438                __USBHwRegisterEPIntHandler_from_arm
 *(.glue_7t)
 .glue_7t       0x00006480        0x0 startup.o
 .glue_7t       0x00006480        0x0 main.o
 .glue_7t       0x00006480        0x0 servo.o
 .glue_7t       0x00006480        0x0 c:/espardino/bin/../lib/gcc/arm-elf/4.4.0/thumb/interwork\libgcc.a(_arm_addsubdf3.o)
 .glue_7t       0x00006480        0x0 c:/espardino/bin/../lib/gcc/arm-elf/4.4.0/thumb/interwork\libgcc.a(_arm_muldivdf3.o)
 .glue_7t       0x00006480        0x0 c:/espardino/bin/../lib/gcc/arm-elf/4.4.0/thumb/interwork\libgcc.a(_arm_cmpdf2.o)
 .glue_7t       0x00006480        0x0 c:/espardino/bin/../lib/gcc/arm-elf/4.4.0/thumb/interwork\libgcc.a(_arm_fixdfsi.o)
 .glue_7t       0x00006480        0x0 c:/espardino/bin/../lib/gcc/arm-elf/4.4.0/../../../../arm-elf/lib\libnanoc++.a(nanoc++.o)
 .glue_7t       0x00006480        0x0 c:/espardino/bin/../lib/gcc/arm-elf/4.4.0/../../../../arm-elf/lib/thumb/interwork\libvcom.a(main_serial.o)
 .glue_7t       0x00006480        0x0 c:/espardino/bin/../lib/gcc/arm-elf/4.4.0/../../../../arm-elf/lib/thumb/interwork\libvcom.a(usbhw_lpc.o)
 .glue_7t       0x00006480        0x0 c:/espardino/bin/../lib/gcc/arm-elf/4.4.0/../../../../arm-elf/lib/thumb/interwork\libvcom.a(usbcontrol.o)
 .glue_7t       0x00006480        0x0 c:/espardino/bin/../lib/gcc/arm-elf/4.4.0/../../../../arm-elf/lib/thumb/interwork\libvcom.a(usbstdreq.o)
 .glue_7t       0x00006480        0x0 c:/espardino/bin/../lib/gcc/arm-elf/4.4.0/../../../../arm-elf/lib/thumb/interwork\libvcom.a(usbinit.o)
 .glue_7t       0x00006480        0x0 c:/espardino/bin/../lib/gcc/arm-elf/4.4.0/../../../../arm-elf/lib/thumb/interwork\libvcom.a(serial_fifo.o)
 .glue_7t       0x00006480        0x0 c:/espardino/bin/../lib/gcc/arm-elf/4.4.0/../../../../arm-elf/lib/thumb/interwork\libvcom.a(armVIC.o)
 .glue_7t       0x00006480        0x0 c:/espardino/bin/../lib/gcc/arm-elf/4.4.0/../../../../arm-elf/lib\libmicro214x.a(leds.o)
 .glue_7t       0x00006480        0x0 c:/espardino/bin/../lib/gcc/arm-elf/4.4.0/../../../../arm-elf/lib\libmicro214x.a(pwm.o)
 .glue_7t       0x00006480        0x0 c:/espardino/bin/../lib/gcc/arm-elf/4.4.0/../../../../arm-elf/lib\libmicro214x.a(sysclocks.o)
 .glue_7t       0x00006480        0x0 c:/espardino/bin/../lib/gcc/arm-elf/4.4.0/../../../../arm-elf/lib\libmicro214x.a(iolib.o)
 .glue_7t       0x00006480        0x0 c:/espardino/bin/../lib/gcc/arm-elf/4.4.0/../../../../arm-elf/lib\libmicro214x.a(miniprintf.o)
 .glue_7t       0x00006480        0x0 c:/espardino/bin/../lib/gcc/arm-elf/4.4.0/../../../../arm-elf/lib/thumb/interwork\libm.a(lib_a-s_floor.o)
 .glue_7t       0x00006480        0x0 c:/espardino/bin/../lib/gcc/arm-elf/4.4.0/thumb/interwork\libgcc.a(_udivsi3.o)
 .glue_7t       0x00006480        0x0 c:/espardino/bin/../lib/gcc/arm-elf/4.4.0/thumb/interwork\libgcc.a(_divsi3.o)
 .glue_7t       0x00006480        0x0 c:/espardino/bin/../lib/gcc/arm-elf/4.4.0/thumb/interwork\libgcc.a(_umodsi3.o)
 .glue_7t       0x00006480        0x0 c:/espardino/bin/../lib/gcc/arm-elf/4.4.0/thumb/interwork\libgcc.a(_dvmd_tls.o)
 .glue_7t       0x00006480        0x0 c:/espardino/bin/../lib/gcc/arm-elf/4.4.0/../../../../arm-elf/lib/thumb/interwork\libg.a(lib_a-malloc.o)
 .glue_7t       0x00006480        0x0 c:/espardino/bin/../lib/gcc/arm-elf/4.4.0/../../../../arm-elf/lib/thumb/interwork\libg.a(lib_a-mallocr.o)
 .glue_7t       0x00006480        0x0 c:/espardino/bin/../lib/gcc/arm-elf/4.4.0/../../../../arm-elf/lib/thumb/interwork\libg.a(lib_a-memcpy.o)
 .glue_7t       0x00006480        0x0 c:/espardino/bin/../lib/gcc/arm-elf/4.4.0/../../../../arm-elf/lib/thumb/interwork\libg.a(lib_a-mlock.o)
 .glue_7t       0x00006480        0x0 c:/espardino/bin/../lib/gcc/arm-elf/4.4.0/../../../../arm-elf/lib/thumb/interwork\libg.a(lib_a-sbrkr.o)
 .glue_7t       0x00006480        0x0 c:/espardino/bin/../lib/gcc/arm-elf/4.4.0/../../../../arm-elf/lib/thumb/interwork\libg.a(lib_a-syscalls.o)
 .glue_7t       0x00006480        0x0 c:/espardino/bin/../lib/gcc/arm-elf/4.4.0/../../../../arm-elf/lib/thumb/interwork\libg.a(lib_a-errno.o)
 .glue_7t       0x00006480        0x0 c:/espardino/bin/../lib/gcc/arm-elf/4.4.0/../../../../arm-elf/lib/thumb/interwork\libg.a(lib_a-findfp.o)
 .glue_7t       0x00006480        0x0 c:/espardino/bin/../lib/gcc/arm-elf/4.4.0/../../../../arm-elf/lib/thumb/interwork\libg.a(lib_a-freer.o)
 .glue_7t       0x00006480        0x0 c:/espardino/bin/../lib/gcc/arm-elf/4.4.0/../../../../arm-elf/lib/thumb/interwork\libg.a(lib_a-fwalk.o)
 .glue_7t       0x00006480        0x0 c:/espardino/bin/../lib/gcc/arm-elf/4.4.0/../../../../arm-elf/lib/thumb/interwork\libg.a(lib_a-impure.o)
 .glue_7t       0x00006480        0x0 c:/espardino/bin/../lib/gcc/arm-elf/4.4.0/../../../../arm-elf/lib/thumb/interwork\libg.a(lib_a-memset.o)
 .glue_7t       0x00006480        0x0 c:/espardino/bin/../lib/gcc/arm-elf/4.4.0/../../../../arm-elf/lib/thumb/interwork\libg.a(lib_a-reent.o)
 .glue_7t       0x00006480        0x0 c:/espardino/bin/../lib/gcc/arm-elf/4.4.0/../../../../arm-elf/lib/thumb/interwork\libg.a(lib_a-stdio.o)
 .glue_7t       0x00006480        0x0 c:/espardino/bin/../lib/gcc/arm-elf/4.4.0/../../../../arm-elf/lib/thumb/interwork\libg.a(lib_a-strlen.o)
 .glue_7t       0x00006480        0x0 c:/espardino/bin/../lib/gcc/arm-elf/4.4.0/../../../../arm-elf/lib/thumb/interwork\libg.a(lib_a-writer.o)
 .glue_7t       0x00006480        0x0 c:/espardino/bin/../lib/gcc/arm-elf/4.4.0/../../../../arm-elf/lib/thumb/interwork\libg.a(lib_a-closer.o)
 .glue_7t       0x00006480        0x0 c:/espardino/bin/../lib/gcc/arm-elf/4.4.0/../../../../arm-elf/lib/thumb/interwork\libg.a(lib_a-fclose.o)
 .glue_7t       0x00006480        0x0 c:/espardino/bin/../lib/gcc/arm-elf/4.4.0/../../../../arm-elf/lib/thumb/interwork\libg.a(lib_a-fflush.o)
 .glue_7t       0x00006480        0x0 c:/espardino/bin/../lib/gcc/arm-elf/4.4.0/../../../../arm-elf/lib/thumb/interwork\libg.a(lib_a-lseekr.o)
 .glue_7t       0x00006480       0x10 c:/espardino/bin/../lib/gcc/arm-elf/4.4.0/../../../../arm-elf/lib/thumb/interwork\libg.a(lib_a-readr.o)
                0x00006488                ____gtdf2_from_thumb
                0x00006484                ____adddf3_change_to_arm
                0x0000648c                ____gtdf2_change_to_arm
                0x00006480                ____adddf3_from_thumb
 *(.rodata)
 .rodata        0x00006490       0x90 c:/espardino/bin/../lib/gcc/arm-elf/4.4.0/../../../../arm-elf/lib/thumb/interwork\libvcom.a(main_serial.o)
 .rodata        0x00006520       0x28 c:/espardino/bin/../lib/gcc/arm-elf/4.4.0/../../../../arm-elf/lib/thumb/interwork\libvcom.a(usbstdreq.o)
 .rodata        0x00006548        0x4 c:/espardino/bin/../lib/gcc/arm-elf/4.4.0/../../../../arm-elf/lib/thumb/interwork\libg.a(lib_a-impure.o)
                0x00006548                _global_impure_ptr
 *(.rodata*)
 .rodata.str1.4
                0x0000654c       0x63 main.o
                                 0x64 (tamaño antes de la relajación)
 .rodata.str1.1
                0x000065af        0x7 c:/espardino/bin/../lib/gcc/arm-elf/4.4.0/../../../../arm-elf/lib\libmicro214x.a(miniprintf.o)
 *fill*         0x000065b6        0x2 00
 .rodata.str1.4
                0x000065b8        0x4 c:/espardino/bin/../lib/gcc/arm-elf/4.4.0/../../../../arm-elf/lib/thumb/interwork\libg.a(lib_a-syscalls.o)
 .rodata.str1.4
                0x000065bc        0x4 c:/espardino/bin/../lib/gcc/arm-elf/4.4.0/../../../../arm-elf/lib/thumb/interwork\libg.a(lib_a-impure.o)
 *(.gnu.linkonce.r.*)

.vfp11_veneer   0x000065c0        0x0
 .vfp11_veneer  0x000065c0        0x0 startup.o
 .vfp11_veneer  0x000065c0        0x0 main.o
 .vfp11_veneer  0x000065c0        0x0 servo.o
 .vfp11_veneer  0x000065c0        0x0 c:/espardino/bin/../lib/gcc/arm-elf/4.4.0/thumb/interwork\libgcc.a(_arm_addsubdf3.o)
 .vfp11_veneer  0x000065c0        0x0 c:/espardino/bin/../lib/gcc/arm-elf/4.4.0/thumb/interwork\libgcc.a(_arm_muldivdf3.o)
 .vfp11_veneer  0x000065c0        0x0 c:/espardino/bin/../lib/gcc/arm-elf/4.4.0/thumb/interwork\libgcc.a(_arm_cmpdf2.o)
 .vfp11_veneer  0x000065c0        0x0 c:/espardino/bin/../lib/gcc/arm-elf/4.4.0/thumb/interwork\libgcc.a(_arm_fixdfsi.o)
 .vfp11_veneer  0x000065c0        0x0 c:/espardino/bin/../lib/gcc/arm-elf/4.4.0/../../../../arm-elf/lib\libnanoc++.a(nanoc++.o)
 .vfp11_veneer  0x000065c0        0x0 c:/espardino/bin/../lib/gcc/arm-elf/4.4.0/../../../../arm-elf/lib/thumb/interwork\libvcom.a(main_serial.o)
 .vfp11_veneer  0x000065c0        0x0 c:/espardino/bin/../lib/gcc/arm-elf/4.4.0/../../../../arm-elf/lib/thumb/interwork\libvcom.a(usbhw_lpc.o)
 .vfp11_veneer  0x000065c0        0x0 c:/espardino/bin/../lib/gcc/arm-elf/4.4.0/../../../../arm-elf/lib/thumb/interwork\libvcom.a(usbcontrol.o)
 .vfp11_veneer  0x000065c0        0x0 c:/espardino/bin/../lib/gcc/arm-elf/4.4.0/../../../../arm-elf/lib/thumb/interwork\libvcom.a(usbstdreq.o)
 .vfp11_veneer  0x000065c0        0x0 c:/espardino/bin/../lib/gcc/arm-elf/4.4.0/../../../../arm-elf/lib/thumb/interwork\libvcom.a(usbinit.o)
 .vfp11_veneer  0x000065c0        0x0 c:/espardino/bin/../lib/gcc/arm-elf/4.4.0/../../../../arm-elf/lib/thumb/interwork\libvcom.a(serial_fifo.o)
 .vfp11_veneer  0x000065c0        0x0 c:/espardino/bin/../lib/gcc/arm-elf/4.4.0/../../../../arm-elf/lib/thumb/interwork\libvcom.a(armVIC.o)
 .vfp11_veneer  0x000065c0        0x0 c:/espardino/bin/../lib/gcc/arm-elf/4.4.0/../../../../arm-elf/lib\libmicro214x.a(leds.o)
 .vfp11_veneer  0x000065c0        0x0 c:/espardino/bin/../lib/gcc/arm-elf/4.4.0/../../../../arm-elf/lib\libmicro214x.a(pwm.o)
 .vfp11_veneer  0x000065c0        0x0 c:/espardino/bin/../lib/gcc/arm-elf/4.4.0/../../../../arm-elf/lib\libmicro214x.a(sysclocks.o)
 .vfp11_veneer  0x000065c0        0x0 c:/espardino/bin/../lib/gcc/arm-elf/4.4.0/../../../../arm-elf/lib\libmicro214x.a(iolib.o)
 .vfp11_veneer  0x000065c0        0x0 c:/espardino/bin/../lib/gcc/arm-elf/4.4.0/../../../../arm-elf/lib\libmicro214x.a(miniprintf.o)
 .vfp11_veneer  0x000065c0        0x0 c:/espardino/bin/../lib/gcc/arm-elf/4.4.0/../../../../arm-elf/lib/thumb/interwork\libm.a(lib_a-s_floor.o)
 .vfp11_veneer  0x000065c0        0x0 c:/espardino/bin/../lib/gcc/arm-elf/4.4.0/thumb/interwork\libgcc.a(_udivsi3.o)
 .vfp11_veneer  0x000065c0        0x0 c:/espardino/bin/../lib/gcc/arm-elf/4.4.0/thumb/interwork\libgcc.a(_divsi3.o)
 .vfp11_veneer  0x000065c0        0x0 c:/espardino/bin/../lib/gcc/arm-elf/4.4.0/thumb/interwork\libgcc.a(_umodsi3.o)
 .vfp11_veneer  0x000065c0        0x0 c:/espardino/bin/../lib/gcc/arm-elf/4.4.0/thumb/interwork\libgcc.a(_dvmd_tls.o)
 .vfp11_veneer  0x000065c0        0x0 c:/espardino/bin/../lib/gcc/arm-elf/4.4.0/../../../../arm-elf/lib/thumb/interwork\libg.a(lib_a-malloc.o)
 .vfp11_veneer  0x000065c0        0x0 c:/espardino/bin/../lib/gcc/arm-elf/4.4.0/../../../../arm-elf/lib/thumb/interwork\libg.a(lib_a-mallocr.o)
 .vfp11_veneer  0x000065c0        0x0 c:/espardino/bin/../lib/gcc/arm-elf/4.4.0/../../../../arm-elf/lib/thumb/interwork\libg.a(lib_a-memcpy.o)
 .vfp11_veneer  0x000065c0        0x0 c:/espardino/bin/../lib/gcc/arm-elf/4.4.0/../../../../arm-elf/lib/thumb/interwork\libg.a(lib_a-mlock.o)
 .vfp11_veneer  0x000065c0        0x0 c:/espardino/bin/../lib/gcc/arm-elf/4.4.0/../../../../arm-elf/lib/thumb/interwork\libg.a(lib_a-sbrkr.o)
 .vfp11_veneer  0x000065c0        0x0 c:/espardino/bin/../lib/gcc/arm-elf/4.4.0/../../../../arm-elf/lib/thumb/interwork\libg.a(lib_a-syscalls.o)
 .vfp11_veneer  0x000065c0        0x0 c:/espardino/bin/../lib/gcc/arm-elf/4.4.0/../../../../arm-elf/lib/thumb/interwork\libg.a(lib_a-errno.o)
 .vfp11_veneer  0x000065c0        0x0 c:/espardino/bin/../lib/gcc/arm-elf/4.4.0/../../../../arm-elf/lib/thumb/interwork\libg.a(lib_a-findfp.o)
 .vfp11_veneer  0x000065c0        0x0 c:/espardino/bin/../lib/gcc/arm-elf/4.4.0/../../../../arm-elf/lib/thumb/interwork\libg.a(lib_a-freer.o)
 .vfp11_veneer  0x000065c0        0x0 c:/espardino/bin/../lib/gcc/arm-elf/4.4.0/../../../../arm-elf/lib/thumb/interwork\libg.a(lib_a-fwalk.o)
 .vfp11_veneer  0x000065c0        0x0 c:/espardino/bin/../lib/gcc/arm-elf/4.4.0/../../../../arm-elf/lib/thumb/interwork\libg.a(lib_a-impure.o)
 .vfp11_veneer  0x000065c0        0x0 c:/espardino/bin/../lib/gcc/arm-elf/4.4.0/../../../../arm-elf/lib/thumb/interwork\libg.a(lib_a-memset.o)
 .vfp11_veneer  0x000065c0        0x0 c:/espardino/bin/../lib/gcc/arm-elf/4.4.0/../../../../arm-elf/lib/thumb/interwork\libg.a(lib_a-reent.o)
 .vfp11_veneer  0x000065c0        0x0 c:/espardino/bin/../lib/gcc/arm-elf/4.4.0/../../../../arm-elf/lib/thumb/interwork\libg.a(lib_a-stdio.o)
 .vfp11_veneer  0x000065c0        0x0 c:/espardino/bin/../lib/gcc/arm-elf/4.4.0/../../../../arm-elf/lib/thumb/interwork\libg.a(lib_a-strlen.o)
 .vfp11_veneer  0x000065c0        0x0 c:/espardino/bin/../lib/gcc/arm-elf/4.4.0/../../../../arm-elf/lib/thumb/interwork\libg.a(lib_a-writer.o)
 .vfp11_veneer  0x000065c0        0x0 c:/espardino/bin/../lib/gcc/arm-elf/4.4.0/../../../../arm-elf/lib/thumb/interwork\libg.a(lib_a-closer.o)
 .vfp11_veneer  0x000065c0        0x0 c:/espardino/bin/../lib/gcc/arm-elf/4.4.0/../../../../arm-elf/lib/thumb/interwork\libg.a(lib_a-fclose.o)
 .vfp11_veneer  0x000065c0        0x0 c:/espardino/bin/../lib/gcc/arm-elf/4.4.0/../../../../arm-elf/lib/thumb/interwork\libg.a(lib_a-fflush.o)
 .vfp11_veneer  0x000065c0        0x0 c:/espardino/bin/../lib/gcc/arm-elf/4.4.0/../../../../arm-elf/lib/thumb/interwork\libg.a(lib_a-lseekr.o)
 .vfp11_veneer  0x000065c0        0x0 c:/espardino/bin/../lib/gcc/arm-elf/4.4.0/../../../../arm-elf/lib/thumb/interwork\libg.a(lib_a-readr.o)
                0x000065c0                . = ALIGN (0x4)

.ctors          0x000065c0        0x0
                0x000065c0                PROVIDE (__ctors_start__, .)
 *(SORT(.ctors.*))
 *(.ctors)
                0x000065c0                PROVIDE (__ctors_end__, .)

.dtors          0x000065c0        0x0
                0x000065c0                PROVIDE (__dtors_start__, .)
 *(SORT(.dtors.*))
 *(.dtors)
                0x000065c0                PROVIDE (__dtors_end__, .)
                0x000065c0                . = ALIGN (0x4)
                0x000065c0                _etext = .
                0x000065c0                PROVIDE (etext, .)

.data           0x40000000      0x868 cargar la dirección 0x000065c0
                0x40000000                _data = .
 *(.data)
 .data          0x40000000        0x0 startup.o
 .data          0x40000000        0x0 main.o
 .data          0x40000000        0x0 servo.o
 .data          0x40000000        0x0 c:/espardino/bin/../lib/gcc/arm-elf/4.4.0/thumb/interwork\libgcc.a(_arm_addsubdf3.o)
 .data          0x40000000        0x0 c:/espardino/bin/../lib/gcc/arm-elf/4.4.0/thumb/interwork\libgcc.a(_arm_muldivdf3.o)
 .data          0x40000000        0x0 c:/espardino/bin/../lib/gcc/arm-elf/4.4.0/thumb/interwork\libgcc.a(_arm_cmpdf2.o)
 .data          0x40000000        0x0 c:/espardino/bin/../lib/gcc/arm-elf/4.4.0/thumb/interwork\libgcc.a(_arm_fixdfsi.o)
 .data          0x40000000        0x4 c:/espardino/bin/../lib/gcc/arm-elf/4.4.0/../../../../arm-elf/lib\libnanoc++.a(nanoc++.o)
                0x40000000                __gxx_personality_sj0
 .data          0x40000004        0x8 c:/espardino/bin/../lib/gcc/arm-elf/4.4.0/../../../../arm-elf/lib/thumb/interwork\libvcom.a(main_serial.o)
 .data          0x4000000c        0x0 c:/espardino/bin/../lib/gcc/arm-elf/4.4.0/../../../../arm-elf/lib/thumb/interwork\libvcom.a(usbhw_lpc.o)
 .data          0x4000000c        0x0 c:/espardino/bin/../lib/gcc/arm-elf/4.4.0/../../../../arm-elf/lib/thumb/interwork\libvcom.a(usbcontrol.o)
 .data          0x4000000c        0x0 c:/espardino/bin/../lib/gcc/arm-elf/4.4.0/../../../../arm-elf/lib/thumb/interwork\libvcom.a(usbstdreq.o)
 .data          0x4000000c        0x0 c:/espardino/bin/../lib/gcc/arm-elf/4.4.0/../../../../arm-elf/lib/thumb/interwork\libvcom.a(usbinit.o)
 .data          0x4000000c        0x0 c:/espardino/bin/../lib/gcc/arm-elf/4.4.0/../../../../arm-elf/lib/thumb/interwork\libvcom.a(serial_fifo.o)
 .data          0x4000000c        0x0 c:/espardino/bin/../lib/gcc/arm-elf/4.4.0/../../../../arm-elf/lib/thumb/interwork\libvcom.a(armVIC.o)
 .data          0x4000000c        0x0 c:/espardino/bin/../lib/gcc/arm-elf/4.4.0/../../../../arm-elf/lib\libmicro214x.a(leds.o)
 .data          0x4000000c       0x1c c:/espardino/bin/../lib/gcc/arm-elf/4.4.0/../../../../arm-elf/lib\libmicro214x.a(pwm.o)
 .data          0x40000028        0x8 c:/espardino/bin/../lib/gcc/arm-elf/4.4.0/../../../../arm-elf/lib\libmicro214x.a(sysclocks.o)
                0x4000002c                SYSCLK_speed_Hz
                0x40000028                VPB_speed_Hz
 .data          0x40000030        0x0 c:/espardino/bin/../lib/gcc/arm-elf/4.4.0/../../../../arm-elf/lib\libmicro214x.a(iolib.o)
 .data          0x40000030        0x0 c:/espardino/bin/../lib/gcc/arm-elf/4.4.0/../../../../arm-elf/lib\libmicro214x.a(miniprintf.o)
 .data          0x40000030        0x0 c:/espardino/bin/../lib/gcc/arm-elf/4.4.0/../../../../arm-elf/lib/thumb/interwork\libm.a(lib_a-s_floor.o)
 .data          0x40000030        0x0 c:/espardino/bin/../lib/gcc/arm-elf/4.4.0/thumb/interwork\libgcc.a(_udivsi3.o)
 .data          0x40000030        0x0 c:/espardino/bin/../lib/gcc/arm-elf/4.4.0/thumb/interwork\libgcc.a(_divsi3.o)
 .data          0x40000030        0x0 c:/espardino/bin/../lib/gcc/arm-elf/4.4.0/thumb/interwork\libgcc.a(_umodsi3.o)
 .data          0x40000030        0x0 c:/espardino/bin/../lib/gcc/arm-elf/4.4.0/thumb/interwork\libgcc.a(_dvmd_tls.o)
 .data          0x40000030        0x0 c:/espardino/bin/../lib/gcc/arm-elf/4.4.0/../../../../arm-elf/lib/thumb/interwork\libg.a(lib_a-malloc.o)
 .data          0x40000030      0x410 c:/espardino/bin/../lib/gcc/arm-elf/4.4.0/../../../../arm-elf/lib/thumb/interwork\libg.a(lib_a-mallocr.o)
                0x40000438                __malloc_sbrk_base
                0x40000030                __malloc_av_
                0x4000043c                __malloc_trim_threshold
 .data          0x40000440        0x0 c:/espardino/bin/../lib/gcc/arm-elf/4.4.0/../../../../arm-elf/lib/thumb/interwork\libg.a(lib_a-memcpy.o)
 .data          0x40000440        0x0 c:/espardino/bin/../lib/gcc/arm-elf/4.4.0/../../../../arm-elf/lib/thumb/interwork\libg.a(lib_a-mlock.o)
 .data          0x40000440        0x0 c:/espardino/bin/../lib/gcc/arm-elf/4.4.0/../../../../arm-elf/lib/thumb/interwork\libg.a(lib_a-sbrkr.o)
 .data          0x40000440        0x0 c:/espardino/bin/../lib/gcc/arm-elf/4.4.0/../../../../arm-elf/lib/thumb/interwork\libg.a(lib_a-syscalls.o)
 .data          0x40000440        0x0 c:/espardino/bin/../lib/gcc/arm-elf/4.4.0/../../../../arm-elf/lib/thumb/interwork\libg.a(lib_a-errno.o)
 .data          0x40000440        0x0 c:/espardino/bin/../lib/gcc/arm-elf/4.4.0/../../../../arm-elf/lib/thumb/interwork\libg.a(lib_a-findfp.o)
 .data          0x40000440        0x0 c:/espardino/bin/../lib/gcc/arm-elf/4.4.0/../../../../arm-elf/lib/thumb/interwork\libg.a(lib_a-freer.o)
 .data          0x40000440        0x0 c:/espardino/bin/../lib/gcc/arm-elf/4.4.0/../../../../arm-elf/lib/thumb/interwork\libg.a(lib_a-fwalk.o)
 .data          0x40000440      0x428 c:/espardino/bin/../lib/gcc/arm-elf/4.4.0/../../../../arm-elf/lib/thumb/interwork\libg.a(lib_a-impure.o)
                0x40000440                _impure_ptr
 .data          0x40000868        0x0 c:/espardino/bin/../lib/gcc/arm-elf/4.4.0/../../../../arm-elf/lib/thumb/interwork\libg.a(lib_a-memset.o)
 .data          0x40000868        0x0 c:/espardino/bin/../lib/gcc/arm-elf/4.4.0/../../../../arm-elf/lib/thumb/interwork\libg.a(lib_a-reent.o)
 .data          0x40000868        0x0 c:/espardino/bin/../lib/gcc/arm-elf/4.4.0/../../../../arm-elf/lib/thumb/interwork\libg.a(lib_a-stdio.o)
 .data          0x40000868        0x0 c:/espardino/bin/../lib/gcc/arm-elf/4.4.0/../../../../arm-elf/lib/thumb/interwork\libg.a(lib_a-strlen.o)
 .data          0x40000868        0x0 c:/espardino/bin/../lib/gcc/arm-elf/4.4.0/../../../../arm-elf/lib/thumb/interwork\libg.a(lib_a-writer.o)
 .data          0x40000868        0x0 c:/espardino/bin/../lib/gcc/arm-elf/4.4.0/../../../../arm-elf/lib/thumb/interwork\libg.a(lib_a-closer.o)
 .data          0x40000868        0x0 c:/espardino/bin/../lib/gcc/arm-elf/4.4.0/../../../../arm-elf/lib/thumb/interwork\libg.a(lib_a-fclose.o)
 .data          0x40000868        0x0 c:/espardino/bin/../lib/gcc/arm-elf/4.4.0/../../../../arm-elf/lib/thumb/interwork\libg.a(lib_a-fflush.o)
 .data          0x40000868        0x0 c:/espardino/bin/../lib/gcc/arm-elf/4.4.0/../../../../arm-elf/lib/thumb/interwork\libg.a(lib_a-lseekr.o)
 .data          0x40000868        0x0 c:/espardino/bin/../lib/gcc/arm-elf/4.4.0/../../../../arm-elf/lib/thumb/interwork\libg.a(lib_a-readr.o)
 *(.data.*)
 *(.gnu.linkonce.d*)
                0x40000868                . = ALIGN (0x4)
 *(.fastrun)
                0x40000868                . = ALIGN (0x4)
                0x40000868                _edata = .
                0x40000868                PROVIDE (edata, .)

.bss            0x40000868      0x2e8 cargar la dirección 0x00006e28
                0x40000868                __bss_start = .
                0x40000868                __bss_start__ = .
 *(.bss)
 .bss           0x40000868        0x0 startup.o
 .bss           0x40000868        0x0 main.o
 .bss           0x40000868        0x0 servo.o
 .bss           0x40000868        0x0 c:/espardino/bin/../lib/gcc/arm-elf/4.4.0/thumb/interwork\libgcc.a(_arm_addsubdf3.o)
 .bss           0x40000868        0x0 c:/espardino/bin/../lib/gcc/arm-elf/4.4.0/thumb/interwork\libgcc.a(_arm_muldivdf3.o)
 .bss           0x40000868        0x0 c:/espardino/bin/../lib/gcc/arm-elf/4.4.0/thumb/interwork\libgcc.a(_arm_cmpdf2.o)
 .bss           0x40000868        0x0 c:/espardino/bin/../lib/gcc/arm-elf/4.4.0/thumb/interwork\libgcc.a(_arm_fixdfsi.o)
 .bss           0x40000868        0x0 c:/espardino/bin/../lib/gcc/arm-elf/4.4.0/../../../../arm-elf/lib\libnanoc++.a(nanoc++.o)
 .bss           0x40000868      0x160 c:/espardino/bin/../lib/gcc/arm-elf/4.4.0/../../../../arm-elf/lib/thumb/interwork\libvcom.a(main_serial.o)
 .bss           0x400009c8       0x48 c:/espardino/bin/../lib/gcc/arm-elf/4.4.0/../../../../arm-elf/lib/thumb/interwork\libvcom.a(usbhw_lpc.o)
 .bss           0x40000a10       0x34 c:/espardino/bin/../lib/gcc/arm-elf/4.4.0/../../../../arm-elf/lib/thumb/interwork\libvcom.a(usbcontrol.o)
 .bss           0x40000a44        0xc c:/espardino/bin/../lib/gcc/arm-elf/4.4.0/../../../../arm-elf/lib/thumb/interwork\libvcom.a(usbstdreq.o)
 .bss           0x40000a50        0x8 c:/espardino/bin/../lib/gcc/arm-elf/4.4.0/../../../../arm-elf/lib/thumb/interwork\libvcom.a(usbinit.o)
 .bss           0x40000a58        0x0 c:/espardino/bin/../lib/gcc/arm-elf/4.4.0/../../../../arm-elf/lib/thumb/interwork\libvcom.a(serial_fifo.o)
 .bss           0x40000a58        0x0 c:/espardino/bin/../lib/gcc/arm-elf/4.4.0/../../../../arm-elf/lib/thumb/interwork\libvcom.a(armVIC.o)
 .bss           0x40000a58        0x0 c:/espardino/bin/../lib/gcc/arm-elf/4.4.0/../../../../arm-elf/lib\libmicro214x.a(leds.o)
 .bss           0x40000a58        0x0 c:/espardino/bin/../lib/gcc/arm-elf/4.4.0/../../../../arm-elf/lib\libmicro214x.a(pwm.o)
 .bss           0x40000a58        0x0 c:/espardino/bin/../lib/gcc/arm-elf/4.4.0/../../../../arm-elf/lib\libmicro214x.a(sysclocks.o)
 .bss           0x40000a58        0x4 c:/espardino/bin/../lib/gcc/arm-elf/4.4.0/../../../../arm-elf/lib\libmicro214x.a(iolib.o)
 .bss           0x40000a5c        0x4 c:/espardino/bin/../lib/gcc/arm-elf/4.4.0/../../../../arm-elf/lib\libmicro214x.a(miniprintf.o)
 .bss           0x40000a60        0x0 c:/espardino/bin/../lib/gcc/arm-elf/4.4.0/../../../../arm-elf/lib/thumb/interwork\libm.a(lib_a-s_floor.o)
 .bss           0x40000a60        0x0 c:/espardino/bin/../lib/gcc/arm-elf/4.4.0/thumb/interwork\libgcc.a(_udivsi3.o)
 .bss           0x40000a60        0x0 c:/espardino/bin/../lib/gcc/arm-elf/4.4.0/thumb/interwork\libgcc.a(_divsi3.o)
 .bss           0x40000a60        0x0 c:/espardino/bin/../lib/gcc/arm-elf/4.4.0/thumb/interwork\libgcc.a(_umodsi3.o)
 .bss           0x40000a60        0x0 c:/espardino/bin/../lib/gcc/arm-elf/4.4.0/thumb/interwork\libgcc.a(_dvmd_tls.o)
 .bss           0x40000a60        0x0 c:/espardino/bin/../lib/gcc/arm-elf/4.4.0/../../../../arm-elf/lib/thumb/interwork\libg.a(lib_a-malloc.o)
 .bss           0x40000a60       0x34 c:/espardino/bin/../lib/gcc/arm-elf/4.4.0/../../../../arm-elf/lib/thumb/interwork\libg.a(lib_a-mallocr.o)
                0x40000a60                __malloc_top_pad
                0x40000a8c                __malloc_max_sbrked_mem
                0x40000a64                __malloc_current_mallinfo
                0x40000a90                __malloc_max_total_mem
 .bss           0x40000a94        0x0 c:/espardino/bin/../lib/gcc/arm-elf/4.4.0/../../../../arm-elf/lib/thumb/interwork\libg.a(lib_a-memcpy.o)
 .bss           0x40000a94        0x0 c:/espardino/bin/../lib/gcc/arm-elf/4.4.0/../../../../arm-elf/lib/thumb/interwork\libg.a(lib_a-mlock.o)
 .bss           0x40000a94        0x0 c:/espardino/bin/../lib/gcc/arm-elf/4.4.0/../../../../arm-elf/lib/thumb/interwork\libg.a(lib_a-sbrkr.o)
 .bss           0x40000a94       0xb0 c:/espardino/bin/../lib/gcc/arm-elf/4.4.0/../../../../arm-elf/lib/thumb/interwork\libg.a(lib_a-syscalls.o)
 .bss           0x40000b44        0x0 c:/espardino/bin/../lib/gcc/arm-elf/4.4.0/../../../../arm-elf/lib/thumb/interwork\libg.a(lib_a-errno.o)
 .bss           0x40000b44        0x0 c:/espardino/bin/../lib/gcc/arm-elf/4.4.0/../../../../arm-elf/lib/thumb/interwork\libg.a(lib_a-findfp.o)
 .bss           0x40000b44        0x0 c:/espardino/bin/../lib/gcc/arm-elf/4.4.0/../../../../arm-elf/lib/thumb/interwork\libg.a(lib_a-freer.o)
 .bss           0x40000b44        0x0 c:/espardino/bin/../lib/gcc/arm-elf/4.4.0/../../../../arm-elf/lib/thumb/interwork\libg.a(lib_a-fwalk.o)
 .bss           0x40000b44        0x0 c:/espardino/bin/../lib/gcc/arm-elf/4.4.0/../../../../arm-elf/lib/thumb/interwork\libg.a(lib_a-impure.o)
 .bss           0x40000b44        0x0 c:/espardino/bin/../lib/gcc/arm-elf/4.4.0/../../../../arm-elf/lib/thumb/interwork\libg.a(lib_a-memset.o)
 .bss           0x40000b44        0x0 c:/espardino/bin/../lib/gcc/arm-elf/4.4.0/../../../../arm-elf/lib/thumb/interwork\libg.a(lib_a-reent.o)
 .bss           0x40000b44        0x0 c:/espardino/bin/../lib/gcc/arm-elf/4.4.0/../../../../arm-elf/lib/thumb/interwork\libg.a(lib_a-stdio.o)
 .bss           0x40000b44        0x0 c:/espardino/bin/../lib/gcc/arm-elf/4.4.0/../../../../arm-elf/lib/thumb/interwork\libg.a(lib_a-strlen.o)
 .bss           0x40000b44        0x0 c:/espardino/bin/../lib/gcc/arm-elf/4.4.0/../../../../arm-elf/lib/thumb/interwork\libg.a(lib_a-writer.o)
 .bss           0x40000b44        0x0 c:/espardino/bin/../lib/gcc/arm-elf/4.4.0/../../../../arm-elf/lib/thumb/interwork\libg.a(lib_a-closer.o)
 .bss           0x40000b44        0x0 c:/espardino/bin/../lib/gcc/arm-elf/4.4.0/../../../../arm-elf/lib/thumb/interwork\libg.a(lib_a-fclose.o)
 .bss           0x40000b44        0x0 c:/espardino/bin/../lib/gcc/arm-elf/4.4.0/../../../../arm-elf/lib/thumb/interwork\libg.a(lib_a-fflush.o)
 .bss           0x40000b44        0x0 c:/espardino/bin/../lib/gcc/arm-elf/4.4.0/../../../../arm-elf/lib/thumb/interwork\libg.a(lib_a-lseekr.o)
 .bss           0x40000b44        0x0 c:/espardino/bin/../lib/gcc/arm-elf/4.4.0/../../../../arm-elf/lib/thumb/interwork\libg.a(lib_a-readr.o)
 *(.gnu.linkonce.b*)
 *(COMMON)
 COMMON         0x40000b44        0x8 c:/espardino/bin/../lib/gcc/arm-elf/4.4.0/../../../../arm-elf/lib\libmicro214x.a(pwm.o)
                0x40000b44                PWM_us_precalc_factor
                0x40000b48                PWM_pc_precalc_factor
 COMMON         0x40000b4c        0x4 c:/espardino/bin/../lib/gcc/arm-elf/4.4.0/../../../../arm-elf/lib/thumb/interwork\libg.a(lib_a-reent.o)
                0x40000b4c                errno
                0x40000b50                . = ALIGN (0x4)
                0x40000b50                . = ALIGN (0x4)
                0x40000b50                __bss_end__ = .
                0x40000b50                PROVIDE (__bss_end, .)

.stack          0x40000c00       0x10 cargar la dirección 0x000071c0
                0x40000c10                . = (. + STACK_SIZE)
 *fill*         0x40000c00       0x10 00
                0x40000c10                PROVIDE (_stack, .)
                0x40000c10                _end = .
                0x40000c10                PROVIDE (end, .)

.stab
 *(.stab)

.stabstr
 *(.stabstr)

.stab.excl
 *(.stab.excl)

.stab.exclstr
 *(.stab.exclstr)

.stab.index
 *(.stab.index)

.stab.indexstr
 *(.stab.indexstr)

.comment        0x00000000      0x29a
 *(.comment)
 .comment       0x00000000       0x12 main.o
 .comment       0x00000012       0x12 servo.o
 .comment       0x00000024       0x12 c:/espardino/bin/../lib/gcc/arm-elf/4.4.0/../../../../arm-elf/lib\libnanoc++.a(nanoc++.o)
 .comment       0x00000036       0x12 c:/espardino/bin/../lib/gcc/arm-elf/4.4.0/../../../../arm-elf/lib/thumb/interwork\libvcom.a(main_serial.o)
 .comment       0x00000048       0x12 c:/espardino/bin/../lib/gcc/arm-elf/4.4.0/../../../../arm-elf/lib/thumb/interwork\libvcom.a(usbhw_lpc.o)
 .comment       0x0000005a       0x12 c:/espardino/bin/../lib/gcc/arm-elf/4.4.0/../../../../arm-elf/lib/thumb/interwork\libvcom.a(usbcontrol.o)
 .comment       0x0000006c       0x12 c:/espardino/bin/../lib/gcc/arm-elf/4.4.0/../../../../arm-elf/lib/thumb/interwork\libvcom.a(usbstdreq.o)
 .comment       0x0000007e       0x12 c:/espardino/bin/../lib/gcc/arm-elf/4.4.0/../../../../arm-elf/lib/thumb/interwork\libvcom.a(usbinit.o)
 .comment       0x00000090       0x12 c:/espardino/bin/../lib/gcc/arm-elf/4.4.0/../../../../arm-elf/lib/thumb/interwork\libvcom.a(serial_fifo.o)
 .comment       0x000000a2       0x12 c:/espardino/bin/../lib/gcc/arm-elf/4.4.0/../../../../arm-elf/lib/thumb/interwork\libvcom.a(armVIC.o)
 .comment       0x000000b4       0x12 c:/espardino/bin/../lib/gcc/arm-elf/4.4.0/../../../../arm-elf/lib\libmicro214x.a(leds.o)
 .comment       0x000000c6       0x12 c:/espardino/bin/../lib/gcc/arm-elf/4.4.0/../../../../arm-elf/lib\libmicro214x.a(pwm.o)
 .comment       0x000000d8       0x12 c:/espardino/bin/../lib/gcc/arm-elf/4.4.0/../../../../arm-elf/lib\libmicro214x.a(sysclocks.o)
 .comment       0x000000ea       0x12 c:/espardino/bin/../lib/gcc/arm-elf/4.4.0/../../../../arm-elf/lib\libmicro214x.a(iolib.o)
 .comment       0x000000fc       0x12 c:/espardino/bin/../lib/gcc/arm-elf/4.4.0/../../../../arm-elf/lib\libmicro214x.a(miniprintf.o)
 .comment       0x0000010e       0x12 c:/espardino/bin/../lib/gcc/arm-elf/4.4.0/../../../../arm-elf/lib/thumb/interwork\libm.a(lib_a-s_floor.o)
 .comment       0x00000120       0x12 c:/espardino/bin/../lib/gcc/arm-elf/4.4.0/../../../../arm-elf/lib/thumb/interwork\libg.a(lib_a-malloc.o)
 .comment       0x00000132       0x12 c:/espardino/bin/../lib/gcc/arm-elf/4.4.0/../../../../arm-elf/lib/thumb/interwork\libg.a(lib_a-mallocr.o)
 .comment       0x00000144       0x12 c:/espardino/bin/../lib/gcc/arm-elf/4.4.0/../../../../arm-elf/lib/thumb/interwork\libg.a(lib_a-memcpy.o)
 .comment       0x00000156       0x12 c:/espardino/bin/../lib/gcc/arm-elf/4.4.0/../../../../arm-elf/lib/thumb/interwork\libg.a(lib_a-mlock.o)
 .comment       0x00000168       0x12 c:/espardino/bin/../lib/gcc/arm-elf/4.4.0/../../../../arm-elf/lib/thumb/interwork\libg.a(lib_a-sbrkr.o)
 .comment       0x0000017a       0x12 c:/espardino/bin/../lib/gcc/arm-elf/4.4.0/../../../../arm-elf/lib/thumb/interwork\libg.a(lib_a-syscalls.o)
 .comment       0x0000018c       0x12 c:/espardino/bin/../lib/gcc/arm-elf/4.4.0/../../../../arm-elf/lib/thumb/interwork\libg.a(lib_a-errno.o)
 .comment       0x0000019e       0x12 c:/espardino/bin/../lib/gcc/arm-elf/4.4.0/../../../../arm-elf/lib/thumb/interwork\libg.a(lib_a-findfp.o)
 .comment       0x000001b0       0x12 c:/espardino/bin/../lib/gcc/arm-elf/4.4.0/../../../../arm-elf/lib/thumb/interwork\libg.a(lib_a-freer.o)
 .comment       0x000001c2       0x12 c:/espardino/bin/../lib/gcc/arm-elf/4.4.0/../../../../arm-elf/lib/thumb/interwork\libg.a(lib_a-fwalk.o)
 .comment       0x000001d4       0x12 c:/espardino/bin/../lib/gcc/arm-elf/4.4.0/../../../../arm-elf/lib/thumb/interwork\libg.a(lib_a-impure.o)
 .comment       0x000001e6       0x12 c:/espardino/bin/../lib/gcc/arm-elf/4.4.0/../../../../arm-elf/lib/thumb/interwork\libg.a(lib_a-memset.o)
 .comment       0x000001f8       0x12 c:/espardino/bin/../lib/gcc/arm-elf/4.4.0/../../../../arm-elf/lib/thumb/interwork\libg.a(lib_a-reent.o)
 .comment       0x0000020a       0x12 c:/espardino/bin/../lib/gcc/arm-elf/4.4.0/../../../../arm-elf/lib/thumb/interwork\libg.a(lib_a-stdio.o)
 .comment       0x0000021c       0x12 c:/espardino/bin/../lib/gcc/arm-elf/4.4.0/../../../../arm-elf/lib/thumb/interwork\libg.a(lib_a-strlen.o)
 .comment       0x0000022e       0x12 c:/espardino/bin/../lib/gcc/arm-elf/4.4.0/../../../../arm-elf/lib/thumb/interwork\libg.a(lib_a-writer.o)
 .comment       0x00000240       0x12 c:/espardino/bin/../lib/gcc/arm-elf/4.4.0/../../../../arm-elf/lib/thumb/interwork\libg.a(lib_a-closer.o)
 .comment       0x00000252       0x12 c:/espardino/bin/../lib/gcc/arm-elf/4.4.0/../../../../arm-elf/lib/thumb/interwork\libg.a(lib_a-fclose.o)
 .comment       0x00000264       0x12 c:/espardino/bin/../lib/gcc/arm-elf/4.4.0/../../../../arm-elf/lib/thumb/interwork\libg.a(lib_a-fflush.o)
 .comment       0x00000276       0x12 c:/espardino/bin/../lib/gcc/arm-elf/4.4.0/../../../../arm-elf/lib/thumb/interwork\libg.a(lib_a-lseekr.o)
 .comment       0x00000288       0x12 c:/espardino/bin/../lib/gcc/arm-elf/4.4.0/../../../../arm-elf/lib/thumb/interwork\libg.a(lib_a-readr.o)

.debug
 *(.debug)

.line
 *(.line)

.debug_srcinfo
 *(.debug_srcinfo)

.debug_sfnames
 *(.debug_sfnames)

.debug_aranges  0x00000000      0x400
 *(.debug_aranges)
 .debug_aranges
                0x00000000       0x20 startup.o
 .debug_aranges
                0x00000020       0x20 main.o
 .debug_aranges
                0x00000040       0x20 servo.o
 .debug_aranges
                0x00000060       0x20 c:/espardino/bin/../lib/gcc/arm-elf/4.4.0/thumb/interwork\libgcc.a(_arm_addsubdf3.o)
 .debug_aranges
                0x00000080       0x20 c:/espardino/bin/../lib/gcc/arm-elf/4.4.0/thumb/interwork\libgcc.a(_arm_muldivdf3.o)
 .debug_aranges
                0x000000a0       0x20 c:/espardino/bin/../lib/gcc/arm-elf/4.4.0/thumb/interwork\libgcc.a(_arm_cmpdf2.o)
 .debug_aranges
                0x000000c0       0x20 c:/espardino/bin/../lib/gcc/arm-elf/4.4.0/thumb/interwork\libgcc.a(_arm_fixdfsi.o)
 .debug_aranges
                0x000000e0       0x20 c:/espardino/bin/../lib/gcc/arm-elf/4.4.0/../../../../arm-elf/lib/thumb/interwork\libm.a(lib_a-s_floor.o)
 .debug_aranges
                0x00000100       0x20 c:/espardino/bin/../lib/gcc/arm-elf/4.4.0/thumb/interwork\libgcc.a(_udivsi3.o)
 .debug_aranges
                0x00000120       0x20 c:/espardino/bin/../lib/gcc/arm-elf/4.4.0/thumb/interwork\libgcc.a(_divsi3.o)
 .debug_aranges
                0x00000140       0x20 c:/espardino/bin/../lib/gcc/arm-elf/4.4.0/thumb/interwork\libgcc.a(_umodsi3.o)
 .debug_aranges
                0x00000160       0x20 c:/espardino/bin/../lib/gcc/arm-elf/4.4.0/thumb/interwork\libgcc.a(_dvmd_tls.o)
 .debug_aranges
                0x00000180       0x20 c:/espardino/bin/../lib/gcc/arm-elf/4.4.0/../../../../arm-elf/lib/thumb/interwork\libg.a(lib_a-malloc.o)
 .debug_aranges
                0x000001a0       0x20 c:/espardino/bin/../lib/gcc/arm-elf/4.4.0/../../../../arm-elf/lib/thumb/interwork\libg.a(lib_a-mallocr.o)
 .debug_aranges
                0x000001c0       0x20 c:/espardino/bin/../lib/gcc/arm-elf/4.4.0/../../../../arm-elf/lib/thumb/interwork\libg.a(lib_a-memcpy.o)
 .debug_aranges
                0x000001e0       0x20 c:/espardino/bin/../lib/gcc/arm-elf/4.4.0/../../../../arm-elf/lib/thumb/interwork\libg.a(lib_a-mlock.o)
 .debug_aranges
                0x00000200       0x20 c:/espardino/bin/../lib/gcc/arm-elf/4.4.0/../../../../arm-elf/lib/thumb/interwork\libg.a(lib_a-sbrkr.o)
 .debug_aranges
                0x00000220       0x20 c:/espardino/bin/../lib/gcc/arm-elf/4.4.0/../../../../arm-elf/lib/thumb/interwork\libg.a(lib_a-syscalls.o)
 .debug_aranges
                0x00000240       0x20 c:/espardino/bin/../lib/gcc/arm-elf/4.4.0/../../../../arm-elf/lib/thumb/interwork\libg.a(lib_a-errno.o)
 .debug_aranges
                0x00000260       0x20 c:/espardino/bin/../lib/gcc/arm-elf/4.4.0/../../../../arm-elf/lib/thumb/interwork\libg.a(lib_a-findfp.o)
 .debug_aranges
                0x00000280       0x20 c:/espardino/bin/../lib/gcc/arm-elf/4.4.0/../../../../arm-elf/lib/thumb/interwork\libg.a(lib_a-freer.o)
 .debug_aranges
                0x000002a0       0x20 c:/espardino/bin/../lib/gcc/arm-elf/4.4.0/../../../../arm-elf/lib/thumb/interwork\libg.a(lib_a-fwalk.o)
 .debug_aranges
                0x000002c0       0x20 c:/espardino/bin/../lib/gcc/arm-elf/4.4.0/../../../../arm-elf/lib/thumb/interwork\libg.a(lib_a-memset.o)
 .debug_aranges
                0x000002e0       0x20 c:/espardino/bin/../lib/gcc/arm-elf/4.4.0/../../../../arm-elf/lib/thumb/interwork\libg.a(lib_a-reent.o)
 .debug_aranges
                0x00000300       0x20 c:/espardino/bin/../lib/gcc/arm-elf/4.4.0/../../../../arm-elf/lib/thumb/interwork\libg.a(lib_a-stdio.o)
 .debug_aranges
                0x00000320       0x20 c:/espardino/bin/../lib/gcc/arm-elf/4.4.0/../../../../arm-elf/lib/thumb/interwork\libg.a(lib_a-strlen.o)
 .debug_aranges
                0x00000340       0x20 c:/espardino/bin/../lib/gcc/arm-elf/4.4.0/../../../../arm-elf/lib/thumb/interwork\libg.a(lib_a-writer.o)
 .debug_aranges
                0x00000360       0x20 c:/espardino/bin/../lib/gcc/arm-elf/4.4.0/../../../../arm-elf/lib/thumb/interwork\libg.a(lib_a-closer.o)
 .debug_aranges
                0x00000380       0x20 c:/espardino/bin/../lib/gcc/arm-elf/4.4.0/../../../../arm-elf/lib/thumb/interwork\libg.a(lib_a-fclose.o)
 .debug_aranges
                0x000003a0       0x20 c:/espardino/bin/../lib/gcc/arm-elf/4.4.0/../../../../arm-elf/lib/thumb/interwork\libg.a(lib_a-fflush.o)
 .debug_aranges
                0x000003c0       0x20 c:/espardino/bin/../lib/gcc/arm-elf/4.4.0/../../../../arm-elf/lib/thumb/interwork\libg.a(lib_a-lseekr.o)
 .debug_aranges
                0x000003e0       0x20 c:/espardino/bin/../lib/gcc/arm-elf/4.4.0/../../../../arm-elf/lib/thumb/interwork\libg.a(lib_a-readr.o)

.debug_pubnames
                0x00000000      0x6ad
 *(.debug_pubnames)
 .debug_pubnames
                0x00000000       0x2b main.o
 .debug_pubnames
                0x0000002b       0x74 servo.o
 .debug_pubnames
                0x0000009f       0x1c c:/espardino/bin/../lib/gcc/arm-elf/4.4.0/../../../../arm-elf/lib/thumb/interwork\libm.a(lib_a-s_floor.o)
 .debug_pubnames
                0x000000bb       0x26 c:/espardino/bin/../lib/gcc/arm-elf/4.4.0/../../../../arm-elf/lib/thumb/interwork\libg.a(lib_a-malloc.o)
 .debug_pubnames
                0x000000e1       0xce c:/espardino/bin/../lib/gcc/arm-elf/4.4.0/../../../../arm-elf/lib/thumb/interwork\libg.a(lib_a-mallocr.o)
 .debug_pubnames
                0x000001af       0x1d c:/espardino/bin/../lib/gcc/arm-elf/4.4.0/../../../../arm-elf/lib/thumb/interwork\libg.a(lib_a-memcpy.o)
 .debug_pubnames
                0x000001cc       0x38 c:/espardino/bin/../lib/gcc/arm-elf/4.4.0/../../../../arm-elf/lib/thumb/interwork\libg.a(lib_a-mlock.o)
 .debug_pubnames
                0x00000204       0x1e c:/espardino/bin/../lib/gcc/arm-elf/4.4.0/../../../../arm-elf/lib/thumb/interwork\libg.a(lib_a-sbrkr.o)
 .debug_pubnames
                0x00000222      0x159 c:/espardino/bin/../lib/gcc/arm-elf/4.4.0/../../../../arm-elf/lib/thumb/interwork\libg.a(lib_a-syscalls.o)
 .debug_pubnames
                0x0000037b       0x1e c:/espardino/bin/../lib/gcc/arm-elf/4.4.0/../../../../arm-elf/lib/thumb/interwork\libg.a(lib_a-errno.o)
 .debug_pubnames
                0x00000399       0xdb c:/espardino/bin/../lib/gcc/arm-elf/4.4.0/../../../../arm-elf/lib/thumb/interwork\libg.a(lib_a-findfp.o)
 .debug_pubnames
                0x00000474       0x31 c:/espardino/bin/../lib/gcc/arm-elf/4.4.0/../../../../arm-elf/lib/thumb/interwork\libg.a(lib_a-freer.o)
 .debug_pubnames
                0x000004a5       0x2e c:/espardino/bin/../lib/gcc/arm-elf/4.4.0/../../../../arm-elf/lib/thumb/interwork\libg.a(lib_a-fwalk.o)
 .debug_pubnames
                0x000004d3       0x39 c:/espardino/bin/../lib/gcc/arm-elf/4.4.0/../../../../arm-elf/lib/thumb/interwork\libg.a(lib_a-impure.o)
 .debug_pubnames
                0x0000050c       0x1d c:/espardino/bin/../lib/gcc/arm-elf/4.4.0/../../../../arm-elf/lib/thumb/interwork\libg.a(lib_a-memset.o)
 .debug_pubnames
                0x00000529       0x52 c:/espardino/bin/../lib/gcc/arm-elf/4.4.0/../../../../arm-elf/lib/thumb/interwork\libg.a(lib_a-reent.o)
 .debug_pubnames
                0x0000057b       0x44 c:/espardino/bin/../lib/gcc/arm-elf/4.4.0/../../../../arm-elf/lib/thumb/interwork\libg.a(lib_a-stdio.o)
 .debug_pubnames
                0x000005bf       0x1d c:/espardino/bin/../lib/gcc/arm-elf/4.4.0/../../../../arm-elf/lib/thumb/interwork\libg.a(lib_a-strlen.o)
 .debug_pubnames
                0x000005dc       0x1f c:/espardino/bin/../lib/gcc/arm-elf/4.4.0/../../../../arm-elf/lib/thumb/interwork\libg.a(lib_a-writer.o)
 .debug_pubnames
                0x000005fb       0x1f c:/espardino/bin/../lib/gcc/arm-elf/4.4.0/../../../../arm-elf/lib/thumb/interwork\libg.a(lib_a-closer.o)
 .debug_pubnames
                0x0000061a       0x2b c:/espardino/bin/../lib/gcc/arm-elf/4.4.0/../../../../arm-elf/lib/thumb/interwork\libg.a(lib_a-fclose.o)
 .debug_pubnames
                0x00000645       0x2b c:/espardino/bin/../lib/gcc/arm-elf/4.4.0/../../../../arm-elf/lib/thumb/interwork\libg.a(lib_a-fflush.o)
 .debug_pubnames
                0x00000670       0x1f c:/espardino/bin/../lib/gcc/arm-elf/4.4.0/../../../../arm-elf/lib/thumb/interwork\libg.a(lib_a-lseekr.o)
 .debug_pubnames
                0x0000068f       0x1e c:/espardino/bin/../lib/gcc/arm-elf/4.4.0/../../../../arm-elf/lib/thumb/interwork\libg.a(lib_a-readr.o)

.debug_info     0x00000000     0xd731
 *(.debug_info .gnu.linkonce.wi.*)
 .debug_info    0x00000000       0x5f startup.o
 .debug_info    0x0000005f      0x262 main.o
 .debug_info    0x000002c1      0x265 servo.o
 .debug_info    0x00000526       0x97 c:/espardino/bin/../lib/gcc/arm-elf/4.4.0/thumb/interwork\libgcc.a(_arm_addsubdf3.o)
 .debug_info    0x000005bd       0x97 c:/espardino/bin/../lib/gcc/arm-elf/4.4.0/thumb/interwork\libgcc.a(_arm_muldivdf3.o)
 .debug_info    0x00000654       0x97 c:/espardino/bin/../lib/gcc/arm-elf/4.4.0/thumb/interwork\libgcc.a(_arm_cmpdf2.o)
 .debug_info    0x000006eb       0x97 c:/espardino/bin/../lib/gcc/arm-elf/4.4.0/thumb/interwork\libgcc.a(_arm_fixdfsi.o)
 .debug_info    0x00000782      0x1b1 c:/espardino/bin/../lib/gcc/arm-elf/4.4.0/../../../../arm-elf/lib/thumb/interwork\libm.a(lib_a-s_floor.o)
 .debug_info    0x00000933       0x98 c:/espardino/bin/../lib/gcc/arm-elf/4.4.0/thumb/interwork\libgcc.a(_udivsi3.o)
 .debug_info    0x000009cb       0x98 c:/espardino/bin/../lib/gcc/arm-elf/4.4.0/thumb/interwork\libgcc.a(_divsi3.o)
 .debug_info    0x00000a63       0x98 c:/espardino/bin/../lib/gcc/arm-elf/4.4.0/thumb/interwork\libgcc.a(_umodsi3.o)
 .debug_info    0x00000afb       0x98 c:/espardino/bin/../lib/gcc/arm-elf/4.4.0/thumb/interwork\libgcc.a(_dvmd_tls.o)
 .debug_info    0x00000b93      0x99a c:/espardino/bin/../lib/gcc/arm-elf/4.4.0/../../../../arm-elf/lib/thumb/interwork\libg.a(lib_a-malloc.o)
 .debug_info    0x0000152d      0xcfb c:/espardino/bin/../lib/gcc/arm-elf/4.4.0/../../../../arm-elf/lib/thumb/interwork\libg.a(lib_a-mallocr.o)
 .debug_info    0x00002228      0x142 c:/espardino/bin/../lib/gcc/arm-elf/4.4.0/../../../../arm-elf/lib/thumb/interwork\libg.a(lib_a-memcpy.o)
 .debug_info    0x0000236a      0x97f c:/espardino/bin/../lib/gcc/arm-elf/4.4.0/../../../../arm-elf/lib/thumb/interwork\libg.a(lib_a-mlock.o)
 .debug_info    0x00002ce9      0x98e c:/espardino/bin/../lib/gcc/arm-elf/4.4.0/../../../../arm-elf/lib/thumb/interwork\libg.a(lib_a-sbrkr.o)
 .debug_info    0x00003677     0x1991 c:/espardino/bin/../lib/gcc/arm-elf/4.4.0/../../../../arm-elf/lib/thumb/interwork\libg.a(lib_a-syscalls.o)
 .debug_info    0x00005008      0x956 c:/espardino/bin/../lib/gcc/arm-elf/4.4.0/../../../../arm-elf/lib/thumb/interwork\libg.a(lib_a-errno.o)
 .debug_info    0x0000595e      0xbc7 c:/espardino/bin/../lib/gcc/arm-elf/4.4.0/../../../../arm-elf/lib/thumb/interwork\libg.a(lib_a-findfp.o)
 .debug_info    0x00006525      0xbf1 c:/espardino/bin/../lib/gcc/arm-elf/4.4.0/../../../../arm-elf/lib/thumb/interwork\libg.a(lib_a-freer.o)
 .debug_info    0x00007116      0xb1d c:/espardino/bin/../lib/gcc/arm-elf/4.4.0/../../../../arm-elf/lib/thumb/interwork\libg.a(lib_a-fwalk.o)
 .debug_info    0x00007c33      0x967 c:/espardino/bin/../lib/gcc/arm-elf/4.4.0/../../../../arm-elf/lib/thumb/interwork\libg.a(lib_a-impure.o)
 .debug_info    0x0000859a      0x115 c:/espardino/bin/../lib/gcc/arm-elf/4.4.0/../../../../arm-elf/lib/thumb/interwork\libg.a(lib_a-memset.o)
 .debug_info    0x000086af      0xa4b c:/espardino/bin/../lib/gcc/arm-elf/4.4.0/../../../../arm-elf/lib/thumb/interwork\libg.a(lib_a-reent.o)
 .debug_info    0x000090fa      0xada c:/espardino/bin/../lib/gcc/arm-elf/4.4.0/../../../../arm-elf/lib/thumb/interwork\libg.a(lib_a-stdio.o)
 .debug_info    0x00009bd4       0xd9 c:/espardino/bin/../lib/gcc/arm-elf/4.4.0/../../../../arm-elf/lib/thumb/interwork\libg.a(lib_a-strlen.o)
 .debug_info    0x00009cad      0x9bd c:/espardino/bin/../lib/gcc/arm-elf/4.4.0/../../../../arm-elf/lib/thumb/interwork\libg.a(lib_a-writer.o)
 .debug_info    0x0000a66a      0x982 c:/espardino/bin/../lib/gcc/arm-elf/4.4.0/../../../../arm-elf/lib/thumb/interwork\libg.a(lib_a-closer.o)
 .debug_info    0x0000afec      0x9bf c:/espardino/bin/../lib/gcc/arm-elf/4.4.0/../../../../arm-elf/lib/thumb/interwork\libg.a(lib_a-fclose.o)
 .debug_info    0x0000b9ab      0xa25 c:/espardino/bin/../lib/gcc/arm-elf/4.4.0/../../../../arm-elf/lib/thumb/interwork\libg.a(lib_a-fflush.o)
 .debug_info    0x0000c3d0      0x9ab c:/espardino/bin/../lib/gcc/arm-elf/4.4.0/../../../../arm-elf/lib/thumb/interwork\libg.a(lib_a-lseekr.o)
 .debug_info    0x0000cd7b      0x9b6 c:/espardino/bin/../lib/gcc/arm-elf/4.4.0/../../../../arm-elf/lib/thumb/interwork\libg.a(lib_a-readr.o)

.debug_abbrev   0x00000000     0x2769
 *(.debug_abbrev)
 .debug_abbrev  0x00000000       0x14 startup.o
 .debug_abbrev  0x00000014      0x17e main.o
 .debug_abbrev  0x00000192      0x164 servo.o
 .debug_abbrev  0x000002f6       0x14 c:/espardino/bin/../lib/gcc/arm-elf/4.4.0/thumb/interwork\libgcc.a(_arm_addsubdf3.o)
 .debug_abbrev  0x0000030a       0x14 c:/espardino/bin/../lib/gcc/arm-elf/4.4.0/thumb/interwork\libgcc.a(_arm_muldivdf3.o)
 .debug_abbrev  0x0000031e       0x14 c:/espardino/bin/../lib/gcc/arm-elf/4.4.0/thumb/interwork\libgcc.a(_arm_cmpdf2.o)
 .debug_abbrev  0x00000332       0x14 c:/espardino/bin/../lib/gcc/arm-elf/4.4.0/thumb/interwork\libgcc.a(_arm_fixdfsi.o)
 .debug_abbrev  0x00000346       0xf1 c:/espardino/bin/../lib/gcc/arm-elf/4.4.0/../../../../arm-elf/lib/thumb/interwork\libm.a(lib_a-s_floor.o)
 .debug_abbrev  0x00000437       0x14 c:/espardino/bin/../lib/gcc/arm-elf/4.4.0/thumb/interwork\libgcc.a(_udivsi3.o)
 .debug_abbrev  0x0000044b       0x14 c:/espardino/bin/../lib/gcc/arm-elf/4.4.0/thumb/interwork\libgcc.a(_divsi3.o)
 .debug_abbrev  0x0000045f       0x14 c:/espardino/bin/../lib/gcc/arm-elf/4.4.0/thumb/interwork\libgcc.a(_umodsi3.o)
 .debug_abbrev  0x00000473       0x14 c:/espardino/bin/../lib/gcc/arm-elf/4.4.0/thumb/interwork\libgcc.a(_dvmd_tls.o)
 .debug_abbrev  0x00000487      0x190 c:/espardino/bin/../lib/gcc/arm-elf/4.4.0/../../../../arm-elf/lib/thumb/interwork\libg.a(lib_a-malloc.o)
 .debug_abbrev  0x00000617      0x22a c:/espardino/bin/../lib/gcc/arm-elf/4.4.0/../../../../arm-elf/lib/thumb/interwork\libg.a(lib_a-mallocr.o)
 .debug_abbrev  0x00000841       0xa2 c:/espardino/bin/../lib/gcc/arm-elf/4.4.0/../../../../arm-elf/lib/thumb/interwork\libg.a(lib_a-memcpy.o)
 .debug_abbrev  0x000008e3      0x173 c:/espardino/bin/../lib/gcc/arm-elf/4.4.0/../../../../arm-elf/lib/thumb/interwork\libg.a(lib_a-mlock.o)
 .debug_abbrev  0x00000a56      0x197 c:/espardino/bin/../lib/gcc/arm-elf/4.4.0/../../../../arm-elf/lib/thumb/interwork\libg.a(lib_a-sbrkr.o)
 .debug_abbrev  0x00000bed      0x3fc c:/espardino/bin/../lib/gcc/arm-elf/4.4.0/../../../../arm-elf/lib/thumb/interwork\libg.a(lib_a-syscalls.o)
 .debug_abbrev  0x00000fe9      0x168 c:/espardino/bin/../lib/gcc/arm-elf/4.4.0/../../../../arm-elf/lib/thumb/interwork\libg.a(lib_a-errno.o)
 .debug_abbrev  0x00001151      0x24d c:/espardino/bin/../lib/gcc/arm-elf/4.4.0/../../../../arm-elf/lib/thumb/interwork\libg.a(lib_a-findfp.o)
 .debug_abbrev  0x0000139e      0x1e2 c:/espardino/bin/../lib/gcc/arm-elf/4.4.0/../../../../arm-elf/lib/thumb/interwork\libg.a(lib_a-freer.o)
 .debug_abbrev  0x00001580      0x1ee c:/espardino/bin/../lib/gcc/arm-elf/4.4.0/../../../../arm-elf/lib/thumb/interwork\libg.a(lib_a-fwalk.o)
 .debug_abbrev  0x0000176e      0x160 c:/espardino/bin/../lib/gcc/arm-elf/4.4.0/../../../../arm-elf/lib/thumb/interwork\libg.a(lib_a-impure.o)
 .debug_abbrev  0x000018ce       0xa3 c:/espardino/bin/../lib/gcc/arm-elf/4.4.0/../../../../arm-elf/lib/thumb/interwork\libg.a(lib_a-memset.o)
 .debug_abbrev  0x00001971      0x1fa c:/espardino/bin/../lib/gcc/arm-elf/4.4.0/../../../../arm-elf/lib/thumb/interwork\libg.a(lib_a-reent.o)
 .debug_abbrev  0x00001b6b      0x1b9 c:/espardino/bin/../lib/gcc/arm-elf/4.4.0/../../../../arm-elf/lib/thumb/interwork\libg.a(lib_a-stdio.o)
 .debug_abbrev  0x00001d24       0x94 c:/espardino/bin/../lib/gcc/arm-elf/4.4.0/../../../../arm-elf/lib/thumb/interwork\libg.a(lib_a-strlen.o)
 .debug_abbrev  0x00001db8      0x18d c:/espardino/bin/../lib/gcc/arm-elf/4.4.0/../../../../arm-elf/lib/thumb/interwork\libg.a(lib_a-writer.o)
 .debug_abbrev  0x00001f45      0x188 c:/espardino/bin/../lib/gcc/arm-elf/4.4.0/../../../../arm-elf/lib/thumb/interwork\libg.a(lib_a-closer.o)
 .debug_abbrev  0x000020cd      0x1b0 c:/espardino/bin/../lib/gcc/arm-elf/4.4.0/../../../../arm-elf/lib/thumb/interwork\libg.a(lib_a-fclose.o)
 .debug_abbrev  0x0000227d      0x1cd c:/espardino/bin/../lib/gcc/arm-elf/4.4.0/../../../../arm-elf/lib/thumb/interwork\libg.a(lib_a-fflush.o)
 .debug_abbrev  0x0000244a      0x197 c:/espardino/bin/../lib/gcc/arm-elf/4.4.0/../../../../arm-elf/lib/thumb/interwork\libg.a(lib_a-lseekr.o)
 .debug_abbrev  0x000025e1      0x188 c:/espardino/bin/../lib/gcc/arm-elf/4.4.0/../../../../arm-elf/lib/thumb/interwork\libg.a(lib_a-readr.o)

.debug_line     0x00000000     0x26f7
 *(.debug_line)
 .debug_line    0x00000000       0x95 startup.o
 .debug_line    0x00000095       0xc4 main.o
 .debug_line    0x00000159       0xd2 servo.o
 .debug_line    0x0000022b      0x178 c:/espardino/bin/../lib/gcc/arm-elf/4.4.0/thumb/interwork\libgcc.a(_arm_addsubdf3.o)
 .debug_line    0x000003a3      0x18d c:/espardino/bin/../lib/gcc/arm-elf/4.4.0/thumb/interwork\libgcc.a(_arm_muldivdf3.o)
 .debug_line    0x00000530       0xba c:/espardino/bin/../lib/gcc/arm-elf/4.4.0/thumb/interwork\libgcc.a(_arm_cmpdf2.o)
 .debug_line    0x000005ea       0x85 c:/espardino/bin/../lib/gcc/arm-elf/4.4.0/thumb/interwork\libgcc.a(_arm_fixdfsi.o)
 .debug_line    0x0000066f      0x168 c:/espardino/bin/../lib/gcc/arm-elf/4.4.0/../../../../arm-elf/lib/thumb/interwork\libm.a(lib_a-s_floor.o)
 .debug_line    0x000007d7       0x86 c:/espardino/bin/../lib/gcc/arm-elf/4.4.0/thumb/interwork\libgcc.a(_udivsi3.o)
 .debug_line    0x0000085d       0x92 c:/espardino/bin/../lib/gcc/arm-elf/4.4.0/thumb/interwork\libgcc.a(_divsi3.o)
 .debug_line    0x000008ef       0x7e c:/espardino/bin/../lib/gcc/arm-elf/4.4.0/thumb/interwork\libgcc.a(_umodsi3.o)
 .debug_line    0x0000096d       0x70 c:/espardino/bin/../lib/gcc/arm-elf/4.4.0/thumb/interwork\libgcc.a(_dvmd_tls.o)
 .debug_line    0x000009dd      0x13a c:/espardino/bin/../lib/gcc/arm-elf/4.4.0/../../../../arm-elf/lib/thumb/interwork\libg.a(lib_a-malloc.o)
 .debug_line    0x00000b17      0x258 c:/espardino/bin/../lib/gcc/arm-elf/4.4.0/../../../../arm-elf/lib/thumb/interwork\libg.a(lib_a-mallocr.o)
 .debug_line    0x00000d6f      0x126 c:/espardino/bin/../lib/gcc/arm-elf/4.4.0/../../../../arm-elf/lib/thumb/interwork\libg.a(lib_a-memcpy.o)
 .debug_line    0x00000e95       0xf9 c:/espardino/bin/../lib/gcc/arm-elf/4.4.0/../../../../arm-elf/lib/thumb/interwork\libg.a(lib_a-mlock.o)
 .debug_line    0x00000f8e      0x132 c:/espardino/bin/../lib/gcc/arm-elf/4.4.0/../../../../arm-elf/lib/thumb/interwork\libg.a(lib_a-sbrkr.o)
 .debug_line    0x000010c0      0x38c c:/espardino/bin/../lib/gcc/arm-elf/4.4.0/../../../../arm-elf/lib/thumb/interwork\libg.a(lib_a-syscalls.o)
 .debug_line    0x0000144c      0x102 c:/espardino/bin/../lib/gcc/arm-elf/4.4.0/../../../../arm-elf/lib/thumb/interwork\libg.a(lib_a-errno.o)
 .debug_line    0x0000154e      0x1b8 c:/espardino/bin/../lib/gcc/arm-elf/4.4.0/../../../../arm-elf/lib/thumb/interwork\libg.a(lib_a-findfp.o)
 .debug_line    0x00001706      0x16c c:/espardino/bin/../lib/gcc/arm-elf/4.4.0/../../../../arm-elf/lib/thumb/interwork\libg.a(lib_a-freer.o)
 .debug_line    0x00001872      0x153 c:/espardino/bin/../lib/gcc/arm-elf/4.4.0/../../../../arm-elf/lib/thumb/interwork\libg.a(lib_a-fwalk.o)
 .debug_line    0x000019c5       0xe7 c:/espardino/bin/../lib/gcc/arm-elf/4.4.0/../../../../arm-elf/lib/thumb/interwork\libg.a(lib_a-impure.o)
 .debug_line    0x00001aac      0x121 c:/espardino/bin/../lib/gcc/arm-elf/4.4.0/../../../../arm-elf/lib/thumb/interwork\libg.a(lib_a-memset.o)
 .debug_line    0x00001bcd      0x132 c:/espardino/bin/../lib/gcc/arm-elf/4.4.0/../../../../arm-elf/lib/thumb/interwork\libg.a(lib_a-reent.o)
 .debug_line    0x00001cff      0x154 c:/espardino/bin/../lib/gcc/arm-elf/4.4.0/../../../../arm-elf/lib/thumb/interwork\libg.a(lib_a-stdio.o)
 .debug_line    0x00001e53       0xf5 c:/espardino/bin/../lib/gcc/arm-elf/4.4.0/../../../../arm-elf/lib/thumb/interwork\libg.a(lib_a-strlen.o)
 .debug_line    0x00001f48      0x133 c:/espardino/bin/../lib/gcc/arm-elf/4.4.0/../../../../arm-elf/lib/thumb/interwork\libg.a(lib_a-writer.o)
 .debug_line    0x0000207b      0x133 c:/espardino/bin/../lib/gcc/arm-elf/4.4.0/../../../../arm-elf/lib/thumb/interwork\libg.a(lib_a-closer.o)
 .debug_line    0x000021ae      0x155 c:/espardino/bin/../lib/gcc/arm-elf/4.4.0/../../../../arm-elf/lib/thumb/interwork\libg.a(lib_a-fclose.o)
 .debug_line    0x00002303      0x18f c:/espardino/bin/../lib/gcc/arm-elf/4.4.0/../../../../arm-elf/lib/thumb/interwork\libg.a(lib_a-fflush.o)
 .debug_line    0x00002492      0x133 c:/espardino/bin/../lib/gcc/arm-elf/4.4.0/../../../../arm-elf/lib/thumb/interwork\libg.a(lib_a-lseekr.o)
 .debug_line    0x000025c5      0x132 c:/espardino/bin/../lib/gcc/arm-elf/4.4.0/../../../../arm-elf/lib/thumb/interwork\libg.a(lib_a-readr.o)

.debug_frame    0x00000000      0x9e4
 *(.debug_frame)
 .debug_frame   0x00000000       0x40 c:/espardino/bin/../lib/gcc/arm-elf/4.4.0/../../../../arm-elf/lib/thumb/interwork\libm.a(lib_a-s_floor.o)
 .debug_frame   0x00000040       0x28 c:/espardino/bin/../lib/gcc/arm-elf/4.4.0/thumb/interwork\libgcc.a(_udivsi3.o)
 .debug_frame   0x00000068       0x28 c:/espardino/bin/../lib/gcc/arm-elf/4.4.0/thumb/interwork\libgcc.a(_divsi3.o)
 .debug_frame   0x00000090       0x28 c:/espardino/bin/../lib/gcc/arm-elf/4.4.0/thumb/interwork\libgcc.a(_umodsi3.o)
 .debug_frame   0x000000b8       0x40 c:/espardino/bin/../lib/gcc/arm-elf/4.4.0/../../../../arm-elf/lib/thumb/interwork\libg.a(lib_a-malloc.o)
 .debug_frame   0x000000f8       0x44 c:/espardino/bin/../lib/gcc/arm-elf/4.4.0/../../../../arm-elf/lib/thumb/interwork\libg.a(lib_a-mallocr.o)
 .debug_frame   0x0000013c       0x34 c:/espardino/bin/../lib/gcc/arm-elf/4.4.0/../../../../arm-elf/lib/thumb/interwork\libg.a(lib_a-memcpy.o)
 .debug_frame   0x00000170       0x30 c:/espardino/bin/../lib/gcc/arm-elf/4.4.0/../../../../arm-elf/lib/thumb/interwork\libg.a(lib_a-mlock.o)
 .debug_frame   0x000001a0       0x2c c:/espardino/bin/../lib/gcc/arm-elf/4.4.0/../../../../arm-elf/lib/thumb/interwork\libg.a(lib_a-sbrkr.o)
 .debug_frame   0x000001cc      0x358 c:/espardino/bin/../lib/gcc/arm-elf/4.4.0/../../../../arm-elf/lib/thumb/interwork\libg.a(lib_a-syscalls.o)
 .debug_frame   0x00000524       0x20 c:/espardino/bin/../lib/gcc/arm-elf/4.4.0/../../../../arm-elf/lib/thumb/interwork\libg.a(lib_a-errno.o)
 .debug_frame   0x00000544      0x148 c:/espardino/bin/../lib/gcc/arm-elf/4.4.0/../../../../arm-elf/lib/thumb/interwork\libg.a(lib_a-findfp.o)
 .debug_frame   0x0000068c       0x60 c:/espardino/bin/../lib/gcc/arm-elf/4.4.0/../../../../arm-elf/lib/thumb/interwork\libg.a(lib_a-freer.o)
 .debug_frame   0x000006ec       0x64 c:/espardino/bin/../lib/gcc/arm-elf/4.4.0/../../../../arm-elf/lib/thumb/interwork\libg.a(lib_a-fwalk.o)
 .debug_frame   0x00000750       0x30 c:/espardino/bin/../lib/gcc/arm-elf/4.4.0/../../../../arm-elf/lib/thumb/interwork\libg.a(lib_a-memset.o)
 .debug_frame   0x00000780       0x70 c:/espardino/bin/../lib/gcc/arm-elf/4.4.0/../../../../arm-elf/lib/thumb/interwork\libg.a(lib_a-reent.o)
 .debug_frame   0x000007f0       0x84 c:/espardino/bin/../lib/gcc/arm-elf/4.4.0/../../../../arm-elf/lib/thumb/interwork\libg.a(lib_a-stdio.o)
 .debug_frame   0x00000874       0x2c c:/espardino/bin/../lib/gcc/arm-elf/4.4.0/../../../../arm-elf/lib/thumb/interwork\libg.a(lib_a-strlen.o)
 .debug_frame   0x000008a0       0x2c c:/espardino/bin/../lib/gcc/arm-elf/4.4.0/../../../../arm-elf/lib/thumb/interwork\libg.a(lib_a-writer.o)
 .debug_frame   0x000008cc       0x2c c:/espardino/bin/../lib/gcc/arm-elf/4.4.0/../../../../arm-elf/lib/thumb/interwork\libg.a(lib_a-closer.o)
 .debug_frame   0x000008f8       0x48 c:/espardino/bin/../lib/gcc/arm-elf/4.4.0/../../../../arm-elf/lib/thumb/interwork\libg.a(lib_a-fclose.o)
 .debug_frame   0x00000940       0x4c c:/espardino/bin/../lib/gcc/arm-elf/4.4.0/../../../../arm-elf/lib/thumb/interwork\libg.a(lib_a-fflush.o)
 .debug_frame   0x0000098c       0x2c c:/espardino/bin/../lib/gcc/arm-elf/4.4.0/../../../../arm-elf/lib/thumb/interwork\libg.a(lib_a-lseekr.o)
 .debug_frame   0x000009b8       0x2c c:/espardino/bin/../lib/gcc/arm-elf/4.4.0/../../../../arm-elf/lib/thumb/interwork\libg.a(lib_a-readr.o)

.debug_str      0x00000000     0x13b5
 *(.debug_str)
 .debug_str     0x00000000      0x195 main.o
                                0x1e1 (tamaño antes de la relajación)
 .debug_str     0x00000195       0x12 servo.o
                                0x175 (tamaño antes de la relajación)
 .debug_str     0x000001a7       0xe2 c:/espardino/bin/../lib/gcc/arm-elf/4.4.0/../../../../arm-elf/lib/thumb/interwork\libm.a(lib_a-s_floor.o)
                                0x178 (tamaño antes de la relajación)
 .debug_str     0x00000289      0x3ee c:/espardino/bin/../lib/gcc/arm-elf/4.4.0/../../../../arm-elf/lib/thumb/interwork\libg.a(lib_a-malloc.o)
                                0x4ef (tamaño antes de la relajación)
 .debug_str     0x00000677      0x20c c:/espardino/bin/../lib/gcc/arm-elf/4.4.0/../../../../arm-elf/lib/thumb/interwork\libg.a(lib_a-mallocr.o)
                                0x6c4 (tamaño antes de la relajación)
 .debug_str     0x00000883       0xae c:/espardino/bin/../lib/gcc/arm-elf/4.4.0/../../../../arm-elf/lib/thumb/interwork\libg.a(lib_a-memcpy.o)
                                0x14a (tamaño antes de la relajación)
 .debug_str     0x00000931       0x71 c:/espardino/bin/../lib/gcc/arm-elf/4.4.0/../../../../arm-elf/lib/thumb/interwork\libg.a(lib_a-mlock.o)
                                0x4f6 (tamaño antes de la relajación)
 .debug_str     0x000009a2       0x94 c:/espardino/bin/../lib/gcc/arm-elf/4.4.0/../../../../arm-elf/lib/thumb/interwork\libg.a(lib_a-sbrkr.o)
                                0x4de (tamaño antes de la relajación)
 .debug_str     0x00000a36      0x369 c:/espardino/bin/../lib/gcc/arm-elf/4.4.0/../../../../arm-elf/lib/thumb/interwork\libg.a(lib_a-syscalls.o)
                                0x813 (tamaño antes de la relajación)
 .debug_str     0x00000d9f       0x85 c:/espardino/bin/../lib/gcc/arm-elf/4.4.0/../../../../arm-elf/lib/thumb/interwork\libg.a(lib_a-errno.o)
                                0x4d5 (tamaño antes de la relajación)
 .debug_str     0x00000e24      0x159 c:/espardino/bin/../lib/gcc/arm-elf/4.4.0/../../../../arm-elf/lib/thumb/interwork\libg.a(lib_a-findfp.o)
                                0x5c7 (tamaño antes de la relajación)
 .debug_str     0x00000f7d       0x3c c:/espardino/bin/../lib/gcc/arm-elf/4.4.0/../../../../arm-elf/lib/thumb/interwork\libg.a(lib_a-freer.o)
                                0x616 (tamaño antes de la relajación)
 .debug_str     0x00000fb9       0x62 c:/espardino/bin/../lib/gcc/arm-elf/4.4.0/../../../../arm-elf/lib/thumb/interwork\libg.a(lib_a-fwalk.o)
                                0x508 (tamaño antes de la relajación)
 .debug_str     0x0000101b       0x4a c:/espardino/bin/../lib/gcc/arm-elf/4.4.0/../../../../arm-elf/lib/thumb/interwork\libg.a(lib_a-impure.o)
                                0x4ed (tamaño antes de la relajación)
 .debug_str     0x00001065       0x5a c:/espardino/bin/../lib/gcc/arm-elf/4.4.0/../../../../arm-elf/lib/thumb/interwork\libg.a(lib_a-memset.o)
                                0x137 (tamaño antes de la relajación)
 .debug_str     0x000010bf       0x77 c:/espardino/bin/../lib/gcc/arm-elf/4.4.0/../../../../arm-elf/lib/thumb/interwork\libg.a(lib_a-reent.o)
                                0x512 (tamaño antes de la relajación)
 .debug_str     0x00001136       0x66 c:/espardino/bin/../lib/gcc/arm-elf/4.4.0/../../../../arm-elf/lib/thumb/interwork\libg.a(lib_a-stdio.o)
                                0x504 (tamaño antes de la relajación)
 .debug_str     0x0000119c       0x4c c:/espardino/bin/../lib/gcc/arm-elf/4.4.0/../../../../arm-elf/lib/thumb/interwork\libg.a(lib_a-strlen.o)
                                0x136 (tamaño antes de la relajación)
 .debug_str     0x000011e8       0x50 c:/espardino/bin/../lib/gcc/arm-elf/4.4.0/../../../../arm-elf/lib/thumb/interwork\libg.a(lib_a-writer.o)
                                0x4e1 (tamaño antes de la relajación)
 .debug_str     0x00001238       0x47 c:/espardino/bin/../lib/gcc/arm-elf/4.4.0/../../../../arm-elf/lib/thumb/interwork\libg.a(lib_a-closer.o)
                                0x4d1 (tamaño antes de la relajación)
 .debug_str     0x0000127f       0x54 c:/espardino/bin/../lib/gcc/arm-elf/4.4.0/../../../../arm-elf/lib/thumb/interwork\libg.a(lib_a-fclose.o)
                                0x4e9 (tamaño antes de la relajación)
 .debug_str     0x000012d3       0x56 c:/espardino/bin/../lib/gcc/arm-elf/4.4.0/../../../../arm-elf/lib/thumb/interwork\libg.a(lib_a-fflush.o)
                                0x505 (tamaño antes de la relajación)
 .debug_str     0x00001329       0x47 c:/espardino/bin/../lib/gcc/arm-elf/4.4.0/../../../../arm-elf/lib/thumb/interwork\libg.a(lib_a-lseekr.o)
                                0x4df (tamaño antes de la relajación)
 .debug_str     0x00001370       0x45 c:/espardino/bin/../lib/gcc/arm-elf/4.4.0/../../../../arm-elf/lib/thumb/interwork\libg.a(lib_a-readr.o)
                                0x4df (tamaño antes de la relajación)

.debug_loc      0x00000000     0x2de4
 *(.debug_loc)
 .debug_loc     0x00000000       0x7a main.o
 .debug_loc     0x0000007a      0x115 servo.o
 .debug_loc     0x0000018f      0x242 c:/espardino/bin/../lib/gcc/arm-elf/4.4.0/../../../../arm-elf/lib/thumb/interwork\libm.a(lib_a-s_floor.o)
 .debug_loc     0x000003d1       0x7a c:/espardino/bin/../lib/gcc/arm-elf/4.4.0/../../../../arm-elf/lib/thumb/interwork\libg.a(lib_a-malloc.o)
 .debug_loc     0x0000044b      0x7ee c:/espardino/bin/../lib/gcc/arm-elf/4.4.0/../../../../arm-elf/lib/thumb/interwork\libg.a(lib_a-mallocr.o)
 .debug_loc     0x00000c39      0x13b c:/espardino/bin/../lib/gcc/arm-elf/4.4.0/../../../../arm-elf/lib/thumb/interwork\libg.a(lib_a-memcpy.o)
 .debug_loc     0x00000d74       0x79 c:/espardino/bin/../lib/gcc/arm-elf/4.4.0/../../../../arm-elf/lib/thumb/interwork\libg.a(lib_a-sbrkr.o)
 .debug_loc     0x00000ded      0xcc4 c:/espardino/bin/../lib/gcc/arm-elf/4.4.0/../../../../arm-elf/lib/thumb/interwork\libg.a(lib_a-syscalls.o)
 .debug_loc     0x00001ab1      0x2f9 c:/espardino/bin/../lib/gcc/arm-elf/4.4.0/../../../../arm-elf/lib/thumb/interwork\libg.a(lib_a-findfp.o)
 .debug_loc     0x00001daa      0x3ab c:/espardino/bin/../lib/gcc/arm-elf/4.4.0/../../../../arm-elf/lib/thumb/interwork\libg.a(lib_a-freer.o)
 .debug_loc     0x00002155      0x1b3 c:/espardino/bin/../lib/gcc/arm-elf/4.4.0/../../../../arm-elf/lib/thumb/interwork\libg.a(lib_a-fwalk.o)
 .debug_loc     0x00002308       0xfc c:/espardino/bin/../lib/gcc/arm-elf/4.4.0/../../../../arm-elf/lib/thumb/interwork\libg.a(lib_a-memset.o)
 .debug_loc     0x00002404      0x1fd c:/espardino/bin/../lib/gcc/arm-elf/4.4.0/../../../../arm-elf/lib/thumb/interwork\libg.a(lib_a-reent.o)
 .debug_loc     0x00002601      0x21a c:/espardino/bin/../lib/gcc/arm-elf/4.4.0/../../../../arm-elf/lib/thumb/interwork\libg.a(lib_a-stdio.o)
 .debug_loc     0x0000281b       0x92 c:/espardino/bin/../lib/gcc/arm-elf/4.4.0/../../../../arm-elf/lib/thumb/interwork\libg.a(lib_a-strlen.o)
 .debug_loc     0x000028ad       0x9f c:/espardino/bin/../lib/gcc/arm-elf/4.4.0/../../../../arm-elf/lib/thumb/interwork\libg.a(lib_a-writer.o)
 .debug_loc     0x0000294c       0x79 c:/espardino/bin/../lib/gcc/arm-elf/4.4.0/../../../../arm-elf/lib/thumb/interwork\libg.a(lib_a-closer.o)
 .debug_loc     0x000029c5       0xe2 c:/espardino/bin/../lib/gcc/arm-elf/4.4.0/../../../../arm-elf/lib/thumb/interwork\libg.a(lib_a-fclose.o)
 .debug_loc     0x00002aa7      0x1ff c:/espardino/bin/../lib/gcc/arm-elf/4.4.0/../../../../arm-elf/lib/thumb/interwork\libg.a(lib_a-fflush.o)
 .debug_loc     0x00002ca6       0x9f c:/espardino/bin/../lib/gcc/arm-elf/4.4.0/../../../../arm-elf/lib/thumb/interwork\libg.a(lib_a-lseekr.o)
 .debug_loc     0x00002d45       0x9f c:/espardino/bin/../lib/gcc/arm-elf/4.4.0/../../../../arm-elf/lib/thumb/interwork\libg.a(lib_a-readr.o)

.debug_macinfo
 *(.debug_macinfo)

.debug_weaknames
 *(.debug_weaknames)

.debug_funcnames
 *(.debug_funcnames)

.debug_typenames
 *(.debug_typenames)

.debug_varnames
 *(.debug_varnames)

/DISCARD/
 *(.eh_frame)
OUTPUT(main.elf elf32-littlearm)

.ARM.attributes
                0x00000000       0x10
 .ARM.attributes
                0x00000000       0x10 startup.o
 .ARM.attributes
                0x00000010       0x10 main.o
 .ARM.attributes
                0x00000020       0x10 servo.o
 .ARM.attributes
                0x00000030       0x10 c:/espardino/bin/../lib/gcc/arm-elf/4.4.0/../../../../arm-elf/lib\libnanoc++.a(nanoc++.o)
 .ARM.attributes
                0x00000040       0x10 c:/espardino/bin/../lib/gcc/arm-elf/4.4.0/../../../../arm-elf/lib/thumb/interwork\libvcom.a(main_serial.o)
 .ARM.attributes
                0x00000050       0x10 c:/espardino/bin/../lib/gcc/arm-elf/4.4.0/../../../../arm-elf/lib/thumb/interwork\libvcom.a(usbhw_lpc.o)
 .ARM.attributes
                0x00000060       0x10 c:/espardino/bin/../lib/gcc/arm-elf/4.4.0/../../../../arm-elf/lib/thumb/interwork\libvcom.a(usbcontrol.o)
 .ARM.attributes
                0x00000070       0x10 c:/espardino/bin/../lib/gcc/arm-elf/4.4.0/../../../../arm-elf/lib/thumb/interwork\libvcom.a(usbstdreq.o)
 .ARM.attributes
                0x00000080       0x10 c:/espardino/bin/../lib/gcc/arm-elf/4.4.0/../../../../arm-elf/lib/thumb/interwork\libvcom.a(usbinit.o)
 .ARM.attributes
                0x00000090       0x10 c:/espardino/bin/../lib/gcc/arm-elf/4.4.0/../../../../arm-elf/lib/thumb/interwork\libvcom.a(serial_fifo.o)
 .ARM.attributes
                0x000000a0       0x10 c:/espardino/bin/../lib/gcc/arm-elf/4.4.0/../../../../arm-elf/lib/thumb/interwork\libvcom.a(armVIC.o)
 .ARM.attributes
                0x000000b0       0x10 c:/espardino/bin/../lib/gcc/arm-elf/4.4.0/../../../../arm-elf/lib\libmicro214x.a(leds.o)
 .ARM.attributes
                0x000000c0       0x10 c:/espardino/bin/../lib/gcc/arm-elf/4.4.0/../../../../arm-elf/lib\libmicro214x.a(pwm.o)
 .ARM.attributes
                0x000000d0       0x10 c:/espardino/bin/../lib/gcc/arm-elf/4.4.0/../../../../arm-elf/lib\libmicro214x.a(sysclocks.o)
 .ARM.attributes
                0x000000e0       0x10 c:/espardino/bin/../lib/gcc/arm-elf/4.4.0/../../../../arm-elf/lib\libmicro214x.a(iolib.o)
 .ARM.attributes
                0x000000f0       0x10 c:/espardino/bin/../lib/gcc/arm-elf/4.4.0/../../../../arm-elf/lib\libmicro214x.a(miniprintf.o)

.debug_ranges   0x00000000      0x350
 .debug_ranges  0x00000000       0x20 main.o
 .debug_ranges  0x00000020       0x20 servo.o
 .debug_ranges  0x00000040       0x18 c:/espardino/bin/../lib/gcc/arm-elf/4.4.0/../../../../arm-elf/lib/thumb/interwork\libm.a(lib_a-s_floor.o)
 .debug_ranges  0x00000058       0x60 c:/espardino/bin/../lib/gcc/arm-elf/4.4.0/../../../../arm-elf/lib/thumb/interwork\libg.a(lib_a-mallocr.o)
 .debug_ranges  0x000000b8      0x220 c:/espardino/bin/../lib/gcc/arm-elf/4.4.0/../../../../arm-elf/lib/thumb/interwork\libg.a(lib_a-syscalls.o)
 .debug_ranges  0x000002d8       0x60 c:/espardino/bin/../lib/gcc/arm-elf/4.4.0/../../../../arm-elf/lib/thumb/interwork\libg.a(lib_a-fwalk.o)
 .debug_ranges  0x00000338       0x18 c:/espardino/bin/../lib/gcc/arm-elf/4.4.0/../../../../arm-elf/lib/thumb/interwork\libg.a(lib_a-fflush.o)

Tabla de Referencias Cruzadas

Símbolo                                           Fichero
IO_get_mode                                       c:/espardino/bin/../lib/gcc/arm-elf/4.4.0/../../../../arm-elf/lib\libmicro214x.a(iolib.o)
IO_init                                           c:/espardino/bin/../lib/gcc/arm-elf/4.4.0/../../../../arm-elf/lib\libmicro214x.a(iolib.o)
IO_input                                          c:/espardino/bin/../lib/gcc/arm-elf/4.4.0/../../../../arm-elf/lib\libmicro214x.a(iolib.o)
IO_output                                         c:/espardino/bin/../lib/gcc/arm-elf/4.4.0/../../../../arm-elf/lib\libmicro214x.a(iolib.o)
IO_output_high                                    c:/espardino/bin/../lib/gcc/arm-elf/4.4.0/../../../../arm-elf/lib\libmicro214x.a(iolib.o)
                                                  c:/espardino/bin/../lib/gcc/arm-elf/4.4.0/../../../../arm-elf/lib\libmicro214x.a(leds.o)
IO_output_low                                     c:/espardino/bin/../lib/gcc/arm-elf/4.4.0/../../../../arm-elf/lib\libmicro214x.a(iolib.o)
                                                  c:/espardino/bin/../lib/gcc/arm-elf/4.4.0/../../../../arm-elf/lib\libmicro214x.a(leds.o)
LEDS_init                                         c:/espardino/bin/../lib/gcc/arm-elf/4.4.0/../../../../arm-elf/lib\libmicro214x.a(leds.o)
                                                  main.o
LEDS_off                                          c:/espardino/bin/../lib/gcc/arm-elf/4.4.0/../../../../arm-elf/lib\libmicro214x.a(leds.o)
LEDS_on                                           c:/espardino/bin/../lib/gcc/arm-elf/4.4.0/../../../../arm-elf/lib\libmicro214x.a(leds.o)
                                                  main.o
MyServo::MyServo()                                servo.o
                                                  main.o
MyServo::MyServo()                                servo.o
MyServo::attach(int)                              servo.o
                                                  main.o
MyServo::move(double)                             servo.o
                                                  main.o
MyServo::stop()                                   servo.o
                                                  main.o
PWM_dutycycle                                     c:/espardino/bin/../lib/gcc/arm-elf/4.4.0/../../../../arm-elf/lib\libmicro214x.a(pwm.o)
PWM_frequency                                     c:/espardino/bin/../lib/gcc/arm-elf/4.4.0/../../../../arm-elf/lib\libmicro214x.a(pwm.o)
                                                  servo.o
PWM_init                                          c:/espardino/bin/../lib/gcc/arm-elf/4.4.0/../../../../arm-elf/lib\libmicro214x.a(pwm.o)
                                                  servo.o
PWM_length                                        c:/espardino/bin/../lib/gcc/arm-elf/4.4.0/../../../../arm-elf/lib\libmicro214x.a(pwm.o)
PWM_pc_precalc_factor                             c:/espardino/bin/../lib/gcc/arm-elf/4.4.0/../../../../arm-elf/lib\libmicro214x.a(pwm.o)
PWM_pulsewidth_us                                 c:/espardino/bin/../lib/gcc/arm-elf/4.4.0/../../../../arm-elf/lib\libmicro214x.a(pwm.o)
                                                  servo.o
PWM_us_precalc_factor                             c:/espardino/bin/../lib/gcc/arm-elf/4.4.0/../../../../arm-elf/lib\libmicro214x.a(pwm.o)
SYSCLK_get_speed                                  c:/espardino/bin/../lib/gcc/arm-elf/4.4.0/../../../../arm-elf/lib\libmicro214x.a(sysclocks.o)
SYSCLK_set_speed                                  c:/espardino/bin/../lib/gcc/arm-elf/4.4.0/../../../../arm-elf/lib\libmicro214x.a(sysclocks.o)
SYSCLK_speed_Hz                                   c:/espardino/bin/../lib/gcc/arm-elf/4.4.0/../../../../arm-elf/lib\libmicro214x.a(sysclocks.o)
USBGetDescriptor                                  c:/espardino/bin/../lib/gcc/arm-elf/4.4.0/../../../../arm-elf/lib/thumb/interwork\libvcom.a(usbstdreq.o)
USBHandleControlTransfer                          c:/espardino/bin/../lib/gcc/arm-elf/4.4.0/../../../../arm-elf/lib/thumb/interwork\libvcom.a(usbcontrol.o)
                                                  c:/espardino/bin/../lib/gcc/arm-elf/4.4.0/../../../../arm-elf/lib/thumb/interwork\libvcom.a(usbinit.o)
USBHandleStandardRequest                          c:/espardino/bin/../lib/gcc/arm-elf/4.4.0/../../../../arm-elf/lib/thumb/interwork\libvcom.a(usbstdreq.o)
                                                  c:/espardino/bin/../lib/gcc/arm-elf/4.4.0/../../../../arm-elf/lib/thumb/interwork\libvcom.a(usbinit.o)
USBHwConfigDevice                                 c:/espardino/bin/../lib/gcc/arm-elf/4.4.0/../../../../arm-elf/lib/thumb/interwork\libvcom.a(usbhw_lpc.o)
                                                  c:/espardino/bin/../lib/gcc/arm-elf/4.4.0/../../../../arm-elf/lib/thumb/interwork\libvcom.a(usbstdreq.o)
USBHwConnect                                      c:/espardino/bin/../lib/gcc/arm-elf/4.4.0/../../../../arm-elf/lib/thumb/interwork\libvcom.a(usbhw_lpc.o)
                                                  c:/espardino/bin/../lib/gcc/arm-elf/4.4.0/../../../../arm-elf/lib/thumb/interwork\libvcom.a(main_serial.o)
USBHwEPConfig                                     c:/espardino/bin/../lib/gcc/arm-elf/4.4.0/../../../../arm-elf/lib/thumb/interwork\libvcom.a(usbhw_lpc.o)
                                                  c:/espardino/bin/../lib/gcc/arm-elf/4.4.0/../../../../arm-elf/lib/thumb/interwork\libvcom.a(usbinit.o)
                                                  c:/espardino/bin/../lib/gcc/arm-elf/4.4.0/../../../../arm-elf/lib/thumb/interwork\libvcom.a(usbstdreq.o)
USBHwEPGetStatus                                  c:/espardino/bin/../lib/gcc/arm-elf/4.4.0/../../../../arm-elf/lib/thumb/interwork\libvcom.a(usbhw_lpc.o)
                                                  c:/espardino/bin/../lib/gcc/arm-elf/4.4.0/../../../../arm-elf/lib/thumb/interwork\libvcom.a(usbstdreq.o)
USBHwEPRead                                       c:/espardino/bin/../lib/gcc/arm-elf/4.4.0/../../../../arm-elf/lib/thumb/interwork\libvcom.a(usbhw_lpc.o)
                                                  c:/espardino/bin/../lib/gcc/arm-elf/4.4.0/../../../../arm-elf/lib/thumb/interwork\libvcom.a(usbcontrol.o)
                                                  c:/espardino/bin/../lib/gcc/arm-elf/4.4.0/../../../../arm-elf/lib/thumb/interwork\libvcom.a(main_serial.o)
USBHwEPStall                                      c:/espardino/bin/../lib/gcc/arm-elf/4.4.0/../../../../arm-elf/lib/thumb/interwork\libvcom.a(usbhw_lpc.o)
                                                  c:/espardino/bin/../lib/gcc/arm-elf/4.4.0/../../../../arm-elf/lib/thumb/interwork\libvcom.a(usbstdreq.o)
                                                  c:/espardino/bin/../lib/gcc/arm-elf/4.4.0/../../../../arm-elf/lib/thumb/interwork\libvcom.a(usbcontrol.o)
USBHwEPWrite                                      c:/espardino/bin/../lib/gcc/arm-elf/4.4.0/../../../../arm-elf/lib/thumb/interwork\libvcom.a(usbhw_lpc.o)
                                                  c:/espardino/bin/../lib/gcc/arm-elf/4.4.0/../../../../arm-elf/lib/thumb/interwork\libvcom.a(usbcontrol.o)
                                                  c:/espardino/bin/../lib/gcc/arm-elf/4.4.0/../../../../arm-elf/lib/thumb/interwork\libvcom.a(main_serial.o)
USBHwISR                                          c:/espardino/bin/../lib/gcc/arm-elf/4.4.0/../../../../arm-elf/lib/thumb/interwork\libvcom.a(usbhw_lpc.o)
                                                  c:/espardino/bin/../lib/gcc/arm-elf/4.4.0/../../../../arm-elf/lib/thumb/interwork\libvcom.a(main_serial.o)
USBHwInit                                         c:/espardino/bin/../lib/gcc/arm-elf/4.4.0/../../../../arm-elf/lib/thumb/interwork\libvcom.a(usbhw_lpc.o)
                                                  c:/espardino/bin/../lib/gcc/arm-elf/4.4.0/../../../../arm-elf/lib/thumb/interwork\libvcom.a(usbinit.o)
USBHwNakIntEnable                                 c:/espardino/bin/../lib/gcc/arm-elf/4.4.0/../../../../arm-elf/lib/thumb/interwork\libvcom.a(usbhw_lpc.o)
                                                  c:/espardino/bin/../lib/gcc/arm-elf/4.4.0/../../../../arm-elf/lib/thumb/interwork\libvcom.a(main_serial.o)
USBHwRegisterDevIntHandler                        c:/espardino/bin/../lib/gcc/arm-elf/4.4.0/../../../../arm-elf/lib/thumb/interwork\libvcom.a(usbhw_lpc.o)
                                                  c:/espardino/bin/../lib/gcc/arm-elf/4.4.0/../../../../arm-elf/lib/thumb/interwork\libvcom.a(usbinit.o)
USBHwRegisterEPIntHandler                         c:/espardino/bin/../lib/gcc/arm-elf/4.4.0/../../../../arm-elf/lib/thumb/interwork\libvcom.a(usbhw_lpc.o)
                                                  c:/espardino/bin/../lib/gcc/arm-elf/4.4.0/../../../../arm-elf/lib/thumb/interwork\libvcom.a(usbinit.o)
                                                  c:/espardino/bin/../lib/gcc/arm-elf/4.4.0/../../../../arm-elf/lib/thumb/interwork\libvcom.a(main_serial.o)
USBHwRegisterFrameHandler                         c:/espardino/bin/../lib/gcc/arm-elf/4.4.0/../../../../arm-elf/lib/thumb/interwork\libvcom.a(usbhw_lpc.o)
                                                  c:/espardino/bin/../lib/gcc/arm-elf/4.4.0/../../../../arm-elf/lib/thumb/interwork\libvcom.a(main_serial.o)
USBHwSetAddress                                   c:/espardino/bin/../lib/gcc/arm-elf/4.4.0/../../../../arm-elf/lib/thumb/interwork\libvcom.a(usbhw_lpc.o)
                                                  c:/espardino/bin/../lib/gcc/arm-elf/4.4.0/../../../../arm-elf/lib/thumb/interwork\libvcom.a(usbstdreq.o)
USBInit                                           c:/espardino/bin/../lib/gcc/arm-elf/4.4.0/../../../../arm-elf/lib/thumb/interwork\libvcom.a(usbinit.o)
                                                  c:/espardino/bin/../lib/gcc/arm-elf/4.4.0/../../../../arm-elf/lib/thumb/interwork\libvcom.a(main_serial.o)
USBRegisterCustomReqHandler                       c:/espardino/bin/../lib/gcc/arm-elf/4.4.0/../../../../arm-elf/lib/thumb/interwork\libvcom.a(usbstdreq.o)
USBRegisterDescriptors                            c:/espardino/bin/../lib/gcc/arm-elf/4.4.0/../../../../arm-elf/lib/thumb/interwork\libvcom.a(usbstdreq.o)
                                                  c:/espardino/bin/../lib/gcc/arm-elf/4.4.0/../../../../arm-elf/lib/thumb/interwork\libvcom.a(main_serial.o)
USBRegisterRequestHandler                         c:/espardino/bin/../lib/gcc/arm-elf/4.4.0/../../../../arm-elf/lib/thumb/interwork\libvcom.a(usbcontrol.o)
                                                  c:/espardino/bin/../lib/gcc/arm-elf/4.4.0/../../../../arm-elf/lib/thumb/interwork\libvcom.a(usbinit.o)
                                                  c:/espardino/bin/../lib/gcc/arm-elf/4.4.0/../../../../arm-elf/lib/thumb/interwork\libvcom.a(main_serial.o)
VCOM_getchar                                      c:/espardino/bin/../lib/gcc/arm-elf/4.4.0/../../../../arm-elf/lib/thumb/interwork\libvcom.a(main_serial.o)
                                                  main.o
VCOM_getchar_nonblock                             c:/espardino/bin/../lib/gcc/arm-elf/4.4.0/../../../../arm-elf/lib/thumb/interwork\libvcom.a(main_serial.o)
VCOM_init                                         c:/espardino/bin/../lib/gcc/arm-elf/4.4.0/../../../../arm-elf/lib/thumb/interwork\libvcom.a(main_serial.o)
                                                  main.o
VCOM_init_internal                                c:/espardino/bin/../lib/gcc/arm-elf/4.4.0/../../../../arm-elf/lib/thumb/interwork\libvcom.a(main_serial.o)
VCOM_kbhit                                        c:/espardino/bin/../lib/gcc/arm-elf/4.4.0/../../../../arm-elf/lib/thumb/interwork\libvcom.a(main_serial.o)
VCOM_putchar                                      c:/espardino/bin/../lib/gcc/arm-elf/4.4.0/../../../../arm-elf/lib/thumb/interwork\libvcom.a(main_serial.o)
VCOM_putchar_nl                                   c:/espardino/bin/../lib/gcc/arm-elf/4.4.0/../../../../arm-elf/lib/thumb/interwork\libvcom.a(main_serial.o)
                                                  main.o
VCOM_putchar_nonblock                             c:/espardino/bin/../lib/gcc/arm-elf/4.4.0/../../../../arm-elf/lib/thumb/interwork\libvcom.a(main_serial.o)
VCOM_putchar_nonblock_nl                          c:/espardino/bin/../lib/gcc/arm-elf/4.4.0/../../../../arm-elf/lib/thumb/interwork\libvcom.a(main_serial.o)
VCOM_puts                                         c:/espardino/bin/../lib/gcc/arm-elf/4.4.0/../../../../arm-elf/lib/thumb/interwork\libvcom.a(main_serial.o)
VPB_get_speed                                     c:/espardino/bin/../lib/gcc/arm-elf/4.4.0/../../../../arm-elf/lib\libmicro214x.a(sysclocks.o)
                                                  c:/espardino/bin/../lib/gcc/arm-elf/4.4.0/../../../../arm-elf/lib\libmicro214x.a(pwm.o)
VPB_set_speed                                     c:/espardino/bin/../lib/gcc/arm-elf/4.4.0/../../../../arm-elf/lib\libmicro214x.a(sysclocks.o)
VPB_speed_Hz                                      c:/espardino/bin/../lib/gcc/arm-elf/4.4.0/../../../../arm-elf/lib\libmicro214x.a(sysclocks.o)
__LEDS_init_from_arm                              c:/espardino/bin/../lib/gcc/arm-elf/4.4.0/../../../../arm-elf/lib/thumb/interwork\libg.a(lib_a-readr.o)
__LEDS_on_from_arm                                c:/espardino/bin/../lib/gcc/arm-elf/4.4.0/../../../../arm-elf/lib/thumb/interwork\libg.a(lib_a-readr.o)
__PWM_frequency_from_arm                          c:/espardino/bin/../lib/gcc/arm-elf/4.4.0/../../../../arm-elf/lib/thumb/interwork\libg.a(lib_a-readr.o)
__PWM_init_from_arm                               c:/espardino/bin/../lib/gcc/arm-elf/4.4.0/../../../../arm-elf/lib/thumb/interwork\libg.a(lib_a-readr.o)
__PWM_pulsewidth_us_from_arm                      c:/espardino/bin/../lib/gcc/arm-elf/4.4.0/../../../../arm-elf/lib/thumb/interwork\libg.a(lib_a-readr.o)
__USBHwConnect_from_arm                           c:/espardino/bin/../lib/gcc/arm-elf/4.4.0/../../../../arm-elf/lib/thumb/interwork\libg.a(lib_a-readr.o)
__USBHwEPRead_from_arm                            c:/espardino/bin/../lib/gcc/arm-elf/4.4.0/../../../../arm-elf/lib/thumb/interwork\libg.a(lib_a-readr.o)
__USBHwEPWrite_from_arm                           c:/espardino/bin/../lib/gcc/arm-elf/4.4.0/../../../../arm-elf/lib/thumb/interwork\libg.a(lib_a-readr.o)
__USBHwISR_from_arm                               c:/espardino/bin/../lib/gcc/arm-elf/4.4.0/../../../../arm-elf/lib/thumb/interwork\libg.a(lib_a-readr.o)
__USBHwNakIntEnable_from_arm                      c:/espardino/bin/../lib/gcc/arm-elf/4.4.0/../../../../arm-elf/lib/thumb/interwork\libg.a(lib_a-readr.o)
__USBHwRegisterEPIntHandler_from_arm              c:/espardino/bin/../lib/gcc/arm-elf/4.4.0/../../../../arm-elf/lib/thumb/interwork\libg.a(lib_a-readr.o)
__USBHwRegisterFrameHandler_from_arm              c:/espardino/bin/../lib/gcc/arm-elf/4.4.0/../../../../arm-elf/lib/thumb/interwork\libg.a(lib_a-readr.o)
__USBInit_from_arm                                c:/espardino/bin/../lib/gcc/arm-elf/4.4.0/../../../../arm-elf/lib/thumb/interwork\libg.a(lib_a-readr.o)
__USBRegisterDescriptors_from_arm                 c:/espardino/bin/../lib/gcc/arm-elf/4.4.0/../../../../arm-elf/lib/thumb/interwork\libg.a(lib_a-readr.o)
__USBRegisterRequestHandler_from_arm              c:/espardino/bin/../lib/gcc/arm-elf/4.4.0/../../../../arm-elf/lib/thumb/interwork\libg.a(lib_a-readr.o)
____adddf3_change_to_arm                          c:/espardino/bin/../lib/gcc/arm-elf/4.4.0/../../../../arm-elf/lib/thumb/interwork\libg.a(lib_a-readr.o)
____adddf3_from_thumb                             c:/espardino/bin/../lib/gcc/arm-elf/4.4.0/../../../../arm-elf/lib/thumb/interwork\libg.a(lib_a-readr.o)
____gtdf2_change_to_arm                           c:/espardino/bin/../lib/gcc/arm-elf/4.4.0/../../../../arm-elf/lib/thumb/interwork\libg.a(lib_a-readr.o)
____gtdf2_from_thumb                              c:/espardino/bin/../lib/gcc/arm-elf/4.4.0/../../../../arm-elf/lib/thumb/interwork\libg.a(lib_a-readr.o)
____udivsi3_from_arm                              c:/espardino/bin/../lib/gcc/arm-elf/4.4.0/../../../../arm-elf/lib/thumb/interwork\libg.a(lib_a-readr.o)
____umodsi3_from_arm                              c:/espardino/bin/../lib/gcc/arm-elf/4.4.0/../../../../arm-elf/lib/thumb/interwork\libg.a(lib_a-readr.o)
__adddf3                                          c:/espardino/bin/../lib/gcc/arm-elf/4.4.0/thumb/interwork\libgcc.a(_arm_addsubdf3.o)
                                                  c:/espardino/bin/../lib/gcc/arm-elf/4.4.0/../../../../arm-elf/lib/thumb/interwork\libm.a(lib_a-s_floor.o)
                                                  servo.o
                                                  main.o
__aeabi_cdcmpeq                                   c:/espardino/bin/../lib/gcc/arm-elf/4.4.0/thumb/interwork\libgcc.a(_arm_cmpdf2.o)
__aeabi_cdcmple                                   c:/espardino/bin/../lib/gcc/arm-elf/4.4.0/thumb/interwork\libgcc.a(_arm_cmpdf2.o)
__aeabi_cdrcmple                                  c:/espardino/bin/../lib/gcc/arm-elf/4.4.0/thumb/interwork\libgcc.a(_arm_cmpdf2.o)
__aeabi_d2iz                                      c:/espardino/bin/../lib/gcc/arm-elf/4.4.0/thumb/interwork\libgcc.a(_arm_fixdfsi.o)
__aeabi_dadd                                      c:/espardino/bin/../lib/gcc/arm-elf/4.4.0/thumb/interwork\libgcc.a(_arm_addsubdf3.o)
__aeabi_dcmpeq                                    c:/espardino/bin/../lib/gcc/arm-elf/4.4.0/thumb/interwork\libgcc.a(_arm_cmpdf2.o)
__aeabi_dcmpge                                    c:/espardino/bin/../lib/gcc/arm-elf/4.4.0/thumb/interwork\libgcc.a(_arm_cmpdf2.o)
__aeabi_dcmpgt                                    c:/espardino/bin/../lib/gcc/arm-elf/4.4.0/thumb/interwork\libgcc.a(_arm_cmpdf2.o)
__aeabi_dcmple                                    c:/espardino/bin/../lib/gcc/arm-elf/4.4.0/thumb/interwork\libgcc.a(_arm_cmpdf2.o)
__aeabi_dcmplt                                    c:/espardino/bin/../lib/gcc/arm-elf/4.4.0/thumb/interwork\libgcc.a(_arm_cmpdf2.o)
__aeabi_ddiv                                      c:/espardino/bin/../lib/gcc/arm-elf/4.4.0/thumb/interwork\libgcc.a(_arm_muldivdf3.o)
__aeabi_dmul                                      c:/espardino/bin/../lib/gcc/arm-elf/4.4.0/thumb/interwork\libgcc.a(_arm_muldivdf3.o)
__aeabi_drsub                                     c:/espardino/bin/../lib/gcc/arm-elf/4.4.0/thumb/interwork\libgcc.a(_arm_addsubdf3.o)
__aeabi_dsub                                      c:/espardino/bin/../lib/gcc/arm-elf/4.4.0/thumb/interwork\libgcc.a(_arm_addsubdf3.o)
__aeabi_f2d                                       c:/espardino/bin/../lib/gcc/arm-elf/4.4.0/thumb/interwork\libgcc.a(_arm_addsubdf3.o)
__aeabi_i2d                                       c:/espardino/bin/../lib/gcc/arm-elf/4.4.0/thumb/interwork\libgcc.a(_arm_addsubdf3.o)
__aeabi_idiv                                      c:/espardino/bin/../lib/gcc/arm-elf/4.4.0/thumb/interwork\libgcc.a(_divsi3.o)
__aeabi_idiv0                                     c:/espardino/bin/../lib/gcc/arm-elf/4.4.0/thumb/interwork\libgcc.a(_dvmd_tls.o)
__aeabi_idivmod                                   c:/espardino/bin/../lib/gcc/arm-elf/4.4.0/thumb/interwork\libgcc.a(_divsi3.o)
__aeabi_l2d                                       c:/espardino/bin/../lib/gcc/arm-elf/4.4.0/thumb/interwork\libgcc.a(_arm_addsubdf3.o)
__aeabi_ldiv0                                     c:/espardino/bin/../lib/gcc/arm-elf/4.4.0/thumb/interwork\libgcc.a(_dvmd_tls.o)
__aeabi_ui2d                                      c:/espardino/bin/../lib/gcc/arm-elf/4.4.0/thumb/interwork\libgcc.a(_arm_addsubdf3.o)
__aeabi_uidiv                                     c:/espardino/bin/../lib/gcc/arm-elf/4.4.0/thumb/interwork\libgcc.a(_udivsi3.o)
__aeabi_uidivmod                                  c:/espardino/bin/../lib/gcc/arm-elf/4.4.0/thumb/interwork\libgcc.a(_udivsi3.o)
__aeabi_ul2d                                      c:/espardino/bin/../lib/gcc/arm-elf/4.4.0/thumb/interwork\libgcc.a(_arm_addsubdf3.o)
__bss_end__                                       startup.o
__bss_start__                                     startup.o
__cmpdf2                                          c:/espardino/bin/../lib/gcc/arm-elf/4.4.0/thumb/interwork\libgcc.a(_arm_cmpdf2.o)
__ctors_end__                                     startup.o
__ctors_start__                                   startup.o
__div0                                            c:/espardino/bin/../lib/gcc/arm-elf/4.4.0/thumb/interwork\libgcc.a(_dvmd_tls.o)
                                                  c:/espardino/bin/../lib/gcc/arm-elf/4.4.0/thumb/interwork\libgcc.a(_umodsi3.o)
                                                  c:/espardino/bin/../lib/gcc/arm-elf/4.4.0/thumb/interwork\libgcc.a(_divsi3.o)
                                                  c:/espardino/bin/../lib/gcc/arm-elf/4.4.0/thumb/interwork\libgcc.a(_udivsi3.o)
__divdf3                                          c:/espardino/bin/../lib/gcc/arm-elf/4.4.0/thumb/interwork\libgcc.a(_arm_muldivdf3.o)
                                                  servo.o
__divsi3                                          c:/espardino/bin/../lib/gcc/arm-elf/4.4.0/thumb/interwork\libgcc.a(_divsi3.o)
                                                  c:/espardino/bin/../lib/gcc/arm-elf/4.4.0/../../../../arm-elf/lib\libmicro214x.a(pwm.o)
__eqdf2                                           c:/espardino/bin/../lib/gcc/arm-elf/4.4.0/thumb/interwork\libgcc.a(_arm_cmpdf2.o)
__errno                                           c:/espardino/bin/../lib/gcc/arm-elf/4.4.0/../../../../arm-elf/lib/thumb/interwork\libg.a(lib_a-errno.o)
                                                  c:/espardino/bin/../lib/gcc/arm-elf/4.4.0/../../../../arm-elf/lib/thumb/interwork\libg.a(lib_a-syscalls.o)
__exit_ARM                                        startup.o
__exit_THUMB                                      startup.o
__extendsfdf2                                     c:/espardino/bin/../lib/gcc/arm-elf/4.4.0/thumb/interwork\libgcc.a(_arm_addsubdf3.o)
__fifo_avail_from_arm                             c:/espardino/bin/../lib/gcc/arm-elf/4.4.0/../../../../arm-elf/lib/thumb/interwork\libg.a(lib_a-readr.o)
__fifo_free_from_arm                              c:/espardino/bin/../lib/gcc/arm-elf/4.4.0/../../../../arm-elf/lib/thumb/interwork\libg.a(lib_a-readr.o)
__fifo_get_from_arm                               c:/espardino/bin/../lib/gcc/arm-elf/4.4.0/../../../../arm-elf/lib/thumb/interwork\libg.a(lib_a-readr.o)
__fifo_init_from_arm                              c:/espardino/bin/../lib/gcc/arm-elf/4.4.0/../../../../arm-elf/lib/thumb/interwork\libg.a(lib_a-readr.o)
__fifo_put_from_arm                               c:/espardino/bin/../lib/gcc/arm-elf/4.4.0/../../../../arm-elf/lib/thumb/interwork\libg.a(lib_a-readr.o)
__fixdfsi                                         c:/espardino/bin/../lib/gcc/arm-elf/4.4.0/thumb/interwork\libgcc.a(_arm_fixdfsi.o)
                                                  c:/espardino/bin/../lib/gcc/arm-elf/4.4.0/../../../../arm-elf/lib\libmicro214x.a(miniprintf.o)
                                                  servo.o
__floatdidf                                       c:/espardino/bin/../lib/gcc/arm-elf/4.4.0/thumb/interwork\libgcc.a(_arm_addsubdf3.o)
__floatsidf                                       c:/espardino/bin/../lib/gcc/arm-elf/4.4.0/thumb/interwork\libgcc.a(_arm_addsubdf3.o)
                                                  c:/espardino/bin/../lib/gcc/arm-elf/4.4.0/../../../../arm-elf/lib\libmicro214x.a(miniprintf.o)
                                                  servo.o
__floatundidf                                     c:/espardino/bin/../lib/gcc/arm-elf/4.4.0/thumb/interwork\libgcc.a(_arm_addsubdf3.o)
__floatunsidf                                     c:/espardino/bin/../lib/gcc/arm-elf/4.4.0/thumb/interwork\libgcc.a(_arm_addsubdf3.o)
__floor_from_arm                                  c:/espardino/bin/../lib/gcc/arm-elf/4.4.0/../../../../arm-elf/lib/thumb/interwork\libg.a(lib_a-readr.o)
__fp_lock_all                                     c:/espardino/bin/../lib/gcc/arm-elf/4.4.0/../../../../arm-elf/lib/thumb/interwork\libg.a(lib_a-findfp.o)
__fp_unlock_all                                   c:/espardino/bin/../lib/gcc/arm-elf/4.4.0/../../../../arm-elf/lib/thumb/interwork\libg.a(lib_a-findfp.o)
__gedf2                                           c:/espardino/bin/../lib/gcc/arm-elf/4.4.0/thumb/interwork\libgcc.a(_arm_cmpdf2.o)
__gtdf2                                           c:/espardino/bin/../lib/gcc/arm-elf/4.4.0/thumb/interwork\libgcc.a(_arm_cmpdf2.o)
                                                  c:/espardino/bin/../lib/gcc/arm-elf/4.4.0/../../../../arm-elf/lib/thumb/interwork\libm.a(lib_a-s_floor.o)
                                                  main.o
__gxx_personality_sj0                             c:/espardino/bin/../lib/gcc/arm-elf/4.4.0/../../../../arm-elf/lib\libnanoc++.a(nanoc++.o)
                                                  servo.o
                                                  main.o
__ledf2                                           c:/espardino/bin/../lib/gcc/arm-elf/4.4.0/thumb/interwork\libgcc.a(_arm_cmpdf2.o)
__ltdf2                                           c:/espardino/bin/../lib/gcc/arm-elf/4.4.0/thumb/interwork\libgcc.a(_arm_cmpdf2.o)
                                                  c:/espardino/bin/../lib/gcc/arm-elf/4.4.0/../../../../arm-elf/lib\libmicro214x.a(miniprintf.o)
                                                  main.o
__malloc_av_                                      c:/espardino/bin/../lib/gcc/arm-elf/4.4.0/../../../../arm-elf/lib/thumb/interwork\libg.a(lib_a-mallocr.o)
                                                  c:/espardino/bin/../lib/gcc/arm-elf/4.4.0/../../../../arm-elf/lib/thumb/interwork\libg.a(lib_a-freer.o)
__malloc_current_mallinfo                         c:/espardino/bin/../lib/gcc/arm-elf/4.4.0/../../../../arm-elf/lib/thumb/interwork\libg.a(lib_a-mallocr.o)
                                                  c:/espardino/bin/../lib/gcc/arm-elf/4.4.0/../../../../arm-elf/lib/thumb/interwork\libg.a(lib_a-freer.o)
__malloc_lock                                     c:/espardino/bin/../lib/gcc/arm-elf/4.4.0/../../../../arm-elf/lib/thumb/interwork\libg.a(lib_a-mlock.o)
                                                  c:/espardino/bin/../lib/gcc/arm-elf/4.4.0/../../../../arm-elf/lib/thumb/interwork\libg.a(lib_a-freer.o)
                                                  c:/espardino/bin/../lib/gcc/arm-elf/4.4.0/../../../../arm-elf/lib/thumb/interwork\libg.a(lib_a-mallocr.o)
__malloc_max_sbrked_mem                           c:/espardino/bin/../lib/gcc/arm-elf/4.4.0/../../../../arm-elf/lib/thumb/interwork\libg.a(lib_a-mallocr.o)
__malloc_max_total_mem                            c:/espardino/bin/../lib/gcc/arm-elf/4.4.0/../../../../arm-elf/lib/thumb/interwork\libg.a(lib_a-mallocr.o)
__malloc_sbrk_base                                c:/espardino/bin/../lib/gcc/arm-elf/4.4.0/../../../../arm-elf/lib/thumb/interwork\libg.a(lib_a-mallocr.o)
                                                  c:/espardino/bin/../lib/gcc/arm-elf/4.4.0/../../../../arm-elf/lib/thumb/interwork\libg.a(lib_a-freer.o)
__malloc_top_pad                                  c:/espardino/bin/../lib/gcc/arm-elf/4.4.0/../../../../arm-elf/lib/thumb/interwork\libg.a(lib_a-mallocr.o)
                                                  c:/espardino/bin/../lib/gcc/arm-elf/4.4.0/../../../../arm-elf/lib/thumb/interwork\libg.a(lib_a-freer.o)
__malloc_trim_threshold                           c:/espardino/bin/../lib/gcc/arm-elf/4.4.0/../../../../arm-elf/lib/thumb/interwork\libg.a(lib_a-mallocr.o)
                                                  c:/espardino/bin/../lib/gcc/arm-elf/4.4.0/../../../../arm-elf/lib/thumb/interwork\libg.a(lib_a-freer.o)
__malloc_unlock                                   c:/espardino/bin/../lib/gcc/arm-elf/4.4.0/../../../../arm-elf/lib/thumb/interwork\libg.a(lib_a-mlock.o)
                                                  c:/espardino/bin/../lib/gcc/arm-elf/4.4.0/../../../../arm-elf/lib/thumb/interwork\libg.a(lib_a-freer.o)
                                                  c:/espardino/bin/../lib/gcc/arm-elf/4.4.0/../../../../arm-elf/lib/thumb/interwork\libg.a(lib_a-mallocr.o)
__memcpy_from_arm                                 c:/espardino/bin/../lib/gcc/arm-elf/4.4.0/../../../../arm-elf/lib/thumb/interwork\libg.a(lib_a-readr.o)
__muldf3                                          c:/espardino/bin/../lib/gcc/arm-elf/4.4.0/thumb/interwork\libgcc.a(_arm_muldivdf3.o)
                                                  c:/espardino/bin/../lib/gcc/arm-elf/4.4.0/../../../../arm-elf/lib\libmicro214x.a(miniprintf.o)
                                                  servo.o
__nedf2                                           c:/espardino/bin/../lib/gcc/arm-elf/4.4.0/thumb/interwork\libgcc.a(_arm_cmpdf2.o)
__sclose                                          c:/espardino/bin/../lib/gcc/arm-elf/4.4.0/../../../../arm-elf/lib/thumb/interwork\libg.a(lib_a-stdio.o)
                                                  c:/espardino/bin/../lib/gcc/arm-elf/4.4.0/../../../../arm-elf/lib/thumb/interwork\libg.a(lib_a-findfp.o)
__sfmoreglue                                      c:/espardino/bin/../lib/gcc/arm-elf/4.4.0/../../../../arm-elf/lib/thumb/interwork\libg.a(lib_a-findfp.o)
__sfp                                             c:/espardino/bin/../lib/gcc/arm-elf/4.4.0/../../../../arm-elf/lib/thumb/interwork\libg.a(lib_a-findfp.o)
__sfp_lock_acquire                                c:/espardino/bin/../lib/gcc/arm-elf/4.4.0/../../../../arm-elf/lib/thumb/interwork\libg.a(lib_a-findfp.o)
                                                  c:/espardino/bin/../lib/gcc/arm-elf/4.4.0/../../../../arm-elf/lib/thumb/interwork\libg.a(lib_a-fclose.o)
                                                  c:/espardino/bin/../lib/gcc/arm-elf/4.4.0/../../../../arm-elf/lib/thumb/interwork\libg.a(lib_a-fwalk.o)
__sfp_lock_release                                c:/espardino/bin/../lib/gcc/arm-elf/4.4.0/../../../../arm-elf/lib/thumb/interwork\libg.a(lib_a-findfp.o)
                                                  c:/espardino/bin/../lib/gcc/arm-elf/4.4.0/../../../../arm-elf/lib/thumb/interwork\libg.a(lib_a-fclose.o)
                                                  c:/espardino/bin/../lib/gcc/arm-elf/4.4.0/../../../../arm-elf/lib/thumb/interwork\libg.a(lib_a-fwalk.o)
__sinit                                           c:/espardino/bin/../lib/gcc/arm-elf/4.4.0/../../../../arm-elf/lib/thumb/interwork\libg.a(lib_a-findfp.o)
                                                  c:/espardino/bin/../lib/gcc/arm-elf/4.4.0/../../../../arm-elf/lib/thumb/interwork\libg.a(lib_a-fflush.o)
                                                  c:/espardino/bin/../lib/gcc/arm-elf/4.4.0/../../../../arm-elf/lib/thumb/interwork\libg.a(lib_a-fclose.o)
                                                  c:/espardino/bin/../lib/gcc/arm-elf/4.4.0/../../../../arm-elf/lib/thumb/interwork\libg.a(lib_a-syscalls.o)
__sinit_lock_acquire                              c:/espardino/bin/../lib/gcc/arm-elf/4.4.0/../../../../arm-elf/lib/thumb/interwork\libg.a(lib_a-findfp.o)
__sinit_lock_release                              c:/espardino/bin/../lib/gcc/arm-elf/4.4.0/../../../../arm-elf/lib/thumb/interwork\libg.a(lib_a-findfp.o)
__sread                                           c:/espardino/bin/../lib/gcc/arm-elf/4.4.0/../../../../arm-elf/lib/thumb/interwork\libg.a(lib_a-stdio.o)
                                                  c:/espardino/bin/../lib/gcc/arm-elf/4.4.0/../../../../arm-elf/lib/thumb/interwork\libg.a(lib_a-findfp.o)
__sseek                                           c:/espardino/bin/../lib/gcc/arm-elf/4.4.0/../../../../arm-elf/lib/thumb/interwork\libg.a(lib_a-stdio.o)
                                                  c:/espardino/bin/../lib/gcc/arm-elf/4.4.0/../../../../arm-elf/lib/thumb/interwork\libg.a(lib_a-findfp.o)
__subdf3                                          c:/espardino/bin/../lib/gcc/arm-elf/4.4.0/thumb/interwork\libgcc.a(_arm_addsubdf3.o)
                                                  c:/espardino/bin/../lib/gcc/arm-elf/4.4.0/../../../../arm-elf/lib\libmicro214x.a(miniprintf.o)
                                                  main.o
__swrite                                          c:/espardino/bin/../lib/gcc/arm-elf/4.4.0/../../../../arm-elf/lib/thumb/interwork\libg.a(lib_a-stdio.o)
                                                  c:/espardino/bin/../lib/gcc/arm-elf/4.4.0/../../../../arm-elf/lib/thumb/interwork\libg.a(lib_a-findfp.o)
__udivsi3                                         c:/espardino/bin/../lib/gcc/arm-elf/4.4.0/thumb/interwork\libgcc.a(_udivsi3.o)
                                                  c:/espardino/bin/../lib/gcc/arm-elf/4.4.0/../../../../arm-elf/lib\libmicro214x.a(miniprintf.o)
__umodsi3                                         c:/espardino/bin/../lib/gcc/arm-elf/4.4.0/thumb/interwork\libgcc.a(_umodsi3.o)
                                                  c:/espardino/bin/../lib/gcc/arm-elf/4.4.0/../../../../arm-elf/lib\libmicro214x.a(miniprintf.o)
_boot                                             startup.o
_cleanup                                          c:/espardino/bin/../lib/gcc/arm-elf/4.4.0/../../../../arm-elf/lib/thumb/interwork\libg.a(lib_a-findfp.o)
_cleanup_r                                        c:/espardino/bin/../lib/gcc/arm-elf/4.4.0/../../../../arm-elf/lib/thumb/interwork\libg.a(lib_a-findfp.o)
_close                                            c:/espardino/bin/../lib/gcc/arm-elf/4.4.0/../../../../arm-elf/lib/thumb/interwork\libg.a(lib_a-syscalls.o)
                                                  c:/espardino/bin/../lib/gcc/arm-elf/4.4.0/../../../../arm-elf/lib/thumb/interwork\libg.a(lib_a-closer.o)
_close_r                                          c:/espardino/bin/../lib/gcc/arm-elf/4.4.0/../../../../arm-elf/lib/thumb/interwork\libg.a(lib_a-closer.o)
                                                  c:/espardino/bin/../lib/gcc/arm-elf/4.4.0/../../../../arm-elf/lib/thumb/interwork\libg.a(lib_a-stdio.o)
_data                                             startup.o
_edata                                            startup.o
_etext                                            startup.o
_exit                                             c:/espardino/bin/../lib/gcc/arm-elf/4.4.0/../../../../arm-elf/lib/thumb/interwork\libg.a(lib_a-syscalls.o)
_fclose_r                                         c:/espardino/bin/../lib/gcc/arm-elf/4.4.0/../../../../arm-elf/lib/thumb/interwork\libg.a(lib_a-fclose.o)
_fflush_r                                         c:/espardino/bin/../lib/gcc/arm-elf/4.4.0/../../../../arm-elf/lib/thumb/interwork\libg.a(lib_a-fflush.o)
                                                  c:/espardino/bin/../lib/gcc/arm-elf/4.4.0/../../../../arm-elf/lib/thumb/interwork\libg.a(lib_a-fclose.o)
_free_r                                           c:/espardino/bin/../lib/gcc/arm-elf/4.4.0/../../../../arm-elf/lib/thumb/interwork\libg.a(lib_a-freer.o)
                                                  c:/espardino/bin/../lib/gcc/arm-elf/4.4.0/../../../../arm-elf/lib/thumb/interwork\libg.a(lib_a-fflush.o)
                                                  c:/espardino/bin/../lib/gcc/arm-elf/4.4.0/../../../../arm-elf/lib/thumb/interwork\libg.a(lib_a-fclose.o)
                                                  c:/espardino/bin/../lib/gcc/arm-elf/4.4.0/../../../../arm-elf/lib/thumb/interwork\libg.a(lib_a-reent.o)
                                                  c:/espardino/bin/../lib/gcc/arm-elf/4.4.0/../../../../arm-elf/lib/thumb/interwork\libg.a(lib_a-mallocr.o)
                                                  c:/espardino/bin/../lib/gcc/arm-elf/4.4.0/../../../../arm-elf/lib/thumb/interwork\libg.a(lib_a-malloc.o)
_fstat                                            c:/espardino/bin/../lib/gcc/arm-elf/4.4.0/../../../../arm-elf/lib/thumb/interwork\libg.a(lib_a-syscalls.o)
_fwalk                                            c:/espardino/bin/../lib/gcc/arm-elf/4.4.0/../../../../arm-elf/lib/thumb/interwork\libg.a(lib_a-fwalk.o)
                                                  c:/espardino/bin/../lib/gcc/arm-elf/4.4.0/../../../../arm-elf/lib/thumb/interwork\libg.a(lib_a-findfp.o)
_fwalk_reent                                      c:/espardino/bin/../lib/gcc/arm-elf/4.4.0/../../../../arm-elf/lib/thumb/interwork\libg.a(lib_a-fwalk.o)
                                                  c:/espardino/bin/../lib/gcc/arm-elf/4.4.0/../../../../arm-elf/lib/thumb/interwork\libg.a(lib_a-fflush.o)
_getpid                                           c:/espardino/bin/../lib/gcc/arm-elf/4.4.0/../../../../arm-elf/lib/thumb/interwork\libg.a(lib_a-syscalls.o)
_gettimeofday                                     c:/espardino/bin/../lib/gcc/arm-elf/4.4.0/../../../../arm-elf/lib/thumb/interwork\libg.a(lib_a-syscalls.o)
_global_impure_ptr                                c:/espardino/bin/../lib/gcc/arm-elf/4.4.0/../../../../arm-elf/lib/thumb/interwork\libg.a(lib_a-impure.o)
                                                  c:/espardino/bin/../lib/gcc/arm-elf/4.4.0/../../../../arm-elf/lib/thumb/interwork\libg.a(lib_a-fflush.o)
                                                  c:/espardino/bin/../lib/gcc/arm-elf/4.4.0/../../../../arm-elf/lib/thumb/interwork\libg.a(lib_a-findfp.o)
_impure_ptr                                       c:/espardino/bin/../lib/gcc/arm-elf/4.4.0/../../../../arm-elf/lib/thumb/interwork\libg.a(lib_a-impure.o)
                                                  c:/espardino/bin/../lib/gcc/arm-elf/4.4.0/../../../../arm-elf/lib/thumb/interwork\libg.a(lib_a-fflush.o)
                                                  c:/espardino/bin/../lib/gcc/arm-elf/4.4.0/../../../../arm-elf/lib/thumb/interwork\libg.a(lib_a-fclose.o)
                                                  c:/espardino/bin/../lib/gcc/arm-elf/4.4.0/../../../../arm-elf/lib/thumb/interwork\libg.a(lib_a-reent.o)
                                                  c:/espardino/bin/../lib/gcc/arm-elf/4.4.0/../../../../arm-elf/lib/thumb/interwork\libg.a(lib_a-findfp.o)
                                                  c:/espardino/bin/../lib/gcc/arm-elf/4.4.0/../../../../arm-elf/lib/thumb/interwork\libg.a(lib_a-errno.o)
                                                  c:/espardino/bin/../lib/gcc/arm-elf/4.4.0/../../../../arm-elf/lib/thumb/interwork\libg.a(lib_a-syscalls.o)
                                                  c:/espardino/bin/../lib/gcc/arm-elf/4.4.0/../../../../arm-elf/lib/thumb/interwork\libg.a(lib_a-malloc.o)
_isatty                                           c:/espardino/bin/../lib/gcc/arm-elf/4.4.0/../../../../arm-elf/lib/thumb/interwork\libg.a(lib_a-syscalls.o)
_kill                                             c:/espardino/bin/../lib/gcc/arm-elf/4.4.0/../../../../arm-elf/lib/thumb/interwork\libg.a(lib_a-syscalls.o)
_link                                             c:/espardino/bin/../lib/gcc/arm-elf/4.4.0/../../../../arm-elf/lib/thumb/interwork\libg.a(lib_a-syscalls.o)
_lseek                                            c:/espardino/bin/../lib/gcc/arm-elf/4.4.0/../../../../arm-elf/lib/thumb/interwork\libg.a(lib_a-syscalls.o)
                                                  c:/espardino/bin/../lib/gcc/arm-elf/4.4.0/../../../../arm-elf/lib/thumb/interwork\libg.a(lib_a-lseekr.o)
_lseek_r                                          c:/espardino/bin/../lib/gcc/arm-elf/4.4.0/../../../../arm-elf/lib/thumb/interwork\libg.a(lib_a-lseekr.o)
                                                  c:/espardino/bin/../lib/gcc/arm-elf/4.4.0/../../../../arm-elf/lib/thumb/interwork\libg.a(lib_a-stdio.o)
_malloc_r                                         c:/espardino/bin/../lib/gcc/arm-elf/4.4.0/../../../../arm-elf/lib/thumb/interwork\libg.a(lib_a-mallocr.o)
                                                  c:/espardino/bin/../lib/gcc/arm-elf/4.4.0/../../../../arm-elf/lib/thumb/interwork\libg.a(lib_a-findfp.o)
                                                  c:/espardino/bin/../lib/gcc/arm-elf/4.4.0/../../../../arm-elf/lib/thumb/interwork\libg.a(lib_a-malloc.o)
_malloc_trim_r                                    c:/espardino/bin/../lib/gcc/arm-elf/4.4.0/../../../../arm-elf/lib/thumb/interwork\libg.a(lib_a-freer.o)
_open                                             c:/espardino/bin/../lib/gcc/arm-elf/4.4.0/../../../../arm-elf/lib/thumb/interwork\libg.a(lib_a-syscalls.o)
_raise                                            c:/espardino/bin/../lib/gcc/arm-elf/4.4.0/../../../../arm-elf/lib/thumb/interwork\libg.a(lib_a-syscalls.o)
_read                                             c:/espardino/bin/../lib/gcc/arm-elf/4.4.0/../../../../arm-elf/lib/thumb/interwork\libg.a(lib_a-syscalls.o)
                                                  c:/espardino/bin/../lib/gcc/arm-elf/4.4.0/../../../../arm-elf/lib/thumb/interwork\libg.a(lib_a-readr.o)
_read_r                                           c:/espardino/bin/../lib/gcc/arm-elf/4.4.0/../../../../arm-elf/lib/thumb/interwork\libg.a(lib_a-readr.o)
                                                  c:/espardino/bin/../lib/gcc/arm-elf/4.4.0/../../../../arm-elf/lib/thumb/interwork\libg.a(lib_a-stdio.o)
_reclaim_reent                                    c:/espardino/bin/../lib/gcc/arm-elf/4.4.0/../../../../arm-elf/lib/thumb/interwork\libg.a(lib_a-reent.o)
_rename                                           c:/espardino/bin/../lib/gcc/arm-elf/4.4.0/../../../../arm-elf/lib/thumb/interwork\libg.a(lib_a-syscalls.o)
_sbrk                                             c:/espardino/bin/../lib/gcc/arm-elf/4.4.0/../../../../arm-elf/lib/thumb/interwork\libg.a(lib_a-syscalls.o)
                                                  c:/espardino/bin/../lib/gcc/arm-elf/4.4.0/../../../../arm-elf/lib/thumb/interwork\libg.a(lib_a-sbrkr.o)
_sbrk_r                                           c:/espardino/bin/../lib/gcc/arm-elf/4.4.0/../../../../arm-elf/lib/thumb/interwork\libg.a(lib_a-sbrkr.o)
                                                  c:/espardino/bin/../lib/gcc/arm-elf/4.4.0/../../../../arm-elf/lib/thumb/interwork\libg.a(lib_a-freer.o)
                                                  c:/espardino/bin/../lib/gcc/arm-elf/4.4.0/../../../../arm-elf/lib/thumb/interwork\libg.a(lib_a-mallocr.o)
_stat                                             c:/espardino/bin/../lib/gcc/arm-elf/4.4.0/../../../../arm-elf/lib/thumb/interwork\libg.a(lib_a-syscalls.o)
_swiclose                                         c:/espardino/bin/../lib/gcc/arm-elf/4.4.0/../../../../arm-elf/lib/thumb/interwork\libg.a(lib_a-syscalls.o)
_swilseek                                         c:/espardino/bin/../lib/gcc/arm-elf/4.4.0/../../../../arm-elf/lib/thumb/interwork\libg.a(lib_a-syscalls.o)
_swiopen                                          c:/espardino/bin/../lib/gcc/arm-elf/4.4.0/../../../../arm-elf/lib/thumb/interwork\libg.a(lib_a-syscalls.o)
_swiread                                          c:/espardino/bin/../lib/gcc/arm-elf/4.4.0/../../../../arm-elf/lib/thumb/interwork\libg.a(lib_a-syscalls.o)
_swiwrite                                         c:/espardino/bin/../lib/gcc/arm-elf/4.4.0/../../../../arm-elf/lib/thumb/interwork\libg.a(lib_a-syscalls.o)
_system                                           c:/espardino/bin/../lib/gcc/arm-elf/4.4.0/../../../../arm-elf/lib/thumb/interwork\libg.a(lib_a-syscalls.o)
_times                                            c:/espardino/bin/../lib/gcc/arm-elf/4.4.0/../../../../arm-elf/lib/thumb/interwork\libg.a(lib_a-syscalls.o)
_unlink                                           c:/espardino/bin/../lib/gcc/arm-elf/4.4.0/../../../../arm-elf/lib/thumb/interwork\libg.a(lib_a-syscalls.o)
_wrapup_reent                                     c:/espardino/bin/../lib/gcc/arm-elf/4.4.0/../../../../arm-elf/lib/thumb/interwork\libg.a(lib_a-reent.o)
_write                                            c:/espardino/bin/../lib/gcc/arm-elf/4.4.0/../../../../arm-elf/lib/thumb/interwork\libg.a(lib_a-syscalls.o)
                                                  c:/espardino/bin/../lib/gcc/arm-elf/4.4.0/../../../../arm-elf/lib/thumb/interwork\libg.a(lib_a-writer.o)
_write_r                                          c:/espardino/bin/../lib/gcc/arm-elf/4.4.0/../../../../arm-elf/lib/thumb/interwork\libg.a(lib_a-writer.o)
                                                  c:/espardino/bin/../lib/gcc/arm-elf/4.4.0/../../../../arm-elf/lib/thumb/interwork\libg.a(lib_a-stdio.o)
cleanup_glue                                      c:/espardino/bin/../lib/gcc/arm-elf/4.4.0/../../../../arm-elf/lib/thumb/interwork\libg.a(lib_a-reent.o)
disableFIQ                                        c:/espardino/bin/../lib/gcc/arm-elf/4.4.0/../../../../arm-elf/lib/thumb/interwork\libvcom.a(armVIC.o)
disableIRQ                                        c:/espardino/bin/../lib/gcc/arm-elf/4.4.0/../../../../arm-elf/lib/thumb/interwork\libvcom.a(armVIC.o)
enableFIQ                                         c:/espardino/bin/../lib/gcc/arm-elf/4.4.0/../../../../arm-elf/lib/thumb/interwork\libvcom.a(armVIC.o)
enableIRQ                                         c:/espardino/bin/../lib/gcc/arm-elf/4.4.0/../../../../arm-elf/lib/thumb/interwork\libvcom.a(armVIC.o)
                                                  c:/espardino/bin/../lib/gcc/arm-elf/4.4.0/../../../../arm-elf/lib/thumb/interwork\libvcom.a(main_serial.o)
end                                               c:/espardino/bin/../lib/gcc/arm-elf/4.4.0/../../../../arm-elf/lib/thumb/interwork\libg.a(lib_a-syscalls.o)
errno                                             c:/espardino/bin/../lib/gcc/arm-elf/4.4.0/../../../../arm-elf/lib/thumb/interwork\libg.a(lib_a-readr.o)
                                                  c:/espardino/bin/../lib/gcc/arm-elf/4.4.0/../../../../arm-elf/lib/thumb/interwork\libg.a(lib_a-lseekr.o)
                                                  c:/espardino/bin/../lib/gcc/arm-elf/4.4.0/../../../../arm-elf/lib/thumb/interwork\libg.a(lib_a-closer.o)
                                                  c:/espardino/bin/../lib/gcc/arm-elf/4.4.0/../../../../arm-elf/lib/thumb/interwork\libg.a(lib_a-writer.o)
                                                  c:/espardino/bin/../lib/gcc/arm-elf/4.4.0/../../../../arm-elf/lib/thumb/interwork\libg.a(lib_a-reent.o)
                                                  c:/espardino/bin/../lib/gcc/arm-elf/4.4.0/../../../../arm-elf/lib/thumb/interwork\libg.a(lib_a-sbrkr.o)
fclose                                            c:/espardino/bin/../lib/gcc/arm-elf/4.4.0/../../../../arm-elf/lib/thumb/interwork\libg.a(lib_a-fclose.o)
                                                  c:/espardino/bin/../lib/gcc/arm-elf/4.4.0/../../../../arm-elf/lib/thumb/interwork\libg.a(lib_a-findfp.o)
fflush                                            c:/espardino/bin/../lib/gcc/arm-elf/4.4.0/../../../../arm-elf/lib/thumb/interwork\libg.a(lib_a-fflush.o)
fifo_avail                                        c:/espardino/bin/../lib/gcc/arm-elf/4.4.0/../../../../arm-elf/lib/thumb/interwork\libvcom.a(serial_fifo.o)
                                                  c:/espardino/bin/../lib/gcc/arm-elf/4.4.0/../../../../arm-elf/lib/thumb/interwork\libvcom.a(main_serial.o)
fifo_free                                         c:/espardino/bin/../lib/gcc/arm-elf/4.4.0/../../../../arm-elf/lib/thumb/interwork\libvcom.a(serial_fifo.o)
                                                  c:/espardino/bin/../lib/gcc/arm-elf/4.4.0/../../../../arm-elf/lib/thumb/interwork\libvcom.a(main_serial.o)
fifo_get                                          c:/espardino/bin/../lib/gcc/arm-elf/4.4.0/../../../../arm-elf/lib/thumb/interwork\libvcom.a(serial_fifo.o)
                                                  c:/espardino/bin/../lib/gcc/arm-elf/4.4.0/../../../../arm-elf/lib/thumb/interwork\libvcom.a(main_serial.o)
fifo_init                                         c:/espardino/bin/../lib/gcc/arm-elf/4.4.0/../../../../arm-elf/lib/thumb/interwork\libvcom.a(serial_fifo.o)
                                                  c:/espardino/bin/../lib/gcc/arm-elf/4.4.0/../../../../arm-elf/lib/thumb/interwork\libvcom.a(main_serial.o)
fifo_put                                          c:/espardino/bin/../lib/gcc/arm-elf/4.4.0/../../../../arm-elf/lib/thumb/interwork\libvcom.a(serial_fifo.o)
                                                  c:/espardino/bin/../lib/gcc/arm-elf/4.4.0/../../../../arm-elf/lib/thumb/interwork\libvcom.a(main_serial.o)
floor                                             c:/espardino/bin/../lib/gcc/arm-elf/4.4.0/../../../../arm-elf/lib/thumb/interwork\libm.a(lib_a-s_floor.o)
                                                  c:/espardino/bin/../lib/gcc/arm-elf/4.4.0/../../../../arm-elf/lib\libmicro214x.a(miniprintf.o)
free                                              c:/espardino/bin/../lib/gcc/arm-elf/4.4.0/../../../../arm-elf/lib/thumb/interwork\libg.a(lib_a-malloc.o)
                                                  c:/espardino/bin/../lib/gcc/arm-elf/4.4.0/../../../../arm-elf/lib\libnanoc++.a(nanoc++.o)
initialise_monitor_handles                        c:/espardino/bin/../lib/gcc/arm-elf/4.4.0/../../../../arm-elf/lib/thumb/interwork\libg.a(lib_a-syscalls.o)
limit_angle(double*)                              main.o
main                                              main.o
                                                  startup.o
malloc                                            c:/espardino/bin/../lib/gcc/arm-elf/4.4.0/../../../../arm-elf/lib/thumb/interwork\libg.a(lib_a-malloc.o)
                                                  c:/espardino/bin/../lib/gcc/arm-elf/4.4.0/../../../../arm-elf/lib\libnanoc++.a(nanoc++.o)
memcpy                                            c:/espardino/bin/../lib/gcc/arm-elf/4.4.0/../../../../arm-elf/lib/thumb/interwork\libg.a(lib_a-memcpy.o)
                                                  c:/espardino/bin/../lib/gcc/arm-elf/4.4.0/../../../../arm-elf/lib/thumb/interwork\libvcom.a(main_serial.o)
memset                                            c:/espardino/bin/../lib/gcc/arm-elf/4.4.0/../../../../arm-elf/lib/thumb/interwork\libg.a(lib_a-memset.o)
                                                  c:/espardino/bin/../lib/gcc/arm-elf/4.4.0/../../../../arm-elf/lib/thumb/interwork\libg.a(lib_a-findfp.o)
                                                  c:/espardino/bin/../lib/gcc/arm-elf/4.4.0/../../../../arm-elf/lib/thumb/interwork\libg.a(lib_a-syscalls.o)
operator delete(void*)                            c:/espardino/bin/../lib/gcc/arm-elf/4.4.0/../../../../arm-elf/lib\libnanoc++.a(nanoc++.o)
operator new(unsigned long)                       c:/espardino/bin/../lib/gcc/arm-elf/4.4.0/../../../../arm-elf/lib\libnanoc++.a(nanoc++.o)
restoreFIQ                                        c:/espardino/bin/../lib/gcc/arm-elf/4.4.0/../../../../arm-elf/lib/thumb/interwork\libvcom.a(armVIC.o)
restoreIRQ                                        c:/espardino/bin/../lib/gcc/arm-elf/4.4.0/../../../../arm-elf/lib/thumb/interwork\libvcom.a(armVIC.o)
strlen                                            c:/espardino/bin/../lib/gcc/arm-elf/4.4.0/../../../../arm-elf/lib/thumb/interwork\libg.a(lib_a-strlen.o)
                                                  c:/espardino/bin/../lib/gcc/arm-elf/4.4.0/../../../../arm-elf/lib/thumb/interwork\libg.a(lib_a-syscalls.o)
xfprintf                                          c:/espardino/bin/../lib/gcc/arm-elf/4.4.0/../../../../arm-elf/lib\libmicro214x.a(miniprintf.o)
xprintf                                           c:/espardino/bin/../lib/gcc/arm-elf/4.4.0/../../../../arm-elf/lib\libmicro214x.a(miniprintf.o)
                                                  main.o
xprintf_output                                    c:/espardino/bin/../lib/gcc/arm-elf/4.4.0/../../../../arm-elf/lib\libmicro214x.a(miniprintf.o)
                                                  main.o
xprintf_print                                     c:/espardino/bin/../lib/gcc/arm-elf/4.4.0/../../../../arm-elf/lib\libmicro214x.a(miniprintf.o)
xputc                                             c:/espardino/bin/../lib/gcc/arm-elf/4.4.0/../../../../arm-elf/lib\libmicro214x.a(miniprintf.o)
xputs                                             c:/espardino/bin/../lib/gcc/arm-elf/4.4.0/../../../../arm-elf/lib\libmicro214x.a(miniprintf.o)
                                                  main.o
xsprintf                                          c:/espardino/bin/../lib/gcc/arm-elf/4.4.0/../../../../arm-elf/lib\libmicro214x.a(miniprintf.o)
