Archive member included because of file (symbol)

c:/espardino_tmp/bin/../lib/gcc/arm-elf/4.4.0/thumb/interwork\libgcc.a(_arm_addsubdf3.o)
                              main.o (__adddf3)
c:/espardino_tmp/bin/../lib/gcc/arm-elf/4.4.0/../../../../arm-elf/lib\liblua.a(lua_io_wrappers.o)
                              main.o (LUA_setup_fatfs)
c:/espardino_tmp/bin/../lib/gcc/arm-elf/4.4.0/../../../../arm-elf/lib\liblua.a(lualib.o)
                              main.o (LUA_close)
c:/espardino_tmp/bin/../lib/gcc/arm-elf/4.4.0/../../../../arm-elf/lib\liblua.a(lualib_console.o)
                              main.o (LUA_console)
c:/espardino_tmp/bin/../lib/gcc/arm-elf/4.4.0/../../../../arm-elf/lib\liblua.a(all.o)
                              main.o (lua_gettop)
c:/espardino_tmp/bin/../lib/gcc/arm-elf/4.4.0/../../../../arm-elf/lib\liblua.a(lualib_bit.o)
                              c:/espardino_tmp/bin/../lib/gcc/arm-elf/4.4.0/../../../../arm-elf/lib\liblua.a(lualib.o) (luaopen_bit)
c:/espardino_tmp/bin/../lib/gcc/arm-elf/4.4.0/../../../../arm-elf/lib/thumb/interwork\libffs.a(ff.o)
                              main.o (f_mount)
c:/espardino_tmp/bin/../lib/gcc/arm-elf/4.4.0/../../../../arm-elf/lib/thumb/interwork\libffs.a(sd_spi_lpc2000.o)
                              c:/espardino_tmp/bin/../lib/gcc/arm-elf/4.4.0/../../../../arm-elf/lib/thumb/interwork\libffs.a(ff.o) (disk_status)
c:/espardino_tmp/bin/../lib/gcc/arm-elf/4.4.0/../../../../arm-elf/lib/thumb/interwork\libffs.a(ccsbcs.o)
                              c:/espardino_tmp/bin/../lib/gcc/arm-elf/4.4.0/../../../../arm-elf/lib/thumb/interwork\libffs.a(ff.o) (ff_convert)
c:/espardino_tmp/bin/../lib/gcc/arm-elf/4.4.0/../../../../arm-elf/lib/thumb/interwork\libffs.a(fattime.o)
                              c:/espardino_tmp/bin/../lib/gcc/arm-elf/4.4.0/../../../../arm-elf/lib/thumb/interwork\libffs.a(ff.o) (get_fattime)
c:/espardino_tmp/bin/../lib/gcc/arm-elf/4.4.0/../../../../arm-elf/lib/thumb/interwork\libvcom.a(main_serial.o)
                              main.o (VCOM_putchar_nl)
c:/espardino_tmp/bin/../lib/gcc/arm-elf/4.4.0/../../../../arm-elf/lib/thumb/interwork\libvcom.a(usbhw_lpc.o)
                              c:/espardino_tmp/bin/../lib/gcc/arm-elf/4.4.0/../../../../arm-elf/lib/thumb/interwork\libvcom.a(main_serial.o) (USBHwRegisterEPIntHandler)
c:/espardino_tmp/bin/../lib/gcc/arm-elf/4.4.0/../../../../arm-elf/lib/thumb/interwork\libvcom.a(usbcontrol.o)
                              c:/espardino_tmp/bin/../lib/gcc/arm-elf/4.4.0/../../../../arm-elf/lib/thumb/interwork\libvcom.a(main_serial.o) (USBRegisterRequestHandler)
c:/espardino_tmp/bin/../lib/gcc/arm-elf/4.4.0/../../../../arm-elf/lib/thumb/interwork\libvcom.a(usbstdreq.o)
                              c:/espardino_tmp/bin/../lib/gcc/arm-elf/4.4.0/../../../../arm-elf/lib/thumb/interwork\libvcom.a(main_serial.o) (USBRegisterDescriptors)
c:/espardino_tmp/bin/../lib/gcc/arm-elf/4.4.0/../../../../arm-elf/lib/thumb/interwork\libvcom.a(usbinit.o)
                              c:/espardino_tmp/bin/../lib/gcc/arm-elf/4.4.0/../../../../arm-elf/lib/thumb/interwork\libvcom.a(main_serial.o) (USBInit)
c:/espardino_tmp/bin/../lib/gcc/arm-elf/4.4.0/../../../../arm-elf/lib/thumb/interwork\libvcom.a(serial_fifo.o)
                              c:/espardino_tmp/bin/../lib/gcc/arm-elf/4.4.0/../../../../arm-elf/lib/thumb/interwork\libvcom.a(main_serial.o) (fifo_init)
c:/espardino_tmp/bin/../lib/gcc/arm-elf/4.4.0/../../../../arm-elf/lib/thumb/interwork\libvcom.a(armVIC.o)
                              c:/espardino_tmp/bin/../lib/gcc/arm-elf/4.4.0/../../../../arm-elf/lib/thumb/interwork\libvcom.a(main_serial.o) (enableIRQ)
c:/espardino_tmp/bin/../lib/gcc/arm-elf/4.4.0/../../../../arm-elf/lib\libmicro214x.a(leds.o)
                              main.o (LEDS_init)
c:/espardino_tmp/bin/../lib/gcc/arm-elf/4.4.0/../../../../arm-elf/lib\libmicro214x.a(adc.o)
                              c:/espardino_tmp/bin/../lib/gcc/arm-elf/4.4.0/../../../../arm-elf/lib\liblua.a(lualib.o) (ADC_read)
c:/espardino_tmp/bin/../lib/gcc/arm-elf/4.4.0/../../../../arm-elf/lib\libmicro214x.a(sysclocks.o)
                              c:/espardino_tmp/bin/../lib/gcc/arm-elf/4.4.0/../../../../arm-elf/lib\liblua.a(lualib.o) (VPB_get_speed)
c:/espardino_tmp/bin/../lib/gcc/arm-elf/4.4.0/../../../../arm-elf/lib\libmicro214x.a(iolib.o)
                              c:/espardino_tmp/bin/../lib/gcc/arm-elf/4.4.0/../../../../arm-elf/lib\liblua.a(lualib.o) (IO_input)
c:/espardino_tmp/bin/../lib/gcc/arm-elf/4.4.0/../../../../arm-elf/lib\libmicro214x.a(rtc.o)
                              c:/espardino_tmp/bin/../lib/gcc/arm-elf/4.4.0/../../../../arm-elf/lib/thumb/interwork\libffs.a(fattime.o) (RTC_get)
c:/espardino_tmp/bin/../lib/gcc/arm-elf/4.4.0/../../../../arm-elf/lib\libmicro214x.a(miniprintf.o)
                              main.o (xprintf_output)
c:/espardino_tmp/bin/../lib/gcc/arm-elf/4.4.0/../../../../arm-elf/lib/thumb/interwork\libm.a(lib_a-s_atan.o)
                              c:/espardino_tmp/bin/../lib/gcc/arm-elf/4.4.0/../../../../arm-elf/lib\liblua.a(all.o) (atan)
c:/espardino_tmp/bin/../lib/gcc/arm-elf/4.4.0/../../../../arm-elf/lib/thumb/interwork\libm.a(lib_a-s_ceil.o)
                              c:/espardino_tmp/bin/../lib/gcc/arm-elf/4.4.0/../../../../arm-elf/lib\liblua.a(all.o) (ceil)
c:/espardino_tmp/bin/../lib/gcc/arm-elf/4.4.0/../../../../arm-elf/lib/thumb/interwork\libm.a(lib_a-s_cos.o)
                              c:/espardino_tmp/bin/../lib/gcc/arm-elf/4.4.0/../../../../arm-elf/lib\liblua.a(all.o) (cos)
c:/espardino_tmp/bin/../lib/gcc/arm-elf/4.4.0/../../../../arm-elf/lib/thumb/interwork\libm.a(lib_a-s_fabs.o)
                              c:/espardino_tmp/bin/../lib/gcc/arm-elf/4.4.0/../../../../arm-elf/lib/thumb/interwork\libm.a(lib_a-s_atan.o) (fabs)
c:/espardino_tmp/bin/../lib/gcc/arm-elf/4.4.0/../../../../arm-elf/lib/thumb/interwork\libm.a(lib_a-s_floor.o)
                              c:/espardino_tmp/bin/../lib/gcc/arm-elf/4.4.0/../../../../arm-elf/lib\liblua.a(all.o) (floor)
c:/espardino_tmp/bin/../lib/gcc/arm-elf/4.4.0/../../../../arm-elf/lib/thumb/interwork\libm.a(lib_a-s_frexp.o)
                              c:/espardino_tmp/bin/../lib/gcc/arm-elf/4.4.0/../../../../arm-elf/lib\liblua.a(all.o) (frexp)
c:/espardino_tmp/bin/../lib/gcc/arm-elf/4.4.0/../../../../arm-elf/lib/thumb/interwork\libm.a(lib_a-s_ldexp.o)
                              c:/espardino_tmp/bin/../lib/gcc/arm-elf/4.4.0/../../../../arm-elf/lib\liblua.a(all.o) (ldexp)
c:/espardino_tmp/bin/../lib/gcc/arm-elf/4.4.0/../../../../arm-elf/lib/thumb/interwork\libm.a(lib_a-s_modf.o)
                              c:/espardino_tmp/bin/../lib/gcc/arm-elf/4.4.0/../../../../arm-elf/lib\liblua.a(all.o) (modf)
c:/espardino_tmp/bin/../lib/gcc/arm-elf/4.4.0/../../../../arm-elf/lib/thumb/interwork\libm.a(lib_a-s_scalbn.o)
                              c:/espardino_tmp/bin/../lib/gcc/arm-elf/4.4.0/../../../../arm-elf/lib/thumb/interwork\libm.a(lib_a-s_ldexp.o) (scalbn)
c:/espardino_tmp/bin/../lib/gcc/arm-elf/4.4.0/../../../../arm-elf/lib/thumb/interwork\libm.a(lib_a-s_sin.o)
                              c:/espardino_tmp/bin/../lib/gcc/arm-elf/4.4.0/../../../../arm-elf/lib\liblua.a(all.o) (sin)
c:/espardino_tmp/bin/../lib/gcc/arm-elf/4.4.0/../../../../arm-elf/lib/thumb/interwork\libm.a(lib_a-s_tan.o)
                              c:/espardino_tmp/bin/../lib/gcc/arm-elf/4.4.0/../../../../arm-elf/lib\liblua.a(all.o) (tan)
c:/espardino_tmp/bin/../lib/gcc/arm-elf/4.4.0/../../../../arm-elf/lib/thumb/interwork\libm.a(lib_a-s_tanh.o)
                              c:/espardino_tmp/bin/../lib/gcc/arm-elf/4.4.0/../../../../arm-elf/lib\liblua.a(all.o) (tanh)
c:/espardino_tmp/bin/../lib/gcc/arm-elf/4.4.0/../../../../arm-elf/lib/thumb/interwork\libm.a(lib_a-w_acos.o)
                              c:/espardino_tmp/bin/../lib/gcc/arm-elf/4.4.0/../../../../arm-elf/lib\liblua.a(all.o) (acos)
c:/espardino_tmp/bin/../lib/gcc/arm-elf/4.4.0/../../../../arm-elf/lib/thumb/interwork\libm.a(lib_a-w_asin.o)
                              c:/espardino_tmp/bin/../lib/gcc/arm-elf/4.4.0/../../../../arm-elf/lib\liblua.a(all.o) (asin)
c:/espardino_tmp/bin/../lib/gcc/arm-elf/4.4.0/../../../../arm-elf/lib/thumb/interwork\libm.a(lib_a-w_atan2.o)
                              c:/espardino_tmp/bin/../lib/gcc/arm-elf/4.4.0/../../../../arm-elf/lib\liblua.a(all.o) (atan2)
c:/espardino_tmp/bin/../lib/gcc/arm-elf/4.4.0/../../../../arm-elf/lib/thumb/interwork\libm.a(lib_a-w_cosh.o)
                              c:/espardino_tmp/bin/../lib/gcc/arm-elf/4.4.0/../../../../arm-elf/lib\liblua.a(all.o) (cosh)
c:/espardino_tmp/bin/../lib/gcc/arm-elf/4.4.0/../../../../arm-elf/lib/thumb/interwork\libm.a(lib_a-w_exp.o)
                              c:/espardino_tmp/bin/../lib/gcc/arm-elf/4.4.0/../../../../arm-elf/lib\liblua.a(all.o) (exp)
c:/espardino_tmp/bin/../lib/gcc/arm-elf/4.4.0/../../../../arm-elf/lib/thumb/interwork\libm.a(lib_a-w_fmod.o)
                              c:/espardino_tmp/bin/../lib/gcc/arm-elf/4.4.0/../../../../arm-elf/lib\liblua.a(all.o) (fmod)
c:/espardino_tmp/bin/../lib/gcc/arm-elf/4.4.0/../../../../arm-elf/lib/thumb/interwork\libm.a(lib_a-w_log.o)
                              c:/espardino_tmp/bin/../lib/gcc/arm-elf/4.4.0/../../../../arm-elf/lib\liblua.a(all.o) (log)
c:/espardino_tmp/bin/../lib/gcc/arm-elf/4.4.0/../../../../arm-elf/lib/thumb/interwork\libm.a(lib_a-w_log10.o)
                              c:/espardino_tmp/bin/../lib/gcc/arm-elf/4.4.0/../../../../arm-elf/lib\liblua.a(all.o) (log10)
c:/espardino_tmp/bin/../lib/gcc/arm-elf/4.4.0/../../../../arm-elf/lib/thumb/interwork\libm.a(lib_a-w_pow.o)
                              c:/espardino_tmp/bin/../lib/gcc/arm-elf/4.4.0/../../../../arm-elf/lib\liblua.a(all.o) (pow)
c:/espardino_tmp/bin/../lib/gcc/arm-elf/4.4.0/../../../../arm-elf/lib/thumb/interwork\libm.a(lib_a-w_sinh.o)
                              c:/espardino_tmp/bin/../lib/gcc/arm-elf/4.4.0/../../../../arm-elf/lib\liblua.a(all.o) (sinh)
c:/espardino_tmp/bin/../lib/gcc/arm-elf/4.4.0/../../../../arm-elf/lib/thumb/interwork\libm.a(lib_a-w_sqrt.o)
                              c:/espardino_tmp/bin/../lib/gcc/arm-elf/4.4.0/../../../../arm-elf/lib\liblua.a(all.o) (sqrt)
c:/espardino_tmp/bin/../lib/gcc/arm-elf/4.4.0/../../../../arm-elf/lib/thumb/interwork\libm.a(lib_a-e_acos.o)
                              c:/espardino_tmp/bin/../lib/gcc/arm-elf/4.4.0/../../../../arm-elf/lib/thumb/interwork\libm.a(lib_a-w_acos.o) (__ieee754_acos)
c:/espardino_tmp/bin/../lib/gcc/arm-elf/4.4.0/../../../../arm-elf/lib/thumb/interwork\libm.a(lib_a-e_asin.o)
                              c:/espardino_tmp/bin/../lib/gcc/arm-elf/4.4.0/../../../../arm-elf/lib/thumb/interwork\libm.a(lib_a-w_asin.o) (__ieee754_asin)
c:/espardino_tmp/bin/../lib/gcc/arm-elf/4.4.0/../../../../arm-elf/lib/thumb/interwork\libm.a(lib_a-e_atan2.o)
                              c:/espardino_tmp/bin/../lib/gcc/arm-elf/4.4.0/../../../../arm-elf/lib/thumb/interwork\libm.a(lib_a-w_atan2.o) (__ieee754_atan2)
c:/espardino_tmp/bin/../lib/gcc/arm-elf/4.4.0/../../../../arm-elf/lib/thumb/interwork\libm.a(lib_a-e_cosh.o)
                              c:/espardino_tmp/bin/../lib/gcc/arm-elf/4.4.0/../../../../arm-elf/lib/thumb/interwork\libm.a(lib_a-w_cosh.o) (__ieee754_cosh)
c:/espardino_tmp/bin/../lib/gcc/arm-elf/4.4.0/../../../../arm-elf/lib/thumb/interwork\libm.a(lib_a-e_exp.o)
                              c:/espardino_tmp/bin/../lib/gcc/arm-elf/4.4.0/../../../../arm-elf/lib/thumb/interwork\libm.a(lib_a-w_exp.o) (__ieee754_exp)
c:/espardino_tmp/bin/../lib/gcc/arm-elf/4.4.0/../../../../arm-elf/lib/thumb/interwork\libm.a(lib_a-e_fmod.o)
                              c:/espardino_tmp/bin/../lib/gcc/arm-elf/4.4.0/../../../../arm-elf/lib/thumb/interwork\libm.a(lib_a-w_fmod.o) (__ieee754_fmod)
c:/espardino_tmp/bin/../lib/gcc/arm-elf/4.4.0/../../../../arm-elf/lib/thumb/interwork\libm.a(lib_a-e_log.o)
                              c:/espardino_tmp/bin/../lib/gcc/arm-elf/4.4.0/../../../../arm-elf/lib/thumb/interwork\libm.a(lib_a-w_log.o) (__ieee754_log)
c:/espardino_tmp/bin/../lib/gcc/arm-elf/4.4.0/../../../../arm-elf/lib/thumb/interwork\libm.a(lib_a-e_log10.o)
                              c:/espardino_tmp/bin/../lib/gcc/arm-elf/4.4.0/../../../../arm-elf/lib/thumb/interwork\libm.a(lib_a-w_log10.o) (__ieee754_log10)
c:/espardino_tmp/bin/../lib/gcc/arm-elf/4.4.0/../../../../arm-elf/lib/thumb/interwork\libm.a(lib_a-e_pow.o)
                              c:/espardino_tmp/bin/../lib/gcc/arm-elf/4.4.0/../../../../arm-elf/lib/thumb/interwork\libm.a(lib_a-w_pow.o) (__ieee754_pow)
c:/espardino_tmp/bin/../lib/gcc/arm-elf/4.4.0/../../../../arm-elf/lib/thumb/interwork\libm.a(lib_a-e_rem_pio2.o)
                              c:/espardino_tmp/bin/../lib/gcc/arm-elf/4.4.0/../../../../arm-elf/lib/thumb/interwork\libm.a(lib_a-s_cos.o) (__ieee754_rem_pio2)
c:/espardino_tmp/bin/../lib/gcc/arm-elf/4.4.0/../../../../arm-elf/lib/thumb/interwork\libm.a(lib_a-e_sinh.o)
                              c:/espardino_tmp/bin/../lib/gcc/arm-elf/4.4.0/../../../../arm-elf/lib/thumb/interwork\libm.a(lib_a-w_sinh.o) (__ieee754_sinh)
c:/espardino_tmp/bin/../lib/gcc/arm-elf/4.4.0/../../../../arm-elf/lib/thumb/interwork\libm.a(lib_a-e_sqrt.o)
                              c:/espardino_tmp/bin/../lib/gcc/arm-elf/4.4.0/../../../../arm-elf/lib/thumb/interwork\libm.a(lib_a-w_sqrt.o) (__ieee754_sqrt)
c:/espardino_tmp/bin/../lib/gcc/arm-elf/4.4.0/../../../../arm-elf/lib/thumb/interwork\libm.a(lib_a-k_cos.o)
                              c:/espardino_tmp/bin/../lib/gcc/arm-elf/4.4.0/../../../../arm-elf/lib/thumb/interwork\libm.a(lib_a-s_cos.o) (__kernel_cos)
c:/espardino_tmp/bin/../lib/gcc/arm-elf/4.4.0/../../../../arm-elf/lib/thumb/interwork\libm.a(lib_a-k_rem_pio2.o)
                              c:/espardino_tmp/bin/../lib/gcc/arm-elf/4.4.0/../../../../arm-elf/lib/thumb/interwork\libm.a(lib_a-e_rem_pio2.o) (__kernel_rem_pio2)
c:/espardino_tmp/bin/../lib/gcc/arm-elf/4.4.0/../../../../arm-elf/lib/thumb/interwork\libm.a(lib_a-k_sin.o)
                              c:/espardino_tmp/bin/../lib/gcc/arm-elf/4.4.0/../../../../arm-elf/lib/thumb/interwork\libm.a(lib_a-s_cos.o) (__kernel_sin)
c:/espardino_tmp/bin/../lib/gcc/arm-elf/4.4.0/../../../../arm-elf/lib/thumb/interwork\libm.a(lib_a-k_tan.o)
                              c:/espardino_tmp/bin/../lib/gcc/arm-elf/4.4.0/../../../../arm-elf/lib/thumb/interwork\libm.a(lib_a-s_tan.o) (__kernel_tan)
c:/espardino_tmp/bin/../lib/gcc/arm-elf/4.4.0/../../../../arm-elf/lib/thumb/interwork\libm.a(lib_a-s_copysign.o)
                              c:/espardino_tmp/bin/../lib/gcc/arm-elf/4.4.0/../../../../arm-elf/lib/thumb/interwork\libm.a(lib_a-s_scalbn.o) (copysign)
c:/espardino_tmp/bin/../lib/gcc/arm-elf/4.4.0/../../../../arm-elf/lib/thumb/interwork\libm.a(lib_a-s_expm1.o)
                              c:/espardino_tmp/bin/../lib/gcc/arm-elf/4.4.0/../../../../arm-elf/lib/thumb/interwork\libm.a(lib_a-s_tanh.o) (expm1)
c:/espardino_tmp/bin/../lib/gcc/arm-elf/4.4.0/../../../../arm-elf/lib/thumb/interwork\libm.a(lib_a-s_finite.o)
                              c:/espardino_tmp/bin/../lib/gcc/arm-elf/4.4.0/../../../../arm-elf/lib/thumb/interwork\libm.a(lib_a-s_ldexp.o) (finite)
c:/espardino_tmp/bin/../lib/gcc/arm-elf/4.4.0/../../../../arm-elf/lib/thumb/interwork\libm.a(lib_a-s_isnand.o)
                              c:/espardino_tmp/bin/../lib/gcc/arm-elf/4.4.0/../../../../arm-elf/lib/thumb/interwork\libm.a(lib_a-w_acos.o) (__isnand)
c:/espardino_tmp/bin/../lib/gcc/arm-elf/4.4.0/../../../../arm-elf/lib/thumb/interwork\libm.a(lib_a-s_lib_ver.o)
                              c:/espardino_tmp/bin/../lib/gcc/arm-elf/4.4.0/../../../../arm-elf/lib/thumb/interwork\libm.a(lib_a-w_acos.o) (__fdlib_version)
c:/espardino_tmp/bin/../lib/gcc/arm-elf/4.4.0/../../../../arm-elf/lib/thumb/interwork\libm.a(lib_a-s_matherr.o)
                              c:/espardino_tmp/bin/../lib/gcc/arm-elf/4.4.0/../../../../arm-elf/lib/thumb/interwork\libm.a(lib_a-w_acos.o) (matherr)
c:/espardino_tmp/bin/../lib/gcc/arm-elf/4.4.0/../../../../arm-elf/lib/thumb/interwork\libm.a(lib_a-s_nan.o)
                              c:/espardino_tmp/bin/../lib/gcc/arm-elf/4.4.0/../../../../arm-elf/lib/thumb/interwork\libm.a(lib_a-w_acos.o) (nan)
c:/espardino_tmp/bin/../lib/gcc/arm-elf/4.4.0/../../../../arm-elf/lib/thumb/interwork\libm.a(lib_a-s_rint.o)
                              c:/espardino_tmp/bin/../lib/gcc/arm-elf/4.4.0/../../../../arm-elf/lib/thumb/interwork\libm.a(lib_a-w_pow.o) (rint)
c:/espardino_tmp/bin/../lib/gcc/arm-elf/4.4.0/thumb/interwork\libgcc.a(_udivsi3.o)
                              c:/espardino_tmp/bin/../lib/gcc/arm-elf/4.4.0/../../../../arm-elf/lib\liblua.a(all.o) (__udivsi3)
c:/espardino_tmp/bin/../lib/gcc/arm-elf/4.4.0/thumb/interwork\libgcc.a(_divsi3.o)
                              c:/espardino_tmp/bin/../lib/gcc/arm-elf/4.4.0/../../../../arm-elf/lib\liblua.a(lualib.o) (__divsi3)
c:/espardino_tmp/bin/../lib/gcc/arm-elf/4.4.0/thumb/interwork\libgcc.a(_umodsi3.o)
                              c:/espardino_tmp/bin/../lib/gcc/arm-elf/4.4.0/../../../../arm-elf/lib\liblua.a(all.o) (__umodsi3)
c:/espardino_tmp/bin/../lib/gcc/arm-elf/4.4.0/thumb/interwork\libgcc.a(_modsi3.o)
                              c:/espardino_tmp/bin/../lib/gcc/arm-elf/4.4.0/../../../../arm-elf/lib\liblua.a(all.o) (__modsi3)
c:/espardino_tmp/bin/../lib/gcc/arm-elf/4.4.0/thumb/interwork\libgcc.a(_dvmd_tls.o)
                              c:/espardino_tmp/bin/../lib/gcc/arm-elf/4.4.0/thumb/interwork\libgcc.a(_udivsi3.o) (__div0)
c:/espardino_tmp/bin/../lib/gcc/arm-elf/4.4.0/thumb/interwork\libgcc.a(_arm_muldivdf3.o)
                              c:/espardino_tmp/bin/../lib/gcc/arm-elf/4.4.0/../../../../arm-elf/lib\liblua.a(lualib.o) (__muldf3)
c:/espardino_tmp/bin/../lib/gcc/arm-elf/4.4.0/thumb/interwork\libgcc.a(_arm_cmpdf2.o)
                              c:/espardino_tmp/bin/../lib/gcc/arm-elf/4.4.0/../../../../arm-elf/lib\liblua.a(all.o) (__gtdf2)
c:/espardino_tmp/bin/../lib/gcc/arm-elf/4.4.0/thumb/interwork\libgcc.a(_arm_fixdfsi.o)
                              c:/espardino_tmp/bin/../lib/gcc/arm-elf/4.4.0/../../../../arm-elf/lib\liblua.a(lualib.o) (__fixdfsi)
c:/espardino_tmp/bin/../lib/gcc/arm-elf/4.4.0/thumb/interwork\libgcc.a(_arm_fixunsdfsi.o)
                              c:/espardino_tmp/bin/../lib/gcc/arm-elf/4.4.0/../../../../arm-elf/lib\liblua.a(lualib.o) (__fixunsdfsi)
c:/espardino_tmp/bin/../lib/gcc/arm-elf/4.4.0/../../../../arm-elf/lib/thumb/interwork\libg.a(lib_a-ctype_.o)
                              c:/espardino_tmp/bin/../lib/gcc/arm-elf/4.4.0/../../../../arm-elf/lib\liblua.a(all.o) (__ctype_ptr__)
c:/espardino_tmp/bin/../lib/gcc/arm-elf/4.4.0/../../../../arm-elf/lib/thumb/interwork\libg.a(lib_a-errno.o)
                              c:/espardino_tmp/bin/../lib/gcc/arm-elf/4.4.0/../../../../arm-elf/lib\liblua.a(all.o) (__errno)
c:/espardino_tmp/bin/../lib/gcc/arm-elf/4.4.0/../../../../arm-elf/lib/thumb/interwork\libg.a(lib_a-impure.o)
                              c:/espardino_tmp/bin/../lib/gcc/arm-elf/4.4.0/../../../../arm-elf/lib/thumb/interwork\libg.a(lib_a-errno.o) (_impure_ptr)
c:/espardino_tmp/bin/../lib/gcc/arm-elf/4.4.0/../../../../arm-elf/lib/thumb/interwork\libg.a(lib_a-locale.o)
                              c:/espardino_tmp/bin/../lib/gcc/arm-elf/4.4.0/../../../../arm-elf/lib\liblua.a(all.o) (localeconv)
c:/espardino_tmp/bin/../lib/gcc/arm-elf/4.4.0/../../../../arm-elf/lib/thumb/interwork\libg.a(lib_a-malloc.o)
                              c:/espardino_tmp/bin/../lib/gcc/arm-elf/4.4.0/../../../../arm-elf/lib\liblua.a(lua_io_wrappers.o) (free)
c:/espardino_tmp/bin/../lib/gcc/arm-elf/4.4.0/../../../../arm-elf/lib/thumb/interwork\libg.a(lib_a-mallocr.o)
                              c:/espardino_tmp/bin/../lib/gcc/arm-elf/4.4.0/../../../../arm-elf/lib/thumb/interwork\libg.a(lib_a-malloc.o) (_malloc_r)
c:/espardino_tmp/bin/../lib/gcc/arm-elf/4.4.0/../../../../arm-elf/lib/thumb/interwork\libg.a(lib_a-memcmp.o)
                              c:/espardino_tmp/bin/../lib/gcc/arm-elf/4.4.0/../../../../arm-elf/lib\liblua.a(all.o) (memcmp)
c:/espardino_tmp/bin/../lib/gcc/arm-elf/4.4.0/../../../../arm-elf/lib/thumb/interwork\libg.a(lib_a-memcpy.o)
                              c:/espardino_tmp/bin/../lib/gcc/arm-elf/4.4.0/../../../../arm-elf/lib\liblua.a(lualib.o) (memcpy)
c:/espardino_tmp/bin/../lib/gcc/arm-elf/4.4.0/../../../../arm-elf/lib/thumb/interwork\libg.a(lib_a-mlock.o)
                              c:/espardino_tmp/bin/../lib/gcc/arm-elf/4.4.0/../../../../arm-elf/lib/thumb/interwork\libg.a(lib_a-mallocr.o) (__malloc_lock)
c:/espardino_tmp/bin/../lib/gcc/arm-elf/4.4.0/../../../../arm-elf/lib/thumb/interwork\libg.a(lib_a-rand.o)
                              c:/espardino_tmp/bin/../lib/gcc/arm-elf/4.4.0/../../../../arm-elf/lib\liblua.a(all.o) (srand)
c:/espardino_tmp/bin/../lib/gcc/arm-elf/4.4.0/../../../../arm-elf/lib/thumb/interwork\libg.a(lib_a-realloc.o)
                              c:/espardino_tmp/bin/../lib/gcc/arm-elf/4.4.0/../../../../arm-elf/lib\liblua.a(all.o) (realloc)
c:/espardino_tmp/bin/../lib/gcc/arm-elf/4.4.0/../../../../arm-elf/lib/thumb/interwork\libg.a(lib_a-reallocr.o)
                              c:/espardino_tmp/bin/../lib/gcc/arm-elf/4.4.0/../../../../arm-elf/lib/thumb/interwork\libg.a(lib_a-realloc.o) (_realloc_r)
c:/espardino_tmp/bin/../lib/gcc/arm-elf/4.4.0/../../../../arm-elf/lib/thumb/interwork\libg.a(lib_a-sbrkr.o)
                              c:/espardino_tmp/bin/../lib/gcc/arm-elf/4.4.0/../../../../arm-elf/lib/thumb/interwork\libg.a(lib_a-mallocr.o) (_sbrk_r)
c:/espardino_tmp/bin/../lib/gcc/arm-elf/4.4.0/../../../../arm-elf/lib/thumb/interwork\libg.a(lib_a-setjmp.o)
                              c:/espardino_tmp/bin/../lib/gcc/arm-elf/4.4.0/../../../../arm-elf/lib\liblua.a(all.o) (setjmp)
c:/espardino_tmp/bin/../lib/gcc/arm-elf/4.4.0/../../../../arm-elf/lib/thumb/interwork\libg.a(lib_a-strcat.o)
                              c:/espardino_tmp/bin/../lib/gcc/arm-elf/4.4.0/../../../../arm-elf/lib\liblua.a(all.o) (strcat)
c:/espardino_tmp/bin/../lib/gcc/arm-elf/4.4.0/../../../../arm-elf/lib/thumb/interwork\libg.a(lib_a-strchr.o)
                              c:/espardino_tmp/bin/../lib/gcc/arm-elf/4.4.0/../../../../arm-elf/lib\liblua.a(all.o) (strchr)
c:/espardino_tmp/bin/../lib/gcc/arm-elf/4.4.0/../../../../arm-elf/lib/thumb/interwork\libg.a(lib_a-strcmp.o)
                              c:/espardino_tmp/bin/../lib/gcc/arm-elf/4.4.0/../../../../arm-elf/lib\liblua.a(all.o) (strcmp)
c:/espardino_tmp/bin/../lib/gcc/arm-elf/4.4.0/../../../../arm-elf/lib/thumb/interwork\libg.a(lib_a-strcoll.o)
                              c:/espardino_tmp/bin/../lib/gcc/arm-elf/4.4.0/../../../../arm-elf/lib\liblua.a(all.o) (strcoll)
c:/espardino_tmp/bin/../lib/gcc/arm-elf/4.4.0/../../../../arm-elf/lib/thumb/interwork\libg.a(lib_a-strcpy.o)
                              c:/espardino_tmp/bin/../lib/gcc/arm-elf/4.4.0/../../../../arm-elf/lib\liblua.a(all.o) (strcpy)
c:/espardino_tmp/bin/../lib/gcc/arm-elf/4.4.0/../../../../arm-elf/lib/thumb/interwork\libg.a(lib_a-strcspn.o)
                              c:/espardino_tmp/bin/../lib/gcc/arm-elf/4.4.0/../../../../arm-elf/lib\liblua.a(all.o) (strcspn)
c:/espardino_tmp/bin/../lib/gcc/arm-elf/4.4.0/../../../../arm-elf/lib/thumb/interwork\libg.a(lib_a-strlen.o)
                              c:/espardino_tmp/bin/../lib/gcc/arm-elf/4.4.0/../../../../arm-elf/lib\liblua.a(lualib_console.o) (strlen)
c:/espardino_tmp/bin/../lib/gcc/arm-elf/4.4.0/../../../../arm-elf/lib/thumb/interwork\libg.a(lib_a-strncat.o)
                              c:/espardino_tmp/bin/../lib/gcc/arm-elf/4.4.0/../../../../arm-elf/lib\liblua.a(all.o) (strncat)
c:/espardino_tmp/bin/../lib/gcc/arm-elf/4.4.0/../../../../arm-elf/lib/thumb/interwork\libg.a(lib_a-strncpy.o)
                              c:/espardino_tmp/bin/../lib/gcc/arm-elf/4.4.0/../../../../arm-elf/lib\liblua.a(all.o) (strncpy)
c:/espardino_tmp/bin/../lib/gcc/arm-elf/4.4.0/../../../../arm-elf/lib/thumb/interwork\libg.a(lib_a-strstr.o)
                              c:/espardino_tmp/bin/../lib/gcc/arm-elf/4.4.0/../../../../arm-elf/lib\liblua.a(lualib_console.o) (strstr)
c:/espardino_tmp/bin/../lib/gcc/arm-elf/4.4.0/../../../../arm-elf/lib/thumb/interwork\libg.a(lib_a-strtod.o)
                              c:/espardino_tmp/bin/../lib/gcc/arm-elf/4.4.0/../../../../arm-elf/lib\liblua.a(all.o) (strtod)
c:/espardino_tmp/bin/../lib/gcc/arm-elf/4.4.0/../../../../arm-elf/lib/thumb/interwork\libg.a(lib_a-strtoul.o)
                              c:/espardino_tmp/bin/../lib/gcc/arm-elf/4.4.0/../../../../arm-elf/lib\liblua.a(all.o) (strtoul)
c:/espardino_tmp/bin/../lib/gcc/arm-elf/4.4.0/../../../../arm-elf/lib/thumb/interwork\libg.a(lib_a-syscalls.o)
                              c:/espardino_tmp/bin/../lib/gcc/arm-elf/4.4.0/../../../../arm-elf/lib/thumb/interwork\libg.a(lib_a-sbrkr.o) (_sbrk)
c:/espardino_tmp/bin/../lib/gcc/arm-elf/4.4.0/../../../../arm-elf/lib/thumb/interwork\libg.a(lib_a-tmpfile.o)
                              c:/espardino_tmp/bin/../lib/gcc/arm-elf/4.4.0/../../../../arm-elf/lib\liblua.a(all.o) (tmpfile)
c:/espardino_tmp/bin/../lib/gcc/arm-elf/4.4.0/../../../../arm-elf/lib/thumb/interwork\libg.a(lib_a-tmpnam.o)
                              c:/espardino_tmp/bin/../lib/gcc/arm-elf/4.4.0/../../../../arm-elf/lib/thumb/interwork\libg.a(lib_a-tmpfile.o) (_tmpnam_r)
c:/espardino_tmp/bin/../lib/gcc/arm-elf/4.4.0/../../../../arm-elf/lib/thumb/interwork\libg.a(lib_a-closer.o)
                              c:/espardino_tmp/bin/../lib/gcc/arm-elf/4.4.0/../../../../arm-elf/lib/thumb/interwork\libg.a(lib_a-tmpfile.o) (_close_r)
c:/espardino_tmp/bin/../lib/gcc/arm-elf/4.4.0/../../../../arm-elf/lib/thumb/interwork\libg.a(lib_a-fdopen.o)
                              c:/espardino_tmp/bin/../lib/gcc/arm-elf/4.4.0/../../../../arm-elf/lib/thumb/interwork\libg.a(lib_a-tmpfile.o) (_fdopen_r)
c:/espardino_tmp/bin/../lib/gcc/arm-elf/4.4.0/../../../../arm-elf/lib/thumb/interwork\libg.a(lib_a-findfp.o)
                              c:/espardino_tmp/bin/../lib/gcc/arm-elf/4.4.0/../../../../arm-elf/lib/thumb/interwork\libg.a(lib_a-syscalls.o) (__sinit)
c:/espardino_tmp/bin/../lib/gcc/arm-elf/4.4.0/../../../../arm-elf/lib/thumb/interwork\libg.a(lib_a-flags.o)
                              c:/espardino_tmp/bin/../lib/gcc/arm-elf/4.4.0/../../../../arm-elf/lib/thumb/interwork\libg.a(lib_a-fdopen.o) (__sflags)
c:/espardino_tmp/bin/../lib/gcc/arm-elf/4.4.0/../../../../arm-elf/lib/thumb/interwork\libg.a(lib_a-freer.o)
                              c:/espardino_tmp/bin/../lib/gcc/arm-elf/4.4.0/../../../../arm-elf/lib/thumb/interwork\libg.a(lib_a-malloc.o) (_free_r)
c:/espardino_tmp/bin/../lib/gcc/arm-elf/4.4.0/../../../../arm-elf/lib/thumb/interwork\libg.a(lib_a-fwalk.o)
                              c:/espardino_tmp/bin/../lib/gcc/arm-elf/4.4.0/../../../../arm-elf/lib/thumb/interwork\libg.a(lib_a-findfp.o) (_fwalk)
c:/espardino_tmp/bin/../lib/gcc/arm-elf/4.4.0/../../../../arm-elf/lib/thumb/interwork\libg.a(lib_a-gdtoa-gethex.o)
                              c:/espardino_tmp/bin/../lib/gcc/arm-elf/4.4.0/../../../../arm-elf/lib/thumb/interwork\libg.a(lib_a-strtod.o) (__gethex)
c:/espardino_tmp/bin/../lib/gcc/arm-elf/4.4.0/../../../../arm-elf/lib/thumb/interwork\libg.a(lib_a-gdtoa-hexnan.o)
                              c:/espardino_tmp/bin/../lib/gcc/arm-elf/4.4.0/../../../../arm-elf/lib/thumb/interwork\libg.a(lib_a-strtod.o) (__hexnan)
c:/espardino_tmp/bin/../lib/gcc/arm-elf/4.4.0/../../../../arm-elf/lib/thumb/interwork\libg.a(lib_a-getenv.o)
                              c:/espardino_tmp/bin/../lib/gcc/arm-elf/4.4.0/../../../../arm-elf/lib/thumb/interwork\libg.a(lib_a-tmpnam.o) (getenv)
c:/espardino_tmp/bin/../lib/gcc/arm-elf/4.4.0/../../../../arm-elf/lib/thumb/interwork\libg.a(lib_a-getenv_r.o)
                              c:/espardino_tmp/bin/../lib/gcc/arm-elf/4.4.0/../../../../arm-elf/lib/thumb/interwork\libg.a(lib_a-getenv.o) (_findenv_r)
c:/espardino_tmp/bin/../lib/gcc/arm-elf/4.4.0/../../../../arm-elf/lib/thumb/interwork\libg.a(lib_a-memchr.o)
                              c:/espardino_tmp/bin/../lib/gcc/arm-elf/4.4.0/../../../../arm-elf/lib/thumb/interwork\libg.a(lib_a-strstr.o) (memchr)
c:/espardino_tmp/bin/../lib/gcc/arm-elf/4.4.0/../../../../arm-elf/lib/thumb/interwork\libg.a(lib_a-memmove.o)
                              c:/espardino_tmp/bin/../lib/gcc/arm-elf/4.4.0/../../../../arm-elf/lib/thumb/interwork\libg.a(lib_a-reallocr.o) (memmove)
c:/espardino_tmp/bin/../lib/gcc/arm-elf/4.4.0/../../../../arm-elf/lib/thumb/interwork\libg.a(lib_a-memset.o)
                              c:/espardino_tmp/bin/../lib/gcc/arm-elf/4.4.0/../../../../arm-elf/lib/thumb/interwork\libg.a(lib_a-syscalls.o) (memset)
c:/espardino_tmp/bin/../lib/gcc/arm-elf/4.4.0/../../../../arm-elf/lib/thumb/interwork\libg.a(lib_a-mprec.o)
                              c:/espardino_tmp/bin/../lib/gcc/arm-elf/4.4.0/../../../../arm-elf/lib/thumb/interwork\libg.a(lib_a-strtod.o) (_Bfree)
c:/espardino_tmp/bin/../lib/gcc/arm-elf/4.4.0/../../../../arm-elf/lib/thumb/interwork\libg.a(lib_a-openr.o)
                              c:/espardino_tmp/bin/../lib/gcc/arm-elf/4.4.0/../../../../arm-elf/lib/thumb/interwork\libg.a(lib_a-tmpfile.o) (_open_r)
c:/espardino_tmp/bin/../lib/gcc/arm-elf/4.4.0/../../../../arm-elf/lib/thumb/interwork\libg.a(lib_a-reent.o)
                              c:/espardino_tmp/bin/../lib/gcc/arm-elf/4.4.0/../../../../arm-elf/lib/thumb/interwork\libg.a(lib_a-sbrkr.o) (errno)
c:/espardino_tmp/bin/../lib/gcc/arm-elf/4.4.0/../../../../arm-elf/lib/thumb/interwork\libg.a(lib_a-remove.o)
                              c:/espardino_tmp/bin/../lib/gcc/arm-elf/4.4.0/../../../../arm-elf/lib/thumb/interwork\libg.a(lib_a-tmpfile.o) (_remove_r)
c:/espardino_tmp/bin/../lib/gcc/arm-elf/4.4.0/../../../../arm-elf/lib/thumb/interwork\libg.a(lib_a-sf_nan.o)
                              c:/espardino_tmp/bin/../lib/gcc/arm-elf/4.4.0/../../../../arm-elf/lib/thumb/interwork\libg.a(lib_a-strtod.o) (nanf)
c:/espardino_tmp/bin/../lib/gcc/arm-elf/4.4.0/../../../../arm-elf/lib/thumb/interwork\libg.a(lib_a-signalr.o)
                              c:/espardino_tmp/bin/../lib/gcc/arm-elf/4.4.0/../../../../arm-elf/lib/thumb/interwork\libg.a(lib_a-tmpnam.o) (_getpid_r)
c:/espardino_tmp/bin/../lib/gcc/arm-elf/4.4.0/../../../../arm-elf/lib/thumb/interwork\libg.a(lib_a-sprintf.o)
                              c:/espardino_tmp/bin/../lib/gcc/arm-elf/4.4.0/../../../../arm-elf/lib/thumb/interwork\libg.a(lib_a-tmpnam.o) (_sprintf_r)
c:/espardino_tmp/bin/../lib/gcc/arm-elf/4.4.0/../../../../arm-elf/lib/thumb/interwork\libg.a(lib_a-stdio.o)
                              c:/espardino_tmp/bin/../lib/gcc/arm-elf/4.4.0/../../../../arm-elf/lib/thumb/interwork\libg.a(lib_a-fdopen.o) (__sclose)
c:/espardino_tmp/bin/../lib/gcc/arm-elf/4.4.0/../../../../arm-elf/lib/thumb/interwork\libg.a(lib_a-strncmp.o)
                              c:/espardino_tmp/bin/../lib/gcc/arm-elf/4.4.0/../../../../arm-elf/lib/thumb/interwork\libg.a(lib_a-getenv_r.o) (strncmp)
c:/espardino_tmp/bin/../lib/gcc/arm-elf/4.4.0/../../../../arm-elf/lib/thumb/interwork\libg.a(lib_a-svfprintf.o)
                              c:/espardino_tmp/bin/../lib/gcc/arm-elf/4.4.0/../../../../arm-elf/lib/thumb/interwork\libg.a(lib_a-sprintf.o) (_svfprintf_r)
c:/espardino_tmp/bin/../lib/gcc/arm-elf/4.4.0/../../../../arm-elf/lib/thumb/interwork\libg.a(lib_a-unlinkr.o)
                              c:/espardino_tmp/bin/../lib/gcc/arm-elf/4.4.0/../../../../arm-elf/lib/thumb/interwork\libg.a(lib_a-remove.o) (_unlink_r)
c:/espardino_tmp/bin/../lib/gcc/arm-elf/4.4.0/../../../../arm-elf/lib/thumb/interwork\libg.a(lib_a-writer.o)
                              c:/espardino_tmp/bin/../lib/gcc/arm-elf/4.4.0/../../../../arm-elf/lib/thumb/interwork\libg.a(lib_a-stdio.o) (_write_r)
c:/espardino_tmp/bin/../lib/gcc/arm-elf/4.4.0/../../../../arm-elf/lib/thumb/interwork\libg.a(lib_a-callocr.o)
                              c:/espardino_tmp/bin/../lib/gcc/arm-elf/4.4.0/../../../../arm-elf/lib/thumb/interwork\libg.a(lib_a-mprec.o) (_calloc_r)
c:/espardino_tmp/bin/../lib/gcc/arm-elf/4.4.0/../../../../arm-elf/lib/thumb/interwork\libg.a(lib_a-dtoa.o)
                              c:/espardino_tmp/bin/../lib/gcc/arm-elf/4.4.0/../../../../arm-elf/lib/thumb/interwork\libg.a(lib_a-svfprintf.o) (_dtoa_r)
c:/espardino_tmp/bin/../lib/gcc/arm-elf/4.4.0/../../../../arm-elf/lib/thumb/interwork\libg.a(lib_a-environ.o)
                              c:/espardino_tmp/bin/../lib/gcc/arm-elf/4.4.0/../../../../arm-elf/lib/thumb/interwork\libg.a(lib_a-getenv_r.o) (environ)
c:/espardino_tmp/bin/../lib/gcc/arm-elf/4.4.0/../../../../arm-elf/lib/thumb/interwork\libg.a(lib_a-envlock.o)
                              c:/espardino_tmp/bin/../lib/gcc/arm-elf/4.4.0/../../../../arm-elf/lib/thumb/interwork\libg.a(lib_a-getenv_r.o) (__env_lock)
c:/espardino_tmp/bin/../lib/gcc/arm-elf/4.4.0/../../../../arm-elf/lib/thumb/interwork\libg.a(lib_a-fclose.o)
                              c:/espardino_tmp/bin/../lib/gcc/arm-elf/4.4.0/../../../../arm-elf/lib/thumb/interwork\libg.a(lib_a-findfp.o) (fclose)
c:/espardino_tmp/bin/../lib/gcc/arm-elf/4.4.0/../../../../arm-elf/lib/thumb/interwork\libg.a(lib_a-fflush.o)
                              c:/espardino_tmp/bin/../lib/gcc/arm-elf/4.4.0/../../../../arm-elf/lib/thumb/interwork\libg.a(lib_a-fclose.o) (_fflush_r)
c:/espardino_tmp/bin/../lib/gcc/arm-elf/4.4.0/../../../../arm-elf/lib/thumb/interwork\libg.a(lib_a-lseekr.o)
                              c:/espardino_tmp/bin/../lib/gcc/arm-elf/4.4.0/../../../../arm-elf/lib/thumb/interwork\libg.a(lib_a-stdio.o) (_lseek_r)
c:/espardino_tmp/bin/../lib/gcc/arm-elf/4.4.0/../../../../arm-elf/lib/thumb/interwork\libg.a(lib_a-readr.o)
                              c:/espardino_tmp/bin/../lib/gcc/arm-elf/4.4.0/../../../../arm-elf/lib/thumb/interwork\libg.a(lib_a-stdio.o) (_read_r)
c:/espardino_tmp/bin/../lib/gcc/arm-elf/4.4.0/../../../../arm-elf/lib/thumb/interwork\libg.a(lib_a-s_isinfd.o)
                              c:/espardino_tmp/bin/../lib/gcc/arm-elf/4.4.0/../../../../arm-elf/lib/thumb/interwork\libg.a(lib_a-svfprintf.o) (__isinfd)
c:/espardino_tmp/bin/../lib/gcc/arm-elf/4.4.0/thumb/interwork\libgcc.a(_arm_truncdfsf2.o)
                              c:/espardino_tmp/bin/../lib/gcc/arm-elf/4.4.0/../../../../arm-elf/lib/thumb/interwork\libg.a(lib_a-strtod.o) (__truncdfsf2)
c:/espardino_tmp/bin/../lib/gcc/arm-elf/4.4.0/thumb/interwork\libgcc.a(_muldi3.o)
                              c:/espardino_tmp/bin/../lib/gcc/arm-elf/4.4.0/../../../../arm-elf/lib/thumb/interwork\libg.a(lib_a-rand.o) (__muldi3)

Allocating common symbols
Common symbol       size              file

errno               0x4               c:/espardino_tmp/bin/../lib/gcc/arm-elf/4.4.0/../../../../arm-elf/lib/thumb/interwork\libg.a(lib_a-reent.o)
__hexdig            0x100             c:/espardino_tmp/bin/../lib/gcc/arm-elf/4.4.0/../../../../arm-elf/lib/thumb/interwork\libg.a(lib_a-gdtoa-gethex.o)
lua_fatfs           0x4               c:/espardino_tmp/bin/../lib/gcc/arm-elf/4.4.0/../../../../arm-elf/lib\liblua.a(lua_io_wrappers.o)

Memory Configuration

Name             Origin             Length             Attributes
ROM              0x00002000         0x0007a000         xr
RAM              0x40000000         0x00008000         rw
*default*        0x00000000         0xffffffff

Linker script and memory map

LOAD startup.o
LOAD main.o
LOAD c:/espardino_tmp/bin/../lib/gcc/arm-elf/4.4.0/../../../../arm-elf/lib/thumb/interwork\libc.a
LOAD c:/espardino_tmp/bin/../lib/gcc/arm-elf/4.4.0/../../../../arm-elf/lib/thumb/interwork\libm.a
LOAD c:/espardino_tmp/bin/../lib/gcc/arm-elf/4.4.0/../../../../arm-elf/lib/thumb/interwork\libc.a
LOAD c:/espardino_tmp/bin/../lib/gcc/arm-elf/4.4.0/thumb/interwork\libgcc.a
LOAD c:/espardino_tmp/bin/../lib/gcc/arm-elf/4.4.0/../../../../arm-elf/lib/thumb/interwork\libstdc++.a
LOAD c:/espardino_tmp/bin/../lib/gcc/arm-elf/4.4.0/../../../../arm-elf/lib\liblua.a
LOAD c:/espardino_tmp/bin/../lib/gcc/arm-elf/4.4.0/../../../../arm-elf/lib/thumb/interwork\libffs.a
LOAD c:/espardino_tmp/bin/../lib/gcc/arm-elf/4.4.0/../../../../arm-elf/lib/thumb/interwork\libvcom.a
LOAD c:/espardino_tmp/bin/../lib/gcc/arm-elf/4.4.0/../../../../arm-elf/lib\libmicro214x.a
LOAD c:/espardino_tmp/bin/../lib/gcc/arm-elf/4.4.0/../../../../arm-elf/lib/thumb/interwork\libm.a
START GROUP
LOAD c:/espardino_tmp/bin/../lib/gcc/arm-elf/4.4.0/thumb/interwork\libgcc.a
LOAD c:/espardino_tmp/bin/../lib/gcc/arm-elf/4.4.0/../../../../arm-elf/lib/thumb/interwork\libg.a
LOAD c:/espardino_tmp/bin/../lib/gcc/arm-elf/4.4.0/../../../../arm-elf/lib/thumb/interwork\libc.a
END GROUP
                0x00000010                STACK_SIZE = 0x10
                0x00008000                RAM_LENGTH = 0x8000

.startup        0x00002000      0x1b4
 *startup.o(.text)
 .text          0x00002000      0x1b4 startup.o
                0x00002000                _boot
                0x00002178                __exit_THUMB
                0x00002174                __exit_ARM

.text           0x000021b4    0x22804
 *(.init)
 *(.text .text.*)
 .text          0x000021b4      0x188 main.o
                0x000021b4                exec_from_file
                0x000022b8                main
                0x00002258                run_lua_console
                0x00002208                exec_from_string
 .text          0x0000233c      0x430 c:/espardino_tmp/bin/../lib/gcc/arm-elf/4.4.0/thumb/interwork\libgcc.a(_arm_addsubdf3.o)
                0x00002700                __floatdidf
                0x00002680                __floatsidf
                0x00002658                __aeabi_ui2d
                0x0000233c                __aeabi_drsub
                0x000026ac                __extendsfdf2
                0x00002348                __adddf3
                0x00002658                __floatunsidf
                0x00002348                __aeabi_dadd
                0x000026ec                __aeabi_ul2d
                0x00002344                __aeabi_dsub
                0x000026ec                __floatundidf
                0x00002680                __aeabi_i2d
                0x00002700                __aeabi_l2d
                0x000026ac                __aeabi_f2d
                0x00002344                __subdf3
 .text          0x0000276c      0x480 c:/espardino_tmp/bin/../lib/gcc/arm-elf/4.4.0/../../../../arm-elf/lib\liblua.a(lua_io_wrappers.o)
                0x00002b54                my_fclose
                0x000029cc                my_fread
                0x000027b4                my_ftell
                0x00002778                my_feof
                0x0000276c                LUA_setup_fatfs
                0x00002b30                my_fflush
                0x00002bd0                my_freopen
                0x00002890                my_fputc
                0x000028c0                my_putchar
                0x00002860                my_ungetc
                0x00002918                my_fgets
                0x00002a68                my_getc
                0x00002abc                my_fwrite
                0x00002824                my_fseek
                0x000028d4                my_fputs
                0x000027fc                my_fprintF
                0x000029bc                my_exit
                0x00002b84                my_fopen
                0x000027d0                my_sprintF
                0x000027e8                my_printF
 .text          0x00002bec      0x524 c:/espardino_tmp/bin/../lib/gcc/arm-elf/4.4.0/../../../../arm-elf/lib\liblua.a(lualib.o)
                0x000030ec                LUA_init
                0x00002e7c                delay_init
                0x00002bec                delay_us
                0x00002eac                register_funcs
                0x00002cc0                IO_check_port_pin
                0x00002fbc                ADC_check_port_pin
                0x000030b8                openlibs
                0x00002c00                LUA_close
 .text          0x00003110      0x31c c:/espardino_tmp/bin/../lib/gcc/arm-elf/4.4.0/../../../../arm-elf/lib\liblua.a(lualib_console.o)
                0x00003258                LUA_console
 .text          0x0000342c     0xc370 c:/espardino_tmp/bin/../lib/gcc/arm-elf/4.4.0/../../../../arm-elf/lib\liblua.a(all.o)
                0x000067dc                lua_resume
                0x000038b0                lua_getupvalue
                0x00003594                lua_insert
                0x00003720                lua_touserdata
                0x000037e0                lua_pushlightuserdata
                0x00003510                lua_atpanic
                0x00004c74                lua_isnumber
                0x00003898                lua_getallocf
                0x00008578                luaL_ref
                0x0000d954                luaL_openlib
                0x00003958                lua_sethook
                0x000072f8                lua_load
                0x00006354                lua_objlen
                0x000073b0                lua_pcall
                0x0000a59c                luaL_addlstring
                0x0000a8d4                lua_getfield
                0x00003978                lua_gethookmask
                0x0000a4c4                lua_concat
                0x0000f43c                luaL_callmeta
                0x00003700                lua_tocfunction
                0x0000ad8c                lua_next
                0x00008504                luaL_unref
                0x00003518                lua_gettop
                0x0000a4a8                lua_pushvfstring
                0x00003740                lua_tothread
                0x00004c1c                lua_tointeger
                0x0000dcb0                luaL_checkstack
                0x0000380c                lua_getmetatable
                0x0000e7e0                luaL_checklstring
                0x0000ac98                luaL_findtable
                0x00003798                lua_pushnumber
                0x00003568                lua_remove
                0x0000ab30                lua_setfield
                0x00003980                lua_gethookcount
                0x00003508                lua_setlevel
                0x00007350                luaL_loadbuffer
                0x00007920                lua_pushlstring
                0x0000736c                luaL_loadstring
                0x0000363c                lua_isstring
                0x0000718c                luaL_newstate
                0x000035c8                lua_pushvalue
                0x00008620                lua_getinfo
                0x0000378c                lua_pushnil
                0x0000d858                luaL_error
                0x00004c44                lua_tonumber
                0x000038a8                lua_setallocf
                0x00003538                lua_settop
                0x00007850                lua_pushcclosure
                0x000079c4                luaL_getmetafield
                0x0000a258                lua_pushfstring
                0x0000e234                luaL_checknumber
                0x0000a760                luaL_gsub
                0x00007a14                lua_tolstring
                0x0000e03c                luaL_checkany
                0x00003ac8                lua_setlocal
                0x000035e8                lua_type
                0x00003620                lua_iscfunction
                0x000037cc                lua_pushboolean
                0x00004a1c                luaL_buffinit
                0x000034bc                lua_xmove
                0x0000ac74                lua_settable
                0x0000a32c                luaL_where
                0x0000a658                luaL_pushresult
                0x00004608                lua_setmetatable
                0x00003758                lua_topointer
                0x0000703c                lua_close
                0x000084a8                lua_rawseti
                0x000048b4                lua_rawget
                0x00004ae4                lua_dump
                0x0000e8bc                luaL_optlstring
                0x0000abc4                luaL_newmetatable
                0x00007c0c                lua_newuserdata
                0x00008d38                lua_lessthan
                0x0000ad58                lua_yield
                0x0000f3d8                lua_call
                0x00007088                lua_newstate
                0x00003894                lua_status
                0x0000daec                luaopen_io
                0x0000d84c                lua_error
                0x0000a5d4                luaL_addstring
                0x000066f0                lua_checkstack
                0x0000f74c                lua_equal
                0x0000a9a4                lua_gettable
                0x0000a5f0                luaL_addvalue
                0x00007998                lua_pushstring
                0x0000dcd4                luaL_argerror
                0x00003974                lua_gethook
                0x0000e1c8                luaL_checkinteger
                0x0000738c                lua_cpcall
                0x00003984                lua_getstack
                0x0000dbd4                luaopen_base
                0x0000d7b4                lua_replace
                0x00007b1c                lua_gc
                0x00007a84                lua_newthread
                0x0000eb64                luaL_checkudata
                0x000045ac                lua_setfenv
                0x00004518                lua_setupvalue
                0x0000e7b8                luaL_optnumber
                0x000047c4                lua_rawgeti
                0x0000e210                luaL_optinteger
                0x000037f0                lua_pushthread
                0x0000da58                luaopen_math
                0x0000e184                luaL_typerror
                0x000088e8                lua_rawset
                0x0000a580                luaL_prepbuffer
                0x0000edb4                luaL_checkoption
                0x0000e9d0                luaL_checktype
                0x00003a88                lua_getlocal
                0x0000da4c                luaL_register
                0x000036dc                lua_toboolean
                0x00003604                lua_typename
                0x0000384c                lua_getfenv
                0x00003650                lua_isuserdata
                0x0000366c                lua_rawequal
                0x0000a378                luaL_loadfile
                0x0000f408                luaL_openlibs
                0x00008058                lua_createtable
                0x000037ac                lua_pushinteger
 .text          0x0000f79c      0x4a8 c:/espardino_tmp/bin/../lib/gcc/arm-elf/4.4.0/../../../../arm-elf/lib\liblua.a(lualib_bit.o)
                0x0000f7e0                luaopen_bit
 .text          0x0000fc44     0x2a24 c:/espardino_tmp/bin/../lib/gcc/arm-elf/4.4.0/../../../../arm-elf/lib/thumb/interwork\libffs.a(ff.o)
                0x000117a0                f_gets
                0x0001146c                f_printf
                0x000121ac                f_rename
                0x00010b0c                f_truncate
                0x0000fc44                gen_numname
                0x00011e24                f_unlink
                0x00011414                f_putc
                0x00011444                f_puts
                0x0001109c                f_close
                0x000115f0                f_read
                0x000118f8                f_readdir
                0x00011dc0                f_chmod
                0x00010ffc                f_sync
                0x0000fd08                f_mkfs
                0x0000fcdc                f_mount
                0x00011f34                f_opendir
                0x000110b0                f_lseek
                0x00011ee0                f_stat
                0x00011d5c                f_utime
                0x00011230                f_write
                0x000124f8                f_open
                0x000122f4                f_mkdir
                0x00010f1c                f_getfree
 .text          0x00012668      0x9bc c:/espardino_tmp/bin/../lib/gcc/arm-elf/4.4.0/../../../../arm-elf/lib/thumb/interwork\libffs.a(sd_spi_lpc2000.o)
                0x00012ea4                disk_initialize
                0x00012810                disk_status
                0x00012c24                disk_ioctl
                0x00012ad8                disk_write
                0x00012b88                disk_read
 .text          0x00013024       0x74 c:/espardino_tmp/bin/../lib/gcc/arm-elf/4.4.0/../../../../arm-elf/lib/thumb/interwork\libffs.a(ccsbcs.o)
                0x00013068                ff_wtoupper
                0x00013024                ff_convert
 .text          0x00013098       0x54 c:/espardino_tmp/bin/../lib/gcc/arm-elf/4.4.0/../../../../arm-elf/lib/thumb/interwork\libffs.a(fattime.o)
                0x00013098                get_fattime
 .text          0x000130ec      0x3b0 c:/espardino_tmp/bin/../lib/gcc/arm-elf/4.4.0/../../../../arm-elf/lib/thumb/interwork\libvcom.a(main_serial.o)
                0x000133b8                VCOM_init_internal
                0x0001312c                VCOM_kbhit
                0x000131b0                VCOM_putchar
                0x0001320c                VCOM_putchar_nl
                0x000132b4                VCOM_getchar_nonblock
                0x00013260                VCOM_putchar_nonblock_nl
                0x00013234                VCOM_putchar_nonblock
                0x000131e0                VCOM_puts
                0x00013288                VCOM_getchar
                0x000133e4                VCOM_init
 .text          0x0001349c      0x650 c:/espardino_tmp/bin/../lib/gcc/arm-elf/4.4.0/../../../../arm-elf/lib/thumb/interwork\libvcom.a(usbhw_lpc.o)
                0x000137d0                USBHwEPRead
                0x000138e4                USBHwISR
                0x00013734                USBHwEPWrite
                0x0001349c                USBHwEPConfig
                0x00013588                USBHwSetAddress
                0x000135dc                USBHwConnect
                0x000136d0                USBHwEPStall
                0x00013558                USBHwRegisterDevIntHandler
                0x00013524                USBHwRegisterEPIntHandler
                0x00013898                USBHwConfigDevice
                0x00013628                USBHwNakIntEnable
                0x00013a0c                USBHwInit
                0x00013570                USBHwRegisterFrameHandler
                0x00013674                USBHwEPGetStatus
 .text          0x00013aec      0x130 c:/espardino_tmp/bin/../lib/gcc/arm-elf/4.4.0/../../../../arm-elf/lib/thumb/interwork\libvcom.a(usbcontrol.o)
                0x00013b3c                USBHandleControlTransfer
                0x00013aec                USBRegisterRequestHandler
 .text          0x00013c1c      0x1b0 c:/espardino_tmp/bin/../lib/gcc/arm-elf/4.4.0/../../../../arm-elf/lib/thumb/interwork\libvcom.a(usbstdreq.o)
                0x00013c28                USBGetDescriptor
                0x00013c74                USBRegisterCustomReqHandler
                0x00013c1c                USBRegisterDescriptors
                0x00013c80                USBHandleStandardRequest
 .text          0x00013dcc       0x54 c:/espardino_tmp/bin/../lib/gcc/arm-elf/4.4.0/../../../../arm-elf/lib/thumb/interwork\libvcom.a(usbinit.o)
                0x00013dd0                USBInit
 .text          0x00013e20       0xb8 c:/espardino_tmp/bin/../lib/gcc/arm-elf/4.4.0/../../../../arm-elf/lib/thumb/interwork\libvcom.a(serial_fifo.o)
                0x00013e94                fifo_avail
                0x00013e2c                fifo_put
                0x00013e20                fifo_init
                0x00013e64                fifo_get
                0x00013eb4                fifo_free
 .text          0x00013ed8       0x78 c:/espardino_tmp/bin/../lib/gcc/arm-elf/4.4.0/../../../../arm-elf/lib/thumb/interwork\libvcom.a(armVIC.o)
                0x00013ee8                restoreIRQ
                0x00013f40                enableFIQ
                0x00013f14                disableFIQ
                0x00013f04                enableIRQ
                0x00013f24                restoreFIQ
                0x00013ed8                disableIRQ
 .text          0x00013f50       0x64 c:/espardino_tmp/bin/../lib/gcc/arm-elf/4.4.0/../../../../arm-elf/lib\libmicro214x.a(leds.o)
                0x00013f84                LEDS_on
                0x00013f50                LEDS_init
                0x00013f54                LEDS_off
 .text          0x00013fb4      0x254 c:/espardino_tmp/bin/../lib/gcc/arm-elf/4.4.0/../../../../arm-elf/lib\libmicro214x.a(adc.o)
                0x000140c0                ADC_init
                0x00014098                ADC_get
                0x0001402c                ADC_read
                0x00014078                ADC_done
                0x00013fb4                ADC_set_precission
                0x00013fe4                ADC_start
 .text          0x00014208       0x30 c:/espardino_tmp/bin/../lib/gcc/arm-elf/4.4.0/../../../../arm-elf/lib\libmicro214x.a(sysclocks.o)
                0x00014208                VPB_set_speed
                0x00014220                SYSCLK_set_speed
                0x00014214                VPB_get_speed
                0x0001422c                SYSCLK_get_speed
 .text          0x00014238      0x168 c:/espardino_tmp/bin/../lib/gcc/arm-elf/4.4.0/../../../../arm-elf/lib\libmicro214x.a(iolib.o)
                0x00014238                IO_init
                0x0001437c                IO_output_low
                0x000142d4                IO_output
                0x00014388                IO_output_high
                0x00014258                IO_input
                0x00014394                IO_get_mode
 .text          0x000143a0       0x90 c:/espardino_tmp/bin/../lib/gcc/arm-elf/4.4.0/../../../../arm-elf/lib\libmicro214x.a(rtc.o)
                0x000143f0                RTC_set
                0x000143a0                RTC_get
 .text          0x00014430      0x6b8 c:/espardino_tmp/bin/../lib/gcc/arm-elf/4.4.0/../../../../arm-elf/lib\libmicro214x.a(miniprintf.o)
                0x000146f4                print
                0x00014430                xprintf_output
                0x00014ac8                xprintf
                0x0001449c                xputs
                0x00014aa0                xsprintf
                0x00014a78                xfprintf
 .text          0x00014ae8      0x34c c:/espardino_tmp/bin/../lib/gcc/arm-elf/4.4.0/../../../../arm-elf/lib/thumb/interwork\libm.a(lib_a-s_atan.o)
                0x00014ae8                atan
 .text          0x00014e34      0x150 c:/espardino_tmp/bin/../lib/gcc/arm-elf/4.4.0/../../../../arm-elf/lib/thumb/interwork\libm.a(lib_a-s_ceil.o)
                0x00014e34                ceil
 .text          0x00014f84       0xb4 c:/espardino_tmp/bin/../lib/gcc/arm-elf/4.4.0/../../../../arm-elf/lib/thumb/interwork\libm.a(lib_a-s_cos.o)
                0x00014f84                cos
 .text          0x00015038       0x14 c:/espardino_tmp/bin/../lib/gcc/arm-elf/4.4.0/../../../../arm-elf/lib/thumb/interwork\libm.a(lib_a-s_fabs.o)
                0x00015038                fabs
 .text          0x0001504c      0x150 c:/espardino_tmp/bin/../lib/gcc/arm-elf/4.4.0/../../../../arm-elf/lib/thumb/interwork\libm.a(lib_a-s_floor.o)
                0x0001504c                floor
 .text          0x0001519c       0x78 c:/espardino_tmp/bin/../lib/gcc/arm-elf/4.4.0/../../../../arm-elf/lib/thumb/interwork\libm.a(lib_a-s_frexp.o)
                0x0001519c                frexp
 .text          0x00015214       0x64 c:/espardino_tmp/bin/../lib/gcc/arm-elf/4.4.0/../../../../arm-elf/lib/thumb/interwork\libm.a(lib_a-s_ldexp.o)
                0x00015214                ldexp
 .text          0x00015278       0xa0 c:/espardino_tmp/bin/../lib/gcc/arm-elf/4.4.0/../../../../arm-elf/lib/thumb/interwork\libm.a(lib_a-s_modf.o)
                0x00015278                modf
 .text          0x00015318      0x120 c:/espardino_tmp/bin/../lib/gcc/arm-elf/4.4.0/../../../../arm-elf/lib/thumb/interwork\libm.a(lib_a-s_scalbn.o)
                0x00015318                scalbn
 .text          0x00015438       0xb8 c:/espardino_tmp/bin/../lib/gcc/arm-elf/4.4.0/../../../../arm-elf/lib/thumb/interwork\libm.a(lib_a-s_sin.o)
                0x00015438                sin
 .text          0x000154f0       0x74 c:/espardino_tmp/bin/../lib/gcc/arm-elf/4.4.0/../../../../arm-elf/lib/thumb/interwork\libm.a(lib_a-s_tan.o)
                0x000154f0                tan
 .text          0x00015564      0x108 c:/espardino_tmp/bin/../lib/gcc/arm-elf/4.4.0/../../../../arm-elf/lib/thumb/interwork\libm.a(lib_a-s_tanh.o)
                0x00015564                tanh
 .text          0x0001566c       0xb8 c:/espardino_tmp/bin/../lib/gcc/arm-elf/4.4.0/../../../../arm-elf/lib/thumb/interwork\libm.a(lib_a-w_acos.o)
                0x0001566c                acos
 .text          0x00015724       0xb8 c:/espardino_tmp/bin/../lib/gcc/arm-elf/4.4.0/../../../../arm-elf/lib/thumb/interwork\libm.a(lib_a-w_asin.o)
                0x00015724                asin
 .text          0x000157dc        0xc c:/espardino_tmp/bin/../lib/gcc/arm-elf/4.4.0/../../../../arm-elf/lib/thumb/interwork\libm.a(lib_a-w_atan2.o)
                0x000157dc                atan2
 .text          0x000157e8       0xcc c:/espardino_tmp/bin/../lib/gcc/arm-elf/4.4.0/../../../../arm-elf/lib/thumb/interwork\libm.a(lib_a-w_cosh.o)
                0x000157e8                cosh
 .text          0x000158b4      0x100 c:/espardino_tmp/bin/../lib/gcc/arm-elf/4.4.0/../../../../arm-elf/lib/thumb/interwork\libm.a(lib_a-w_exp.o)
                0x000158b4                exp
 .text          0x000159b4       0xd4 c:/espardino_tmp/bin/../lib/gcc/arm-elf/4.4.0/../../../../arm-elf/lib/thumb/interwork\libm.a(lib_a-w_fmod.o)
                0x000159b4                fmod
 .text          0x00015a88      0x104 c:/espardino_tmp/bin/../lib/gcc/arm-elf/4.4.0/../../../../arm-elf/lib/thumb/interwork\libm.a(lib_a-w_log.o)
                0x00015a88                log
 .text          0x00015b8c      0x104 c:/espardino_tmp/bin/../lib/gcc/arm-elf/4.4.0/../../../../arm-elf/lib/thumb/interwork\libm.a(lib_a-w_log10.o)
                0x00015b8c                log10
 .text          0x00015c90      0x39c c:/espardino_tmp/bin/../lib/gcc/arm-elf/4.4.0/../../../../arm-elf/lib/thumb/interwork\libm.a(lib_a-w_pow.o)
                0x00015c90                pow
 .text          0x0001602c       0xf4 c:/espardino_tmp/bin/../lib/gcc/arm-elf/4.4.0/../../../../arm-elf/lib/thumb/interwork\libm.a(lib_a-w_sinh.o)
                0x0001602c                sinh
 .text          0x00016120       0xc0 c:/espardino_tmp/bin/../lib/gcc/arm-elf/4.4.0/../../../../arm-elf/lib/thumb/interwork\libm.a(lib_a-w_sqrt.o)
                0x00016120                sqrt
 .text          0x000161e0      0x49c c:/espardino_tmp/bin/../lib/gcc/arm-elf/4.4.0/../../../../arm-elf/lib/thumb/interwork\libm.a(lib_a-e_acos.o)
                0x000161e0                __ieee754_acos
 .text          0x0001667c      0x44c c:/espardino_tmp/bin/../lib/gcc/arm-elf/4.4.0/../../../../arm-elf/lib/thumb/interwork\libm.a(lib_a-e_asin.o)
                0x0001667c                __ieee754_asin
 .text          0x00016ac8      0x200 c:/espardino_tmp/bin/../lib/gcc/arm-elf/4.4.0/../../../../arm-elf/lib/thumb/interwork\libm.a(lib_a-e_atan2.o)
                0x00016ac8                __ieee754_atan2
 .text          0x00016cc8      0x17c c:/espardino_tmp/bin/../lib/gcc/arm-elf/4.4.0/../../../../arm-elf/lib/thumb/interwork\libm.a(lib_a-e_cosh.o)
                0x00016cc8                __ieee754_cosh
 .text          0x00016e44      0x30c c:/espardino_tmp/bin/../lib/gcc/arm-elf/4.4.0/../../../../arm-elf/lib/thumb/interwork\libm.a(lib_a-e_exp.o)
                0x00016e44                __ieee754_exp
 .text          0x00017150      0x280 c:/espardino_tmp/bin/../lib/gcc/arm-elf/4.4.0/../../../../arm-elf/lib/thumb/interwork\libm.a(lib_a-e_fmod.o)
                0x00017150                __ieee754_fmod
 .text          0x000173d0      0x42c c:/espardino_tmp/bin/../lib/gcc/arm-elf/4.4.0/../../../../arm-elf/lib/thumb/interwork\libm.a(lib_a-e_log.o)
                0x000173d0                __ieee754_log
 .text          0x000177fc      0x140 c:/espardino_tmp/bin/../lib/gcc/arm-elf/4.4.0/../../../../arm-elf/lib/thumb/interwork\libm.a(lib_a-e_log10.o)
                0x000177fc                __ieee754_log10
 .text          0x0001793c      0xb68 c:/espardino_tmp/bin/../lib/gcc/arm-elf/4.4.0/../../../../arm-elf/lib/thumb/interwork\libm.a(lib_a-e_pow.o)
                0x0001793c                __ieee754_pow
 .text          0x000184a4      0x440 c:/espardino_tmp/bin/../lib/gcc/arm-elf/4.4.0/../../../../arm-elf/lib/thumb/interwork\libm.a(lib_a-e_rem_pio2.o)
                0x000184a4                __ieee754_rem_pio2
 .text          0x000188e4      0x1cc c:/espardino_tmp/bin/../lib/gcc/arm-elf/4.4.0/../../../../arm-elf/lib/thumb/interwork\libm.a(lib_a-e_sinh.o)
                0x000188e4                __ieee754_sinh
 .text          0x00018ab0      0x1d0 c:/espardino_tmp/bin/../lib/gcc/arm-elf/4.4.0/../../../../arm-elf/lib/thumb/interwork\libm.a(lib_a-e_sqrt.o)
                0x00018ab0                __ieee754_sqrt
 .text          0x00018c80      0x244 c:/espardino_tmp/bin/../lib/gcc/arm-elf/4.4.0/../../../../arm-elf/lib/thumb/interwork\libm.a(lib_a-k_cos.o)
                0x00018c80                __kernel_cos
 .text          0x00018ec4      0x81c c:/espardino_tmp/bin/../lib/gcc/arm-elf/4.4.0/../../../../arm-elf/lib/thumb/interwork\libm.a(lib_a-k_rem_pio2.o)
                0x00018ec4                __kernel_rem_pio2
 .text          0x000196e0      0x16c c:/espardino_tmp/bin/../lib/gcc/arm-elf/4.4.0/../../../../arm-elf/lib/thumb/interwork\libm.a(lib_a-k_sin.o)
                0x000196e0                __kernel_sin
 .text          0x0001984c      0x3b4 c:/espardino_tmp/bin/../lib/gcc/arm-elf/4.4.0/../../../../arm-elf/lib/thumb/interwork\libm.a(lib_a-k_tan.o)
                0x0001984c                __kernel_tan
 .text          0x00019c00       0x1c c:/espardino_tmp/bin/../lib/gcc/arm-elf/4.4.0/../../../../arm-elf/lib/thumb/interwork\libm.a(lib_a-s_copysign.o)
                0x00019c00                copysign
 .text          0x00019c1c      0x4b8 c:/espardino_tmp/bin/../lib/gcc/arm-elf/4.4.0/../../../../arm-elf/lib/thumb/interwork\libm.a(lib_a-s_expm1.o)
                0x00019c1c                expm1
 .text          0x0001a0d4       0x14 c:/espardino_tmp/bin/../lib/gcc/arm-elf/4.4.0/../../../../arm-elf/lib/thumb/interwork\libm.a(lib_a-s_finite.o)
                0x0001a0d4                finite
 .text          0x0001a0e8       0x1c c:/espardino_tmp/bin/../lib/gcc/arm-elf/4.4.0/../../../../arm-elf/lib/thumb/interwork\libm.a(lib_a-s_isnand.o)
                0x0001a0e8                __isnand
 .text          0x0001a104        0x0 c:/espardino_tmp/bin/../lib/gcc/arm-elf/4.4.0/../../../../arm-elf/lib/thumb/interwork\libm.a(lib_a-s_lib_ver.o)
 .text          0x0001a104        0x4 c:/espardino_tmp/bin/../lib/gcc/arm-elf/4.4.0/../../../../arm-elf/lib/thumb/interwork\libm.a(lib_a-s_matherr.o)
                0x0001a104                matherr
 .text          0x0001a108       0x10 c:/espardino_tmp/bin/../lib/gcc/arm-elf/4.4.0/../../../../arm-elf/lib/thumb/interwork\libm.a(lib_a-s_nan.o)
                0x0001a108                nan
 .text          0x0001a118      0x13c c:/espardino_tmp/bin/../lib/gcc/arm-elf/4.4.0/../../../../arm-elf/lib/thumb/interwork\libm.a(lib_a-s_rint.o)
                0x0001a118                rint
 .text          0x0001a254       0x8c c:/espardino_tmp/bin/../lib/gcc/arm-elf/4.4.0/thumb/interwork\libgcc.a(_udivsi3.o)
                0x0001a254                __udivsi3
                0x0001a254                __aeabi_uidiv
                0x0001a2d0                __aeabi_uidivmod
 .text          0x0001a2e0       0xa4 c:/espardino_tmp/bin/../lib/gcc/arm-elf/4.4.0/thumb/interwork\libgcc.a(_divsi3.o)
                0x0001a2e0                __aeabi_idiv
                0x0001a2e0                __divsi3
                0x0001a374                __aeabi_idivmod
 .text          0x0001a384       0xc8 c:/espardino_tmp/bin/../lib/gcc/arm-elf/4.4.0/thumb/interwork\libgcc.a(_umodsi3.o)
                0x0001a384                __umodsi3
 .text          0x0001a44c       0xd8 c:/espardino_tmp/bin/../lib/gcc/arm-elf/4.4.0/thumb/interwork\libgcc.a(_modsi3.o)
                0x0001a44c                __modsi3
 .text          0x0001a524        0x4 c:/espardino_tmp/bin/../lib/gcc/arm-elf/4.4.0/thumb/interwork\libgcc.a(_dvmd_tls.o)
                0x0001a524                __aeabi_ldiv0
                0x0001a524                __div0
                0x0001a524                __aeabi_idiv0
 .text          0x0001a528      0x49c c:/espardino_tmp/bin/../lib/gcc/arm-elf/4.4.0/thumb/interwork\libgcc.a(_arm_muldivdf3.o)
                0x0001a7b8                __aeabi_ddiv
                0x0001a528                __aeabi_dmul
                0x0001a7b8                __divdf3
                0x0001a528                __muldf3
 .text          0x0001a9c4      0x140 c:/espardino_tmp/bin/../lib/gcc/arm-elf/4.4.0/thumb/interwork\libgcc.a(_arm_cmpdf2.o)
                0x0001aabc                __aeabi_dcmple
                0x0001a9d4                __cmpdf2
                0x0001a9d4                __eqdf2
                0x0001a9c4                __gtdf2
                0x0001aa74                __aeabi_cdcmple
                0x0001aa58                __aeabi_cdrcmple
                0x0001a9cc                __ltdf2
                0x0001aaa4                __aeabi_dcmplt
                0x0001a9cc                __ledf2
                0x0001aaec                __aeabi_dcmpgt
                0x0001aad4                __aeabi_dcmpge
                0x0001a9d4                __nedf2
                0x0001aa8c                __aeabi_dcmpeq
                0x0001aa74                __aeabi_cdcmpeq
                0x0001a9c4                __gedf2
 .text          0x0001ab04       0x5c c:/espardino_tmp/bin/../lib/gcc/arm-elf/4.4.0/thumb/interwork\libgcc.a(_arm_fixdfsi.o)
                0x0001ab04                __fixdfsi
                0x0001ab04                __aeabi_d2iz
 .text          0x0001ab60       0x54 c:/espardino_tmp/bin/../lib/gcc/arm-elf/4.4.0/thumb/interwork\libgcc.a(_arm_fixunsdfsi.o)
                0x0001ab60                __fixunsdfsi
                0x0001ab60                __aeabi_d2uiz
 .text          0x0001abb4        0x0 c:/espardino_tmp/bin/../lib/gcc/arm-elf/4.4.0/../../../../arm-elf/lib/thumb/interwork\libg.a(lib_a-ctype_.o)
 .text          0x0001abb4        0xc c:/espardino_tmp/bin/../lib/gcc/arm-elf/4.4.0/../../../../arm-elf/lib/thumb/interwork\libg.a(lib_a-errno.o)
                0x0001abb4                __errno
 .text          0x0001abc0        0x0 c:/espardino_tmp/bin/../lib/gcc/arm-elf/4.4.0/../../../../arm-elf/lib/thumb/interwork\libg.a(lib_a-impure.o)
 .text          0x0001abc0       0x80 c:/espardino_tmp/bin/../lib/gcc/arm-elf/4.4.0/../../../../arm-elf/lib/thumb/interwork\libg.a(lib_a-locale.o)
                0x0001abe4                _setlocale_r
                0x0001abc0                __locale_charset
                0x0001abcc                _localeconv_r
                0x0001ac28                setlocale
                0x0001abd8                localeconv
 .text          0x0001ac40       0x28 c:/espardino_tmp/bin/../lib/gcc/arm-elf/4.4.0/../../../../arm-elf/lib/thumb/interwork\libg.a(lib_a-malloc.o)
                0x0001ac54                malloc
                0x0001ac40                free
 .text          0x0001ac68      0x51c c:/espardino_tmp/bin/../lib/gcc/arm-elf/4.4.0/../../../../arm-elf/lib/thumb/interwork\libg.a(lib_a-mallocr.o)
                0x0001ac68                _malloc_r
 .text          0x0001b184       0x58 c:/espardino_tmp/bin/../lib/gcc/arm-elf/4.4.0/../../../../arm-elf/lib/thumb/interwork\libg.a(lib_a-memcmp.o)
                0x0001b184                memcmp
 .text          0x0001b1dc       0x80 c:/espardino_tmp/bin/../lib/gcc/arm-elf/4.4.0/../../../../arm-elf/lib/thumb/interwork\libg.a(lib_a-memcpy.o)
                0x0001b1dc                memcpy
 .text          0x0001b25c        0x8 c:/espardino_tmp/bin/../lib/gcc/arm-elf/4.4.0/../../../../arm-elf/lib/thumb/interwork\libg.a(lib_a-mlock.o)
                0x0001b260                __malloc_unlock
                0x0001b25c                __malloc_lock
 .text          0x0001b264       0x50 c:/espardino_tmp/bin/../lib/gcc/arm-elf/4.4.0/../../../../arm-elf/lib/thumb/interwork\libg.a(lib_a-rand.o)
                0x0001b278                rand
                0x0001b264                srand
 .text          0x0001b2b4       0x18 c:/espardino_tmp/bin/../lib/gcc/arm-elf/4.4.0/../../../../arm-elf/lib/thumb/interwork\libg.a(lib_a-realloc.o)
                0x0001b2b4                realloc
 .text          0x0001b2cc      0x360 c:/espardino_tmp/bin/../lib/gcc/arm-elf/4.4.0/../../../../arm-elf/lib/thumb/interwork\libg.a(lib_a-reallocr.o)
                0x0001b2cc                _realloc_r
 .text          0x0001b62c       0x28 c:/espardino_tmp/bin/../lib/gcc/arm-elf/4.4.0/../../../../arm-elf/lib/thumb/interwork\libg.a(lib_a-sbrkr.o)
                0x0001b62c                _sbrk_r
 .text          0x0001b654       0x34 c:/espardino_tmp/bin/../lib/gcc/arm-elf/4.4.0/../../../../arm-elf/lib/thumb/interwork\libg.a(lib_a-setjmp.o)
                0x0001b66c                longjmp
                0x0001b654                setjmp
 .text          0x0001b688       0x50 c:/espardino_tmp/bin/../lib/gcc/arm-elf/4.4.0/../../../../arm-elf/lib/thumb/interwork\libg.a(lib_a-strcat.o)
                0x0001b688                strcat
 .text          0x0001b6d8       0xd4 c:/espardino_tmp/bin/../lib/gcc/arm-elf/4.4.0/../../../../arm-elf/lib/thumb/interwork\libg.a(lib_a-strchr.o)
                0x0001b6d8                strchr
 .text          0x0001b7ac       0x5c c:/espardino_tmp/bin/../lib/gcc/arm-elf/4.4.0/../../../../arm-elf/lib/thumb/interwork\libg.a(lib_a-strcmp.o)
                0x0001b7ac                strcmp
 .text          0x0001b808        0xc c:/espardino_tmp/bin/../lib/gcc/arm-elf/4.4.0/../../../../arm-elf/lib/thumb/interwork\libg.a(lib_a-strcoll.o)
                0x0001b808                strcoll
 .text          0x0001b814       0x4c c:/espardino_tmp/bin/../lib/gcc/arm-elf/4.4.0/../../../../arm-elf/lib/thumb/interwork\libg.a(lib_a-strcpy.o)
                0x0001b814                strcpy
 .text          0x0001b860       0x38 c:/espardino_tmp/bin/../lib/gcc/arm-elf/4.4.0/../../../../arm-elf/lib/thumb/interwork\libg.a(lib_a-strcspn.o)
                0x0001b860                strcspn
 .text          0x0001b898       0x6c c:/espardino_tmp/bin/../lib/gcc/arm-elf/4.4.0/../../../../arm-elf/lib/thumb/interwork\libg.a(lib_a-strlen.o)
                0x0001b898                strlen
 .text          0x0001b904       0x70 c:/espardino_tmp/bin/../lib/gcc/arm-elf/4.4.0/../../../../arm-elf/lib/thumb/interwork\libg.a(lib_a-strncat.o)
                0x0001b904                strncat
 .text          0x0001b974       0x64 c:/espardino_tmp/bin/../lib/gcc/arm-elf/4.4.0/../../../../arm-elf/lib/thumb/interwork\libg.a(lib_a-strncpy.o)
                0x0001b974                strncpy
 .text          0x0001b9d8      0x5ec c:/espardino_tmp/bin/../lib/gcc/arm-elf/4.4.0/../../../../arm-elf/lib/thumb/interwork\libg.a(lib_a-strstr.o)
                0x0001bd4c                strstr
 .text          0x0001bfc4      0xedc c:/espardino_tmp/bin/../lib/gcc/arm-elf/4.4.0/../../../../arm-elf/lib/thumb/interwork\libg.a(lib_a-strtod.o)
                0x0001bfc4                _strtod_r
                0x0001ce88                strtod
                0x0001ce50                strtof
 .text          0x0001cea0      0x17c c:/espardino_tmp/bin/../lib/gcc/arm-elf/4.4.0/../../../../arm-elf/lib/thumb/interwork\libg.a(lib_a-strtoul.o)
                0x0001cffc                strtoul
                0x0001cea0                _strtoul_r
 .text          0x0001d01c      0x5e8 c:/espardino_tmp/bin/../lib/gcc/arm-elf/4.4.0/../../../../arm-elf/lib/thumb/interwork\libg.a(lib_a-syscalls.o)
                0x0001d0dc                _getpid
                0x0001d01c                initialise_monitor_handles
                0x0001d5e0                _fstat
                0x0001d35c                _isatty
                0x0001d2c0                _open
                0x0001d2dc                _sbrk
                0x0001d0e8                _raise
                0x0001d118                _times
                0x0001d5a4                _stat
                0x0001d508                _lseek
                0x0001d0e0                _link
                0x0001d3e8                _swiwrite
                0x0001d15c                _rename
                0x0001d474                _swilseek
                0x0001d38c                _swiclose
                0x0001d234                _swiopen
                0x0001d1f8                _unlink
                0x0001d410                _write
                0x0001d094                _kill
                0x0001d0ec                _gettimeofday
                0x0001d544                _read
                0x0001d0c4                _exit
                0x0001d1a4                _system
                0x0001d51c                _swiread
                0x0001d3d4                _close
 .text          0x0001d604       0x98 c:/espardino_tmp/bin/../lib/gcc/arm-elf/4.4.0/../../../../arm-elf/lib/thumb/interwork\libg.a(lib_a-tmpfile.o)
                0x0001d688                tmpfile
                0x0001d604                _tmpfile_r
 .text          0x0001d69c      0x174 c:/espardino_tmp/bin/../lib/gcc/arm-elf/4.4.0/../../../../arm-elf/lib/thumb/interwork\libg.a(lib_a-tmpnam.o)
                0x0001d7b0                _tmpnam_r
                0x0001d7fc                tmpnam
                0x0001d718                _tempnam_r
                0x0001d798                tempnam
 .text          0x0001d810       0x28 c:/espardino_tmp/bin/../lib/gcc/arm-elf/4.4.0/../../../../arm-elf/lib/thumb/interwork\libg.a(lib_a-closer.o)
                0x0001d810                _close_r
 .text          0x0001d838       0x6c c:/espardino_tmp/bin/../lib/gcc/arm-elf/4.4.0/../../../../arm-elf/lib/thumb/interwork\libg.a(lib_a-fdopen.o)
                0x0001d838                _fdopen_r
                0x0001d88c                fdopen
 .text          0x0001d8a4      0x1d4 c:/espardino_tmp/bin/../lib/gcc/arm-elf/4.4.0/../../../../arm-elf/lib/thumb/interwork\libg.a(lib_a-findfp.o)
                0x0001d95c                __sinit
                0x0001d9b8                __sfmoreglue
                0x0001d8fc                _cleanup
                0x0001d8ec                _cleanup_r
                0x0001d8d4                __fp_lock_all
                0x0001d8a4                __sfp_lock_acquire
                0x0001d9e8                __sfp
                0x0001d8b0                __sinit_lock_release
                0x0001d8bc                __fp_unlock_all
                0x0001d8a8                __sfp_lock_release
                0x0001d8ac                __sinit_lock_acquire
 .text          0x0001da78       0x70 c:/espardino_tmp/bin/../lib/gcc/arm-elf/4.4.0/../../../../arm-elf/lib/thumb/interwork\libg.a(lib_a-flags.o)
                0x0001da78                __sflags
 .text          0x0001dae8      0x250 c:/espardino_tmp/bin/../lib/gcc/arm-elf/4.4.0/../../../../arm-elf/lib/thumb/interwork\libg.a(lib_a-freer.o)
                0x0001db8c                _free_r
                0x0001dae8                _malloc_trim_r
 .text          0x0001dd38       0xc4 c:/espardino_tmp/bin/../lib/gcc/arm-elf/4.4.0/../../../../arm-elf/lib/thumb/interwork\libg.a(lib_a-fwalk.o)
                0x0001dd9c                _fwalk
                0x0001dd38                _fwalk_reent
 .text          0x0001ddfc      0x5a0 c:/espardino_tmp/bin/../lib/gcc/arm-elf/4.4.0/../../../../arm-elf/lib/thumb/interwork\libg.a(lib_a-gdtoa-gethex.o)
                0x0001ddfc                __hexdig_init
                0x0001def8                __gethex
 .text          0x0001e39c      0x1b8 c:/espardino_tmp/bin/../lib/gcc/arm-elf/4.4.0/../../../../arm-elf/lib/thumb/interwork\libg.a(lib_a-gdtoa-hexnan.o)
                0x0001e39c                __hexnan
 .text          0x0001e554       0x34 c:/espardino_tmp/bin/../lib/gcc/arm-elf/4.4.0/../../../../arm-elf/lib/thumb/interwork\libg.a(lib_a-getenv.o)
                0x0001e554                getenv
                0x0001e570                _findenv
 .text          0x0001e588       0xa4 c:/espardino_tmp/bin/../lib/gcc/arm-elf/4.4.0/../../../../arm-elf/lib/thumb/interwork\libg.a(lib_a-getenv_r.o)
                0x0001e588                _findenv_r
                0x0001e61c                _getenv_r
 .text          0x0001e62c       0x80 c:/espardino_tmp/bin/../lib/gcc/arm-elf/4.4.0/../../../../arm-elf/lib/thumb/interwork\libg.a(lib_a-memchr.o)
                0x0001e62c                memchr
 .text          0x0001e6ac       0xa0 c:/espardino_tmp/bin/../lib/gcc/arm-elf/4.4.0/../../../../arm-elf/lib/thumb/interwork\libg.a(lib_a-memmove.o)
                0x0001e6ac                memmove
 .text          0x0001e74c       0x94 c:/espardino_tmp/bin/../lib/gcc/arm-elf/4.4.0/../../../../arm-elf/lib/thumb/interwork\libg.a(lib_a-memset.o)
                0x0001e74c                memset
 .text          0x0001e7e0      0x9ac c:/espardino_tmp/bin/../lib/gcc/arm-elf/4.4.0/../../../../arm-elf/lib/thumb/interwork\libg.a(lib_a-mprec.o)
                0x0001ea44                _mprec_log10
                0x0001eacc                __any_on
                0x0001eb18                _Balloc
                0x0001e9e0                __ratio
                0x0001ef80                __i2b
                0x0001e934                __b2d
                0x0001f0f0                __s2b
                0x0001e8a0                __mcmp
                0x0001e7f4                __hi0bits
                0x0001f038                __pow5mult
                0x0001ed60                __lshift
                0x0001ee20                __multiply
                0x0001eb6c                __d2b
                0x0001ea84                __copybits
                0x0001e8e0                __ulp
                0x0001ec4c                __mdiff
                0x0001e83c                __lo0bits
                0x0001ef98                __multadd
                0x0001e7e0                _Bfree
 .text          0x0001f18c       0x2c c:/espardino_tmp/bin/../lib/gcc/arm-elf/4.4.0/../../../../arm-elf/lib/thumb/interwork\libg.a(lib_a-openr.o)
                0x0001f18c                _open_r
 .text          0x0001f1b8      0x10c c:/espardino_tmp/bin/../lib/gcc/arm-elf/4.4.0/../../../../arm-elf/lib/thumb/interwork\libg.a(lib_a-reent.o)
                0x0001f204                cleanup_glue
                0x0001f224                _reclaim_reent
                0x0001f1b8                _wrapup_reent
 .text          0x0001f2c4       0x24 c:/espardino_tmp/bin/../lib/gcc/arm-elf/4.4.0/../../../../arm-elf/lib/thumb/interwork\libg.a(lib_a-remove.o)
                0x0001f2d4                remove
                0x0001f2c4                _remove_r
 .text          0x0001f2e8        0x8 c:/espardino_tmp/bin/../lib/gcc/arm-elf/4.4.0/../../../../arm-elf/lib/thumb/interwork\libg.a(lib_a-sf_nan.o)
                0x0001f2e8                nanf
 .text          0x0001f2f0       0x38 c:/espardino_tmp/bin/../lib/gcc/arm-elf/4.4.0/../../../../arm-elf/lib/thumb/interwork\libg.a(lib_a-signalr.o)
                0x0001f2fc                _kill_r
                0x0001f2f0                _getpid_r
 .text          0x0001f328       0x84 c:/espardino_tmp/bin/../lib/gcc/arm-elf/4.4.0/../../../../arm-elf/lib/thumb/interwork\libg.a(lib_a-sprintf.o)
                0x0001f36c                _sprintf_r
                0x0001f328                sprintf
 .text          0x0001f3ac       0xa8 c:/espardino_tmp/bin/../lib/gcc/arm-elf/4.4.0/../../../../arm-elf/lib/thumb/interwork\libg.a(lib_a-stdio.o)
                0x0001f3bc                __sseek
                0x0001f428                __sread
                0x0001f3ac                __sclose
                0x0001f3ec                __swrite
 .text          0x0001f454       0xac c:/espardino_tmp/bin/../lib/gcc/arm-elf/4.4.0/../../../../arm-elf/lib/thumb/interwork\libg.a(lib_a-strncmp.o)
                0x0001f454                strncmp
 .text          0x0001f500     0x1454 c:/espardino_tmp/bin/../lib/gcc/arm-elf/4.4.0/../../../../arm-elf/lib/thumb/interwork\libg.a(lib_a-svfprintf.o)
                0x0001f634                _svfprintf_r
 .text          0x00020954       0x28 c:/espardino_tmp/bin/../lib/gcc/arm-elf/4.4.0/../../../../arm-elf/lib/thumb/interwork\libg.a(lib_a-unlinkr.o)
                0x00020954                _unlink_r
 .text          0x0002097c       0x2c c:/espardino_tmp/bin/../lib/gcc/arm-elf/4.4.0/../../../../arm-elf/lib/thumb/interwork\libg.a(lib_a-writer.o)
                0x0002097c                _write_r
 .text          0x000209a8       0x5c c:/espardino_tmp/bin/../lib/gcc/arm-elf/4.4.0/../../../../arm-elf/lib/thumb/interwork\libg.a(lib_a-callocr.o)
                0x000209a8                _calloc_r
 .text          0x00020a04     0x102c c:/espardino_tmp/bin/../lib/gcc/arm-elf/4.4.0/../../../../arm-elf/lib/thumb/interwork\libg.a(lib_a-dtoa.o)
                0x00020b64                _dtoa_r
 .text          0x00021a30        0x0 c:/espardino_tmp/bin/../lib/gcc/arm-elf/4.4.0/../../../../arm-elf/lib/thumb/interwork\libg.a(lib_a-environ.o)
 .text          0x00021a30        0x8 c:/espardino_tmp/bin/../lib/gcc/arm-elf/4.4.0/../../../../arm-elf/lib/thumb/interwork\libg.a(lib_a-envlock.o)
                0x00021a34                __env_unlock
                0x00021a30                __env_lock
 .text          0x00021a38       0xbc c:/espardino_tmp/bin/../lib/gcc/arm-elf/4.4.0/../../../../arm-elf/lib/thumb/interwork\libg.a(lib_a-fclose.o)
                0x00021a38                _fclose_r
                0x00021adc                fclose
 .text          0x00021af4      0x144 c:/espardino_tmp/bin/../lib/gcc/arm-elf/4.4.0/../../../../arm-elf/lib/thumb/interwork\libg.a(lib_a-fflush.o)
                0x00021c08                fflush
                0x00021af4                _fflush_r
 .text          0x00021c38       0x2c c:/espardino_tmp/bin/../lib/gcc/arm-elf/4.4.0/../../../../arm-elf/lib/thumb/interwork\libg.a(lib_a-lseekr.o)
                0x00021c38                _lseek_r
 .text          0x00021c64       0x2c c:/espardino_tmp/bin/../lib/gcc/arm-elf/4.4.0/../../../../arm-elf/lib/thumb/interwork\libg.a(lib_a-readr.o)
                0x00021c64                _read_r
 .text          0x00021c90       0x24 c:/espardino_tmp/bin/../lib/gcc/arm-elf/4.4.0/../../../../arm-elf/lib/thumb/interwork\libg.a(lib_a-s_isinfd.o)
                0x00021c90                __isinfd
 .text          0x00021cb4       0xa0 c:/espardino_tmp/bin/../lib/gcc/arm-elf/4.4.0/thumb/interwork\libgcc.a(_arm_truncdfsf2.o)
                0x00021cb4                __aeabi_d2f
                0x00021cb4                __truncdfsf2
 .text          0x00021d54       0x70 c:/espardino_tmp/bin/../lib/gcc/arm-elf/4.4.0/thumb/interwork\libgcc.a(_muldi3.o)
                0x00021d54                __muldi3
 *(.gnu.linkonce.t.*)
 *(.gcc_except_table)
 *(.glue_7)
 .glue_7        0x00021dc4        0x0 startup.o
 .glue_7        0x00021dc4        0x0 main.o
 .glue_7        0x00021dc4        0x0 c:/espardino_tmp/bin/../lib/gcc/arm-elf/4.4.0/thumb/interwork\libgcc.a(_arm_addsubdf3.o)
 .glue_7        0x00021dc4        0x0 c:/espardino_tmp/bin/../lib/gcc/arm-elf/4.4.0/../../../../arm-elf/lib\liblua.a(lua_io_wrappers.o)
 .glue_7        0x00021dc4        0x0 c:/espardino_tmp/bin/../lib/gcc/arm-elf/4.4.0/../../../../arm-elf/lib\liblua.a(lualib.o)
 .glue_7        0x00021dc4        0x0 c:/espardino_tmp/bin/../lib/gcc/arm-elf/4.4.0/../../../../arm-elf/lib\liblua.a(lualib_console.o)
 .glue_7        0x00021dc4        0x0 c:/espardino_tmp/bin/../lib/gcc/arm-elf/4.4.0/../../../../arm-elf/lib\liblua.a(all.o)
 .glue_7        0x00021dc4        0x0 c:/espardino_tmp/bin/../lib/gcc/arm-elf/4.4.0/../../../../arm-elf/lib\liblua.a(lualib_bit.o)
 .glue_7        0x00021dc4        0x0 c:/espardino_tmp/bin/../lib/gcc/arm-elf/4.4.0/../../../../arm-elf/lib/thumb/interwork\libffs.a(ff.o)
 .glue_7        0x00021dc4        0x0 c:/espardino_tmp/bin/../lib/gcc/arm-elf/4.4.0/../../../../arm-elf/lib/thumb/interwork\libffs.a(sd_spi_lpc2000.o)
 .glue_7        0x00021dc4        0x0 c:/espardino_tmp/bin/../lib/gcc/arm-elf/4.4.0/../../../../arm-elf/lib/thumb/interwork\libffs.a(ccsbcs.o)
 .glue_7        0x00021dc4        0x0 c:/espardino_tmp/bin/../lib/gcc/arm-elf/4.4.0/../../../../arm-elf/lib/thumb/interwork\libffs.a(fattime.o)
 .glue_7        0x00021dc4        0x0 c:/espardino_tmp/bin/../lib/gcc/arm-elf/4.4.0/../../../../arm-elf/lib/thumb/interwork\libvcom.a(main_serial.o)
 .glue_7        0x00021dc4        0x0 c:/espardino_tmp/bin/../lib/gcc/arm-elf/4.4.0/../../../../arm-elf/lib/thumb/interwork\libvcom.a(usbhw_lpc.o)
 .glue_7        0x00021dc4        0x0 c:/espardino_tmp/bin/../lib/gcc/arm-elf/4.4.0/../../../../arm-elf/lib/thumb/interwork\libvcom.a(usbcontrol.o)
 .glue_7        0x00021dc4        0x0 c:/espardino_tmp/bin/../lib/gcc/arm-elf/4.4.0/../../../../arm-elf/lib/thumb/interwork\libvcom.a(usbstdreq.o)
 .glue_7        0x00021dc4        0x0 c:/espardino_tmp/bin/../lib/gcc/arm-elf/4.4.0/../../../../arm-elf/lib/thumb/interwork\libvcom.a(usbinit.o)
 .glue_7        0x00021dc4        0x0 c:/espardino_tmp/bin/../lib/gcc/arm-elf/4.4.0/../../../../arm-elf/lib/thumb/interwork\libvcom.a(serial_fifo.o)
 .glue_7        0x00021dc4        0x0 c:/espardino_tmp/bin/../lib/gcc/arm-elf/4.4.0/../../../../arm-elf/lib/thumb/interwork\libvcom.a(armVIC.o)
 .glue_7        0x00021dc4        0x0 c:/espardino_tmp/bin/../lib/gcc/arm-elf/4.4.0/../../../../arm-elf/lib\libmicro214x.a(leds.o)
 .glue_7        0x00021dc4        0x0 c:/espardino_tmp/bin/../lib/gcc/arm-elf/4.4.0/../../../../arm-elf/lib\libmicro214x.a(adc.o)
 .glue_7        0x00021dc4        0x0 c:/espardino_tmp/bin/../lib/gcc/arm-elf/4.4.0/../../../../arm-elf/lib\libmicro214x.a(sysclocks.o)
 .glue_7        0x00021dc4        0x0 c:/espardino_tmp/bin/../lib/gcc/arm-elf/4.4.0/../../../../arm-elf/lib\libmicro214x.a(iolib.o)
 .glue_7        0x00021dc4        0x0 c:/espardino_tmp/bin/../lib/gcc/arm-elf/4.4.0/../../../../arm-elf/lib\libmicro214x.a(rtc.o)
 .glue_7        0x00021dc4        0x0 c:/espardino_tmp/bin/../lib/gcc/arm-elf/4.4.0/../../../../arm-elf/lib\libmicro214x.a(miniprintf.o)
 .glue_7        0x00021dc4        0x0 c:/espardino_tmp/bin/../lib/gcc/arm-elf/4.4.0/../../../../arm-elf/lib/thumb/interwork\libm.a(lib_a-s_atan.o)
 .glue_7        0x00021dc4        0x0 c:/espardino_tmp/bin/../lib/gcc/arm-elf/4.4.0/../../../../arm-elf/lib/thumb/interwork\libm.a(lib_a-s_ceil.o)
 .glue_7        0x00021dc4        0x0 c:/espardino_tmp/bin/../lib/gcc/arm-elf/4.4.0/../../../../arm-elf/lib/thumb/interwork\libm.a(lib_a-s_cos.o)
 .glue_7        0x00021dc4        0x0 c:/espardino_tmp/bin/../lib/gcc/arm-elf/4.4.0/../../../../arm-elf/lib/thumb/interwork\libm.a(lib_a-s_fabs.o)
 .glue_7        0x00021dc4        0x0 c:/espardino_tmp/bin/../lib/gcc/arm-elf/4.4.0/../../../../arm-elf/lib/thumb/interwork\libm.a(lib_a-s_floor.o)
 .glue_7        0x00021dc4        0x0 c:/espardino_tmp/bin/../lib/gcc/arm-elf/4.4.0/../../../../arm-elf/lib/thumb/interwork\libm.a(lib_a-s_frexp.o)
 .glue_7        0x00021dc4        0x0 c:/espardino_tmp/bin/../lib/gcc/arm-elf/4.4.0/../../../../arm-elf/lib/thumb/interwork\libm.a(lib_a-s_ldexp.o)
 .glue_7        0x00021dc4        0x0 c:/espardino_tmp/bin/../lib/gcc/arm-elf/4.4.0/../../../../arm-elf/lib/thumb/interwork\libm.a(lib_a-s_modf.o)
 .glue_7        0x00021dc4        0x0 c:/espardino_tmp/bin/../lib/gcc/arm-elf/4.4.0/../../../../arm-elf/lib/thumb/interwork\libm.a(lib_a-s_scalbn.o)
 .glue_7        0x00021dc4        0x0 c:/espardino_tmp/bin/../lib/gcc/arm-elf/4.4.0/../../../../arm-elf/lib/thumb/interwork\libm.a(lib_a-s_sin.o)
 .glue_7        0x00021dc4        0x0 c:/espardino_tmp/bin/../lib/gcc/arm-elf/4.4.0/../../../../arm-elf/lib/thumb/interwork\libm.a(lib_a-s_tan.o)
 .glue_7        0x00021dc4        0x0 c:/espardino_tmp/bin/../lib/gcc/arm-elf/4.4.0/../../../../arm-elf/lib/thumb/interwork\libm.a(lib_a-s_tanh.o)
 .glue_7        0x00021dc4        0x0 c:/espardino_tmp/bin/../lib/gcc/arm-elf/4.4.0/../../../../arm-elf/lib/thumb/interwork\libm.a(lib_a-w_acos.o)
 .glue_7        0x00021dc4        0x0 c:/espardino_tmp/bin/../lib/gcc/arm-elf/4.4.0/../../../../arm-elf/lib/thumb/interwork\libm.a(lib_a-w_asin.o)
 .glue_7        0x00021dc4        0x0 c:/espardino_tmp/bin/../lib/gcc/arm-elf/4.4.0/../../../../arm-elf/lib/thumb/interwork\libm.a(lib_a-w_atan2.o)
 .glue_7        0x00021dc4        0x0 c:/espardino_tmp/bin/../lib/gcc/arm-elf/4.4.0/../../../../arm-elf/lib/thumb/interwork\libm.a(lib_a-w_cosh.o)
 .glue_7        0x00021dc4        0x0 c:/espardino_tmp/bin/../lib/gcc/arm-elf/4.4.0/../../../../arm-elf/lib/thumb/interwork\libm.a(lib_a-w_exp.o)
 .glue_7        0x00021dc4        0x0 c:/espardino_tmp/bin/../lib/gcc/arm-elf/4.4.0/../../../../arm-elf/lib/thumb/interwork\libm.a(lib_a-w_fmod.o)
 .glue_7        0x00021dc4        0x0 c:/espardino_tmp/bin/../lib/gcc/arm-elf/4.4.0/../../../../arm-elf/lib/thumb/interwork\libm.a(lib_a-w_log.o)
 .glue_7        0x00021dc4        0x0 c:/espardino_tmp/bin/../lib/gcc/arm-elf/4.4.0/../../../../arm-elf/lib/thumb/interwork\libm.a(lib_a-w_log10.o)
 .glue_7        0x00021dc4        0x0 c:/espardino_tmp/bin/../lib/gcc/arm-elf/4.4.0/../../../../arm-elf/lib/thumb/interwork\libm.a(lib_a-w_pow.o)
 .glue_7        0x00021dc4        0x0 c:/espardino_tmp/bin/../lib/gcc/arm-elf/4.4.0/../../../../arm-elf/lib/thumb/interwork\libm.a(lib_a-w_sinh.o)
 .glue_7        0x00021dc4        0x0 c:/espardino_tmp/bin/../lib/gcc/arm-elf/4.4.0/../../../../arm-elf/lib/thumb/interwork\libm.a(lib_a-w_sqrt.o)
 .glue_7        0x00021dc4        0x0 c:/espardino_tmp/bin/../lib/gcc/arm-elf/4.4.0/../../../../arm-elf/lib/thumb/interwork\libm.a(lib_a-e_acos.o)
 .glue_7        0x00021dc4        0x0 c:/espardino_tmp/bin/../lib/gcc/arm-elf/4.4.0/../../../../arm-elf/lib/thumb/interwork\libm.a(lib_a-e_asin.o)
 .glue_7        0x00021dc4        0x0 c:/espardino_tmp/bin/../lib/gcc/arm-elf/4.4.0/../../../../arm-elf/lib/thumb/interwork\libm.a(lib_a-e_atan2.o)
 .glue_7        0x00021dc4        0x0 c:/espardino_tmp/bin/../lib/gcc/arm-elf/4.4.0/../../../../arm-elf/lib/thumb/interwork\libm.a(lib_a-e_cosh.o)
 .glue_7        0x00021dc4        0x0 c:/espardino_tmp/bin/../lib/gcc/arm-elf/4.4.0/../../../../arm-elf/lib/thumb/interwork\libm.a(lib_a-e_exp.o)
 .glue_7        0x00021dc4        0x0 c:/espardino_tmp/bin/../lib/gcc/arm-elf/4.4.0/../../../../arm-elf/lib/thumb/interwork\libm.a(lib_a-e_fmod.o)
 .glue_7        0x00021dc4        0x0 c:/espardino_tmp/bin/../lib/gcc/arm-elf/4.4.0/../../../../arm-elf/lib/thumb/interwork\libm.a(lib_a-e_log.o)
 .glue_7        0x00021dc4        0x0 c:/espardino_tmp/bin/../lib/gcc/arm-elf/4.4.0/../../../../arm-elf/lib/thumb/interwork\libm.a(lib_a-e_log10.o)
 .glue_7        0x00021dc4        0x0 c:/espardino_tmp/bin/../lib/gcc/arm-elf/4.4.0/../../../../arm-elf/lib/thumb/interwork\libm.a(lib_a-e_pow.o)
 .glue_7        0x00021dc4        0x0 c:/espardino_tmp/bin/../lib/gcc/arm-elf/4.4.0/../../../../arm-elf/lib/thumb/interwork\libm.a(lib_a-e_rem_pio2.o)
 .glue_7        0x00021dc4        0x0 c:/espardino_tmp/bin/../lib/gcc/arm-elf/4.4.0/../../../../arm-elf/lib/thumb/interwork\libm.a(lib_a-e_sinh.o)
 .glue_7        0x00021dc4        0x0 c:/espardino_tmp/bin/../lib/gcc/arm-elf/4.4.0/../../../../arm-elf/lib/thumb/interwork\libm.a(lib_a-e_sqrt.o)
 .glue_7        0x00021dc4        0x0 c:/espardino_tmp/bin/../lib/gcc/arm-elf/4.4.0/../../../../arm-elf/lib/thumb/interwork\libm.a(lib_a-k_cos.o)
 .glue_7        0x00021dc4        0x0 c:/espardino_tmp/bin/../lib/gcc/arm-elf/4.4.0/../../../../arm-elf/lib/thumb/interwork\libm.a(lib_a-k_rem_pio2.o)
 .glue_7        0x00021dc4        0x0 c:/espardino_tmp/bin/../lib/gcc/arm-elf/4.4.0/../../../../arm-elf/lib/thumb/interwork\libm.a(lib_a-k_sin.o)
 .glue_7        0x00021dc4        0x0 c:/espardino_tmp/bin/../lib/gcc/arm-elf/4.4.0/../../../../arm-elf/lib/thumb/interwork\libm.a(lib_a-k_tan.o)
 .glue_7        0x00021dc4        0x0 c:/espardino_tmp/bin/../lib/gcc/arm-elf/4.4.0/../../../../arm-elf/lib/thumb/interwork\libm.a(lib_a-s_copysign.o)
 .glue_7        0x00021dc4        0x0 c:/espardino_tmp/bin/../lib/gcc/arm-elf/4.4.0/../../../../arm-elf/lib/thumb/interwork\libm.a(lib_a-s_expm1.o)
 .glue_7        0x00021dc4        0x0 c:/espardino_tmp/bin/../lib/gcc/arm-elf/4.4.0/../../../../arm-elf/lib/thumb/interwork\libm.a(lib_a-s_finite.o)
 .glue_7        0x00021dc4        0x0 c:/espardino_tmp/bin/../lib/gcc/arm-elf/4.4.0/../../../../arm-elf/lib/thumb/interwork\libm.a(lib_a-s_isnand.o)
 .glue_7        0x00021dc4        0x0 c:/espardino_tmp/bin/../lib/gcc/arm-elf/4.4.0/../../../../arm-elf/lib/thumb/interwork\libm.a(lib_a-s_lib_ver.o)
 .glue_7        0x00021dc4        0x0 c:/espardino_tmp/bin/../lib/gcc/arm-elf/4.4.0/../../../../arm-elf/lib/thumb/interwork\libm.a(lib_a-s_matherr.o)
 .glue_7        0x00021dc4        0x0 c:/espardino_tmp/bin/../lib/gcc/arm-elf/4.4.0/../../../../arm-elf/lib/thumb/interwork\libm.a(lib_a-s_nan.o)
 .glue_7        0x00021dc4        0x0 c:/espardino_tmp/bin/../lib/gcc/arm-elf/4.4.0/../../../../arm-elf/lib/thumb/interwork\libm.a(lib_a-s_rint.o)
 .glue_7        0x00021dc4        0x0 c:/espardino_tmp/bin/../lib/gcc/arm-elf/4.4.0/thumb/interwork\libgcc.a(_udivsi3.o)
 .glue_7        0x00021dc4        0x0 c:/espardino_tmp/bin/../lib/gcc/arm-elf/4.4.0/thumb/interwork\libgcc.a(_divsi3.o)
 .glue_7        0x00021dc4        0x0 c:/espardino_tmp/bin/../lib/gcc/arm-elf/4.4.0/thumb/interwork\libgcc.a(_umodsi3.o)
 .glue_7        0x00021dc4        0x0 c:/espardino_tmp/bin/../lib/gcc/arm-elf/4.4.0/thumb/interwork\libgcc.a(_modsi3.o)
 .glue_7        0x00021dc4        0x0 c:/espardino_tmp/bin/../lib/gcc/arm-elf/4.4.0/thumb/interwork\libgcc.a(_dvmd_tls.o)
 .glue_7        0x00021dc4        0x0 c:/espardino_tmp/bin/../lib/gcc/arm-elf/4.4.0/thumb/interwork\libgcc.a(_arm_muldivdf3.o)
 .glue_7        0x00021dc4        0x0 c:/espardino_tmp/bin/../lib/gcc/arm-elf/4.4.0/thumb/interwork\libgcc.a(_arm_cmpdf2.o)
 .glue_7        0x00021dc4        0x0 c:/espardino_tmp/bin/../lib/gcc/arm-elf/4.4.0/thumb/interwork\libgcc.a(_arm_fixdfsi.o)
 .glue_7        0x00021dc4        0x0 c:/espardino_tmp/bin/../lib/gcc/arm-elf/4.4.0/thumb/interwork\libgcc.a(_arm_fixunsdfsi.o)
 .glue_7        0x00021dc4        0x0 c:/espardino_tmp/bin/../lib/gcc/arm-elf/4.4.0/../../../../arm-elf/lib/thumb/interwork\libg.a(lib_a-ctype_.o)
 .glue_7        0x00021dc4        0x0 c:/espardino_tmp/bin/../lib/gcc/arm-elf/4.4.0/../../../../arm-elf/lib/thumb/interwork\libg.a(lib_a-errno.o)
 .glue_7        0x00021dc4        0x0 c:/espardino_tmp/bin/../lib/gcc/arm-elf/4.4.0/../../../../arm-elf/lib/thumb/interwork\libg.a(lib_a-impure.o)
 .glue_7        0x00021dc4        0x0 c:/espardino_tmp/bin/../lib/gcc/arm-elf/4.4.0/../../../../arm-elf/lib/thumb/interwork\libg.a(lib_a-locale.o)
 .glue_7        0x00021dc4        0x0 c:/espardino_tmp/bin/../lib/gcc/arm-elf/4.4.0/../../../../arm-elf/lib/thumb/interwork\libg.a(lib_a-malloc.o)
 .glue_7        0x00021dc4        0x0 c:/espardino_tmp/bin/../lib/gcc/arm-elf/4.4.0/../../../../arm-elf/lib/thumb/interwork\libg.a(lib_a-mallocr.o)
 .glue_7        0x00021dc4        0x0 c:/espardino_tmp/bin/../lib/gcc/arm-elf/4.4.0/../../../../arm-elf/lib/thumb/interwork\libg.a(lib_a-memcmp.o)
 .glue_7        0x00021dc4        0x0 c:/espardino_tmp/bin/../lib/gcc/arm-elf/4.4.0/../../../../arm-elf/lib/thumb/interwork\libg.a(lib_a-memcpy.o)
 .glue_7        0x00021dc4        0x0 c:/espardino_tmp/bin/../lib/gcc/arm-elf/4.4.0/../../../../arm-elf/lib/thumb/interwork\libg.a(lib_a-mlock.o)
 .glue_7        0x00021dc4        0x0 c:/espardino_tmp/bin/../lib/gcc/arm-elf/4.4.0/../../../../arm-elf/lib/thumb/interwork\libg.a(lib_a-rand.o)
 .glue_7        0x00021dc4        0x0 c:/espardino_tmp/bin/../lib/gcc/arm-elf/4.4.0/../../../../arm-elf/lib/thumb/interwork\libg.a(lib_a-realloc.o)
 .glue_7        0x00021dc4        0x0 c:/espardino_tmp/bin/../lib/gcc/arm-elf/4.4.0/../../../../arm-elf/lib/thumb/interwork\libg.a(lib_a-reallocr.o)
 .glue_7        0x00021dc4        0x0 c:/espardino_tmp/bin/../lib/gcc/arm-elf/4.4.0/../../../../arm-elf/lib/thumb/interwork\libg.a(lib_a-sbrkr.o)
 .glue_7        0x00021dc4        0x0 c:/espardino_tmp/bin/../lib/gcc/arm-elf/4.4.0/../../../../arm-elf/lib/thumb/interwork\libg.a(lib_a-setjmp.o)
 .glue_7        0x00021dc4        0x0 c:/espardino_tmp/bin/../lib/gcc/arm-elf/4.4.0/../../../../arm-elf/lib/thumb/interwork\libg.a(lib_a-strcat.o)
 .glue_7        0x00021dc4        0x0 c:/espardino_tmp/bin/../lib/gcc/arm-elf/4.4.0/../../../../arm-elf/lib/thumb/interwork\libg.a(lib_a-strchr.o)
 .glue_7        0x00021dc4        0x0 c:/espardino_tmp/bin/../lib/gcc/arm-elf/4.4.0/../../../../arm-elf/lib/thumb/interwork\libg.a(lib_a-strcmp.o)
 .glue_7        0x00021dc4        0x0 c:/espardino_tmp/bin/../lib/gcc/arm-elf/4.4.0/../../../../arm-elf/lib/thumb/interwork\libg.a(lib_a-strcoll.o)
 .glue_7        0x00021dc4        0x0 c:/espardino_tmp/bin/../lib/gcc/arm-elf/4.4.0/../../../../arm-elf/lib/thumb/interwork\libg.a(lib_a-strcpy.o)
 .glue_7        0x00021dc4        0x0 c:/espardino_tmp/bin/../lib/gcc/arm-elf/4.4.0/../../../../arm-elf/lib/thumb/interwork\libg.a(lib_a-strcspn.o)
 .glue_7        0x00021dc4        0x0 c:/espardino_tmp/bin/../lib/gcc/arm-elf/4.4.0/../../../../arm-elf/lib/thumb/interwork\libg.a(lib_a-strlen.o)
 .glue_7        0x00021dc4        0x0 c:/espardino_tmp/bin/../lib/gcc/arm-elf/4.4.0/../../../../arm-elf/lib/thumb/interwork\libg.a(lib_a-strncat.o)
 .glue_7        0x00021dc4        0x0 c:/espardino_tmp/bin/../lib/gcc/arm-elf/4.4.0/../../../../arm-elf/lib/thumb/interwork\libg.a(lib_a-strncpy.o)
 .glue_7        0x00021dc4        0x0 c:/espardino_tmp/bin/../lib/gcc/arm-elf/4.4.0/../../../../arm-elf/lib/thumb/interwork\libg.a(lib_a-strstr.o)
 .glue_7        0x00021dc4        0x0 c:/espardino_tmp/bin/../lib/gcc/arm-elf/4.4.0/../../../../arm-elf/lib/thumb/interwork\libg.a(lib_a-strtod.o)
 .glue_7        0x00021dc4        0x0 c:/espardino_tmp/bin/../lib/gcc/arm-elf/4.4.0/../../../../arm-elf/lib/thumb/interwork\libg.a(lib_a-strtoul.o)
 .glue_7        0x00021dc4        0x0 c:/espardino_tmp/bin/../lib/gcc/arm-elf/4.4.0/../../../../arm-elf/lib/thumb/interwork\libg.a(lib_a-syscalls.o)
 .glue_7        0x00021dc4        0x0 c:/espardino_tmp/bin/../lib/gcc/arm-elf/4.4.0/../../../../arm-elf/lib/thumb/interwork\libg.a(lib_a-tmpfile.o)
 .glue_7        0x00021dc4        0x0 c:/espardino_tmp/bin/../lib/gcc/arm-elf/4.4.0/../../../../arm-elf/lib/thumb/interwork\libg.a(lib_a-tmpnam.o)
 .glue_7        0x00021dc4        0x0 c:/espardino_tmp/bin/../lib/gcc/arm-elf/4.4.0/../../../../arm-elf/lib/thumb/interwork\libg.a(lib_a-closer.o)
 .glue_7        0x00021dc4        0x0 c:/espardino_tmp/bin/../lib/gcc/arm-elf/4.4.0/../../../../arm-elf/lib/thumb/interwork\libg.a(lib_a-fdopen.o)
 .glue_7        0x00021dc4        0x0 c:/espardino_tmp/bin/../lib/gcc/arm-elf/4.4.0/../../../../arm-elf/lib/thumb/interwork\libg.a(lib_a-findfp.o)
 .glue_7        0x00021dc4        0x0 c:/espardino_tmp/bin/../lib/gcc/arm-elf/4.4.0/../../../../arm-elf/lib/thumb/interwork\libg.a(lib_a-flags.o)
 .glue_7        0x00021dc4        0x0 c:/espardino_tmp/bin/../lib/gcc/arm-elf/4.4.0/../../../../arm-elf/lib/thumb/interwork\libg.a(lib_a-freer.o)
 .glue_7        0x00021dc4        0x0 c:/espardino_tmp/bin/../lib/gcc/arm-elf/4.4.0/../../../../arm-elf/lib/thumb/interwork\libg.a(lib_a-fwalk.o)
 .glue_7        0x00021dc4        0x0 c:/espardino_tmp/bin/../lib/gcc/arm-elf/4.4.0/../../../../arm-elf/lib/thumb/interwork\libg.a(lib_a-gdtoa-gethex.o)
 .glue_7        0x00021dc4        0x0 c:/espardino_tmp/bin/../lib/gcc/arm-elf/4.4.0/../../../../arm-elf/lib/thumb/interwork\libg.a(lib_a-gdtoa-hexnan.o)
 .glue_7        0x00021dc4        0x0 c:/espardino_tmp/bin/../lib/gcc/arm-elf/4.4.0/../../../../arm-elf/lib/thumb/interwork\libg.a(lib_a-getenv.o)
 .glue_7        0x00021dc4        0x0 c:/espardino_tmp/bin/../lib/gcc/arm-elf/4.4.0/../../../../arm-elf/lib/thumb/interwork\libg.a(lib_a-getenv_r.o)
 .glue_7        0x00021dc4        0x0 c:/espardino_tmp/bin/../lib/gcc/arm-elf/4.4.0/../../../../arm-elf/lib/thumb/interwork\libg.a(lib_a-memchr.o)
 .glue_7        0x00021dc4        0x0 c:/espardino_tmp/bin/../lib/gcc/arm-elf/4.4.0/../../../../arm-elf/lib/thumb/interwork\libg.a(lib_a-memmove.o)
 .glue_7        0x00021dc4        0x0 c:/espardino_tmp/bin/../lib/gcc/arm-elf/4.4.0/../../../../arm-elf/lib/thumb/interwork\libg.a(lib_a-memset.o)
 .glue_7        0x00021dc4        0x0 c:/espardino_tmp/bin/../lib/gcc/arm-elf/4.4.0/../../../../arm-elf/lib/thumb/interwork\libg.a(lib_a-mprec.o)
 .glue_7        0x00021dc4        0x0 c:/espardino_tmp/bin/../lib/gcc/arm-elf/4.4.0/../../../../arm-elf/lib/thumb/interwork\libg.a(lib_a-openr.o)
 .glue_7        0x00021dc4        0x0 c:/espardino_tmp/bin/../lib/gcc/arm-elf/4.4.0/../../../../arm-elf/lib/thumb/interwork\libg.a(lib_a-reent.o)
 .glue_7        0x00021dc4        0x0 c:/espardino_tmp/bin/../lib/gcc/arm-elf/4.4.0/../../../../arm-elf/lib/thumb/interwork\libg.a(lib_a-remove.o)
 .glue_7        0x00021dc4        0x0 c:/espardino_tmp/bin/../lib/gcc/arm-elf/4.4.0/../../../../arm-elf/lib/thumb/interwork\libg.a(lib_a-sf_nan.o)
 .glue_7        0x00021dc4        0x0 c:/espardino_tmp/bin/../lib/gcc/arm-elf/4.4.0/../../../../arm-elf/lib/thumb/interwork\libg.a(lib_a-signalr.o)
 .glue_7        0x00021dc4        0x0 c:/espardino_tmp/bin/../lib/gcc/arm-elf/4.4.0/../../../../arm-elf/lib/thumb/interwork\libg.a(lib_a-sprintf.o)
 .glue_7        0x00021dc4        0x0 c:/espardino_tmp/bin/../lib/gcc/arm-elf/4.4.0/../../../../arm-elf/lib/thumb/interwork\libg.a(lib_a-stdio.o)
 .glue_7        0x00021dc4        0x0 c:/espardino_tmp/bin/../lib/gcc/arm-elf/4.4.0/../../../../arm-elf/lib/thumb/interwork\libg.a(lib_a-strncmp.o)
 .glue_7        0x00021dc4        0x0 c:/espardino_tmp/bin/../lib/gcc/arm-elf/4.4.0/../../../../arm-elf/lib/thumb/interwork\libg.a(lib_a-svfprintf.o)
 .glue_7        0x00021dc4        0x0 c:/espardino_tmp/bin/../lib/gcc/arm-elf/4.4.0/../../../../arm-elf/lib/thumb/interwork\libg.a(lib_a-unlinkr.o)
 .glue_7        0x00021dc4        0x0 c:/espardino_tmp/bin/../lib/gcc/arm-elf/4.4.0/../../../../arm-elf/lib/thumb/interwork\libg.a(lib_a-writer.o)
 .glue_7        0x00021dc4        0x0 c:/espardino_tmp/bin/../lib/gcc/arm-elf/4.4.0/../../../../arm-elf/lib/thumb/interwork\libg.a(lib_a-callocr.o)
 .glue_7        0x00021dc4        0x0 c:/espardino_tmp/bin/../lib/gcc/arm-elf/4.4.0/../../../../arm-elf/lib/thumb/interwork\libg.a(lib_a-dtoa.o)
 .glue_7        0x00021dc4        0x0 c:/espardino_tmp/bin/../lib/gcc/arm-elf/4.4.0/../../../../arm-elf/lib/thumb/interwork\libg.a(lib_a-environ.o)
 .glue_7        0x00021dc4        0x0 c:/espardino_tmp/bin/../lib/gcc/arm-elf/4.4.0/../../../../arm-elf/lib/thumb/interwork\libg.a(lib_a-envlock.o)
 .glue_7        0x00021dc4        0x0 c:/espardino_tmp/bin/../lib/gcc/arm-elf/4.4.0/../../../../arm-elf/lib/thumb/interwork\libg.a(lib_a-fclose.o)
 .glue_7        0x00021dc4        0x0 c:/espardino_tmp/bin/../lib/gcc/arm-elf/4.4.0/../../../../arm-elf/lib/thumb/interwork\libg.a(lib_a-fflush.o)
 .glue_7        0x00021dc4        0x0 c:/espardino_tmp/bin/../lib/gcc/arm-elf/4.4.0/../../../../arm-elf/lib/thumb/interwork\libg.a(lib_a-lseekr.o)
 .glue_7        0x00021dc4        0x0 c:/espardino_tmp/bin/../lib/gcc/arm-elf/4.4.0/../../../../arm-elf/lib/thumb/interwork\libg.a(lib_a-readr.o)
 .glue_7        0x00021dc4        0x0 c:/espardino_tmp/bin/../lib/gcc/arm-elf/4.4.0/../../../../arm-elf/lib/thumb/interwork\libg.a(lib_a-s_isinfd.o)
 .glue_7        0x00021dc4        0x0 c:/espardino_tmp/bin/../lib/gcc/arm-elf/4.4.0/thumb/interwork\libgcc.a(_arm_truncdfsf2.o)
 .glue_7        0x00021dc4       0xe4 c:/espardino_tmp/bin/../lib/gcc/arm-elf/4.4.0/thumb/interwork\libgcc.a(_muldi3.o)
                0x00021dc4                __USBHwISR_from_arm
                0x00021e78                __USBHwConnect_from_arm
                0x00021e0c                __fifo_get_from_arm
                0x00021e18                __USBHwEPWrite_from_arm
                0x00021e30                __fifo_init_from_arm
                0x00021ddc                __USBHwNakIntEnable_from_arm
                0x00021e84                ____umodsi3_from_arm
                0x00021e90                ____udivsi3_from_arm
                0x00021dd0                __fifo_avail_from_arm
                0x00021e3c                __USBInit_from_arm
                0x00021e24                __memcpy_from_arm
                0x00021e6c                __USBHwRegisterFrameHandler_from_arm
                0x00021e48                __USBRegisterDescriptors_from_arm
                0x00021e54                __USBRegisterRequestHandler_from_arm
                0x00021e9c                __floor_from_arm
                0x00021e00                __fifo_put_from_arm
                0x00021df4                __USBHwEPRead_from_arm
                0x00021de8                __fifo_free_from_arm
                0x00021e60                __USBHwRegisterEPIntHandler_from_arm
 *(.glue_7t)
 .glue_7t       0x00021ea8        0x0 startup.o
 .glue_7t       0x00021ea8        0x0 main.o
 .glue_7t       0x00021ea8        0x0 c:/espardino_tmp/bin/../lib/gcc/arm-elf/4.4.0/thumb/interwork\libgcc.a(_arm_addsubdf3.o)
 .glue_7t       0x00021ea8        0x0 c:/espardino_tmp/bin/../lib/gcc/arm-elf/4.4.0/../../../../arm-elf/lib\liblua.a(lua_io_wrappers.o)
 .glue_7t       0x00021ea8        0x0 c:/espardino_tmp/bin/../lib/gcc/arm-elf/4.4.0/../../../../arm-elf/lib\liblua.a(lualib.o)
 .glue_7t       0x00021ea8        0x0 c:/espardino_tmp/bin/../lib/gcc/arm-elf/4.4.0/../../../../arm-elf/lib\liblua.a(lualib_console.o)
 .glue_7t       0x00021ea8        0x0 c:/espardino_tmp/bin/../lib/gcc/arm-elf/4.4.0/../../../../arm-elf/lib\liblua.a(all.o)
 .glue_7t       0x00021ea8        0x0 c:/espardino_tmp/bin/../lib/gcc/arm-elf/4.4.0/../../../../arm-elf/lib\liblua.a(lualib_bit.o)
 .glue_7t       0x00021ea8        0x0 c:/espardino_tmp/bin/../lib/gcc/arm-elf/4.4.0/../../../../arm-elf/lib/thumb/interwork\libffs.a(ff.o)
 .glue_7t       0x00021ea8        0x0 c:/espardino_tmp/bin/../lib/gcc/arm-elf/4.4.0/../../../../arm-elf/lib/thumb/interwork\libffs.a(sd_spi_lpc2000.o)
 .glue_7t       0x00021ea8        0x0 c:/espardino_tmp/bin/../lib/gcc/arm-elf/4.4.0/../../../../arm-elf/lib/thumb/interwork\libffs.a(ccsbcs.o)
 .glue_7t       0x00021ea8        0x0 c:/espardino_tmp/bin/../lib/gcc/arm-elf/4.4.0/../../../../arm-elf/lib/thumb/interwork\libffs.a(fattime.o)
 .glue_7t       0x00021ea8        0x0 c:/espardino_tmp/bin/../lib/gcc/arm-elf/4.4.0/../../../../arm-elf/lib/thumb/interwork\libvcom.a(main_serial.o)
 .glue_7t       0x00021ea8        0x0 c:/espardino_tmp/bin/../lib/gcc/arm-elf/4.4.0/../../../../arm-elf/lib/thumb/interwork\libvcom.a(usbhw_lpc.o)
 .glue_7t       0x00021ea8        0x0 c:/espardino_tmp/bin/../lib/gcc/arm-elf/4.4.0/../../../../arm-elf/lib/thumb/interwork\libvcom.a(usbcontrol.o)
 .glue_7t       0x00021ea8        0x0 c:/espardino_tmp/bin/../lib/gcc/arm-elf/4.4.0/../../../../arm-elf/lib/thumb/interwork\libvcom.a(usbstdreq.o)
 .glue_7t       0x00021ea8        0x0 c:/espardino_tmp/bin/../lib/gcc/arm-elf/4.4.0/../../../../arm-elf/lib/thumb/interwork\libvcom.a(usbinit.o)
 .glue_7t       0x00021ea8        0x0 c:/espardino_tmp/bin/../lib/gcc/arm-elf/4.4.0/../../../../arm-elf/lib/thumb/interwork\libvcom.a(serial_fifo.o)
 .glue_7t       0x00021ea8        0x0 c:/espardino_tmp/bin/../lib/gcc/arm-elf/4.4.0/../../../../arm-elf/lib/thumb/interwork\libvcom.a(armVIC.o)
 .glue_7t       0x00021ea8        0x0 c:/espardino_tmp/bin/../lib/gcc/arm-elf/4.4.0/../../../../arm-elf/lib\libmicro214x.a(leds.o)
 .glue_7t       0x00021ea8        0x0 c:/espardino_tmp/bin/../lib/gcc/arm-elf/4.4.0/../../../../arm-elf/lib\libmicro214x.a(adc.o)
 .glue_7t       0x00021ea8        0x0 c:/espardino_tmp/bin/../lib/gcc/arm-elf/4.4.0/../../../../arm-elf/lib\libmicro214x.a(sysclocks.o)
 .glue_7t       0x00021ea8        0x0 c:/espardino_tmp/bin/../lib/gcc/arm-elf/4.4.0/../../../../arm-elf/lib\libmicro214x.a(iolib.o)
 .glue_7t       0x00021ea8        0x0 c:/espardino_tmp/bin/../lib/gcc/arm-elf/4.4.0/../../../../arm-elf/lib\libmicro214x.a(rtc.o)
 .glue_7t       0x00021ea8        0x0 c:/espardino_tmp/bin/../lib/gcc/arm-elf/4.4.0/../../../../arm-elf/lib\libmicro214x.a(miniprintf.o)
 .glue_7t       0x00021ea8        0x0 c:/espardino_tmp/bin/../lib/gcc/arm-elf/4.4.0/../../../../arm-elf/lib/thumb/interwork\libm.a(lib_a-s_atan.o)
 .glue_7t       0x00021ea8        0x0 c:/espardino_tmp/bin/../lib/gcc/arm-elf/4.4.0/../../../../arm-elf/lib/thumb/interwork\libm.a(lib_a-s_ceil.o)
 .glue_7t       0x00021ea8        0x0 c:/espardino_tmp/bin/../lib/gcc/arm-elf/4.4.0/../../../../arm-elf/lib/thumb/interwork\libm.a(lib_a-s_cos.o)
 .glue_7t       0x00021ea8        0x0 c:/espardino_tmp/bin/../lib/gcc/arm-elf/4.4.0/../../../../arm-elf/lib/thumb/interwork\libm.a(lib_a-s_fabs.o)
 .glue_7t       0x00021ea8        0x0 c:/espardino_tmp/bin/../lib/gcc/arm-elf/4.4.0/../../../../arm-elf/lib/thumb/interwork\libm.a(lib_a-s_floor.o)
 .glue_7t       0x00021ea8        0x0 c:/espardino_tmp/bin/../lib/gcc/arm-elf/4.4.0/../../../../arm-elf/lib/thumb/interwork\libm.a(lib_a-s_frexp.o)
 .glue_7t       0x00021ea8        0x0 c:/espardino_tmp/bin/../lib/gcc/arm-elf/4.4.0/../../../../arm-elf/lib/thumb/interwork\libm.a(lib_a-s_ldexp.o)
 .glue_7t       0x00021ea8        0x0 c:/espardino_tmp/bin/../lib/gcc/arm-elf/4.4.0/../../../../arm-elf/lib/thumb/interwork\libm.a(lib_a-s_modf.o)
 .glue_7t       0x00021ea8        0x0 c:/espardino_tmp/bin/../lib/gcc/arm-elf/4.4.0/../../../../arm-elf/lib/thumb/interwork\libm.a(lib_a-s_scalbn.o)
 .glue_7t       0x00021ea8        0x0 c:/espardino_tmp/bin/../lib/gcc/arm-elf/4.4.0/../../../../arm-elf/lib/thumb/interwork\libm.a(lib_a-s_sin.o)
 .glue_7t       0x00021ea8        0x0 c:/espardino_tmp/bin/../lib/gcc/arm-elf/4.4.0/../../../../arm-elf/lib/thumb/interwork\libm.a(lib_a-s_tan.o)
 .glue_7t       0x00021ea8        0x0 c:/espardino_tmp/bin/../lib/gcc/arm-elf/4.4.0/../../../../arm-elf/lib/thumb/interwork\libm.a(lib_a-s_tanh.o)
 .glue_7t       0x00021ea8        0x0 c:/espardino_tmp/bin/../lib/gcc/arm-elf/4.4.0/../../../../arm-elf/lib/thumb/interwork\libm.a(lib_a-w_acos.o)
 .glue_7t       0x00021ea8        0x0 c:/espardino_tmp/bin/../lib/gcc/arm-elf/4.4.0/../../../../arm-elf/lib/thumb/interwork\libm.a(lib_a-w_asin.o)
 .glue_7t       0x00021ea8        0x0 c:/espardino_tmp/bin/../lib/gcc/arm-elf/4.4.0/../../../../arm-elf/lib/thumb/interwork\libm.a(lib_a-w_atan2.o)
 .glue_7t       0x00021ea8        0x0 c:/espardino_tmp/bin/../lib/gcc/arm-elf/4.4.0/../../../../arm-elf/lib/thumb/interwork\libm.a(lib_a-w_cosh.o)
 .glue_7t       0x00021ea8        0x0 c:/espardino_tmp/bin/../lib/gcc/arm-elf/4.4.0/../../../../arm-elf/lib/thumb/interwork\libm.a(lib_a-w_exp.o)
 .glue_7t       0x00021ea8        0x0 c:/espardino_tmp/bin/../lib/gcc/arm-elf/4.4.0/../../../../arm-elf/lib/thumb/interwork\libm.a(lib_a-w_fmod.o)
 .glue_7t       0x00021ea8        0x0 c:/espardino_tmp/bin/../lib/gcc/arm-elf/4.4.0/../../../../arm-elf/lib/thumb/interwork\libm.a(lib_a-w_log.o)
 .glue_7t       0x00021ea8        0x0 c:/espardino_tmp/bin/../lib/gcc/arm-elf/4.4.0/../../../../arm-elf/lib/thumb/interwork\libm.a(lib_a-w_log10.o)
 .glue_7t       0x00021ea8        0x0 c:/espardino_tmp/bin/../lib/gcc/arm-elf/4.4.0/../../../../arm-elf/lib/thumb/interwork\libm.a(lib_a-w_pow.o)
 .glue_7t       0x00021ea8        0x0 c:/espardino_tmp/bin/../lib/gcc/arm-elf/4.4.0/../../../../arm-elf/lib/thumb/interwork\libm.a(lib_a-w_sinh.o)
 .glue_7t       0x00021ea8        0x0 c:/espardino_tmp/bin/../lib/gcc/arm-elf/4.4.0/../../../../arm-elf/lib/thumb/interwork\libm.a(lib_a-w_sqrt.o)
 .glue_7t       0x00021ea8        0x0 c:/espardino_tmp/bin/../lib/gcc/arm-elf/4.4.0/../../../../arm-elf/lib/thumb/interwork\libm.a(lib_a-e_acos.o)
 .glue_7t       0x00021ea8        0x0 c:/espardino_tmp/bin/../lib/gcc/arm-elf/4.4.0/../../../../arm-elf/lib/thumb/interwork\libm.a(lib_a-e_asin.o)
 .glue_7t       0x00021ea8        0x0 c:/espardino_tmp/bin/../lib/gcc/arm-elf/4.4.0/../../../../arm-elf/lib/thumb/interwork\libm.a(lib_a-e_atan2.o)
 .glue_7t       0x00021ea8        0x0 c:/espardino_tmp/bin/../lib/gcc/arm-elf/4.4.0/../../../../arm-elf/lib/thumb/interwork\libm.a(lib_a-e_cosh.o)
 .glue_7t       0x00021ea8        0x0 c:/espardino_tmp/bin/../lib/gcc/arm-elf/4.4.0/../../../../arm-elf/lib/thumb/interwork\libm.a(lib_a-e_exp.o)
 .glue_7t       0x00021ea8        0x0 c:/espardino_tmp/bin/../lib/gcc/arm-elf/4.4.0/../../../../arm-elf/lib/thumb/interwork\libm.a(lib_a-e_fmod.o)
 .glue_7t       0x00021ea8        0x0 c:/espardino_tmp/bin/../lib/gcc/arm-elf/4.4.0/../../../../arm-elf/lib/thumb/interwork\libm.a(lib_a-e_log.o)
 .glue_7t       0x00021ea8        0x0 c:/espardino_tmp/bin/../lib/gcc/arm-elf/4.4.0/../../../../arm-elf/lib/thumb/interwork\libm.a(lib_a-e_log10.o)
 .glue_7t       0x00021ea8        0x0 c:/espardino_tmp/bin/../lib/gcc/arm-elf/4.4.0/../../../../arm-elf/lib/thumb/interwork\libm.a(lib_a-e_pow.o)
 .glue_7t       0x00021ea8        0x0 c:/espardino_tmp/bin/../lib/gcc/arm-elf/4.4.0/../../../../arm-elf/lib/thumb/interwork\libm.a(lib_a-e_rem_pio2.o)
 .glue_7t       0x00021ea8        0x0 c:/espardino_tmp/bin/../lib/gcc/arm-elf/4.4.0/../../../../arm-elf/lib/thumb/interwork\libm.a(lib_a-e_sinh.o)
 .glue_7t       0x00021ea8        0x0 c:/espardino_tmp/bin/../lib/gcc/arm-elf/4.4.0/../../../../arm-elf/lib/thumb/interwork\libm.a(lib_a-e_sqrt.o)
 .glue_7t       0x00021ea8        0x0 c:/espardino_tmp/bin/../lib/gcc/arm-elf/4.4.0/../../../../arm-elf/lib/thumb/interwork\libm.a(lib_a-k_cos.o)
 .glue_7t       0x00021ea8        0x0 c:/espardino_tmp/bin/../lib/gcc/arm-elf/4.4.0/../../../../arm-elf/lib/thumb/interwork\libm.a(lib_a-k_rem_pio2.o)
 .glue_7t       0x00021ea8        0x0 c:/espardino_tmp/bin/../lib/gcc/arm-elf/4.4.0/../../../../arm-elf/lib/thumb/interwork\libm.a(lib_a-k_sin.o)
 .glue_7t       0x00021ea8        0x0 c:/espardino_tmp/bin/../lib/gcc/arm-elf/4.4.0/../../../../arm-elf/lib/thumb/interwork\libm.a(lib_a-k_tan.o)
 .glue_7t       0x00021ea8        0x0 c:/espardino_tmp/bin/../lib/gcc/arm-elf/4.4.0/../../../../arm-elf/lib/thumb/interwork\libm.a(lib_a-s_copysign.o)
 .glue_7t       0x00021ea8        0x0 c:/espardino_tmp/bin/../lib/gcc/arm-elf/4.4.0/../../../../arm-elf/lib/thumb/interwork\libm.a(lib_a-s_expm1.o)
 .glue_7t       0x00021ea8        0x0 c:/espardino_tmp/bin/../lib/gcc/arm-elf/4.4.0/../../../../arm-elf/lib/thumb/interwork\libm.a(lib_a-s_finite.o)
 .glue_7t       0x00021ea8        0x0 c:/espardino_tmp/bin/../lib/gcc/arm-elf/4.4.0/../../../../arm-elf/lib/thumb/interwork\libm.a(lib_a-s_isnand.o)
 .glue_7t       0x00021ea8        0x0 c:/espardino_tmp/bin/../lib/gcc/arm-elf/4.4.0/../../../../arm-elf/lib/thumb/interwork\libm.a(lib_a-s_lib_ver.o)
 .glue_7t       0x00021ea8        0x0 c:/espardino_tmp/bin/../lib/gcc/arm-elf/4.4.0/../../../../arm-elf/lib/thumb/interwork\libm.a(lib_a-s_matherr.o)
 .glue_7t       0x00021ea8        0x0 c:/espardino_tmp/bin/../lib/gcc/arm-elf/4.4.0/../../../../arm-elf/lib/thumb/interwork\libm.a(lib_a-s_nan.o)
 .glue_7t       0x00021ea8        0x0 c:/espardino_tmp/bin/../lib/gcc/arm-elf/4.4.0/../../../../arm-elf/lib/thumb/interwork\libm.a(lib_a-s_rint.o)
 .glue_7t       0x00021ea8        0x0 c:/espardino_tmp/bin/../lib/gcc/arm-elf/4.4.0/thumb/interwork\libgcc.a(_udivsi3.o)
 .glue_7t       0x00021ea8        0x0 c:/espardino_tmp/bin/../lib/gcc/arm-elf/4.4.0/thumb/interwork\libgcc.a(_divsi3.o)
 .glue_7t       0x00021ea8        0x0 c:/espardino_tmp/bin/../lib/gcc/arm-elf/4.4.0/thumb/interwork\libgcc.a(_umodsi3.o)
 .glue_7t       0x00021ea8        0x0 c:/espardino_tmp/bin/../lib/gcc/arm-elf/4.4.0/thumb/interwork\libgcc.a(_modsi3.o)
 .glue_7t       0x00021ea8        0x0 c:/espardino_tmp/bin/../lib/gcc/arm-elf/4.4.0/thumb/interwork\libgcc.a(_dvmd_tls.o)
 .glue_7t       0x00021ea8        0x0 c:/espardino_tmp/bin/../lib/gcc/arm-elf/4.4.0/thumb/interwork\libgcc.a(_arm_muldivdf3.o)
 .glue_7t       0x00021ea8        0x0 c:/espardino_tmp/bin/../lib/gcc/arm-elf/4.4.0/thumb/interwork\libgcc.a(_arm_cmpdf2.o)
 .glue_7t       0x00021ea8        0x0 c:/espardino_tmp/bin/../lib/gcc/arm-elf/4.4.0/thumb/interwork\libgcc.a(_arm_fixdfsi.o)
 .glue_7t       0x00021ea8        0x0 c:/espardino_tmp/bin/../lib/gcc/arm-elf/4.4.0/thumb/interwork\libgcc.a(_arm_fixunsdfsi.o)
 .glue_7t       0x00021ea8        0x0 c:/espardino_tmp/bin/../lib/gcc/arm-elf/4.4.0/../../../../arm-elf/lib/thumb/interwork\libg.a(lib_a-ctype_.o)
 .glue_7t       0x00021ea8        0x0 c:/espardino_tmp/bin/../lib/gcc/arm-elf/4.4.0/../../../../arm-elf/lib/thumb/interwork\libg.a(lib_a-errno.o)
 .glue_7t       0x00021ea8        0x0 c:/espardino_tmp/bin/../lib/gcc/arm-elf/4.4.0/../../../../arm-elf/lib/thumb/interwork\libg.a(lib_a-impure.o)
 .glue_7t       0x00021ea8        0x0 c:/espardino_tmp/bin/../lib/gcc/arm-elf/4.4.0/../../../../arm-elf/lib/thumb/interwork\libg.a(lib_a-locale.o)
 .glue_7t       0x00021ea8        0x0 c:/espardino_tmp/bin/../lib/gcc/arm-elf/4.4.0/../../../../arm-elf/lib/thumb/interwork\libg.a(lib_a-malloc.o)
 .glue_7t       0x00021ea8        0x0 c:/espardino_tmp/bin/../lib/gcc/arm-elf/4.4.0/../../../../arm-elf/lib/thumb/interwork\libg.a(lib_a-mallocr.o)
 .glue_7t       0x00021ea8        0x0 c:/espardino_tmp/bin/../lib/gcc/arm-elf/4.4.0/../../../../arm-elf/lib/thumb/interwork\libg.a(lib_a-memcmp.o)
 .glue_7t       0x00021ea8        0x0 c:/espardino_tmp/bin/../lib/gcc/arm-elf/4.4.0/../../../../arm-elf/lib/thumb/interwork\libg.a(lib_a-memcpy.o)
 .glue_7t       0x00021ea8        0x0 c:/espardino_tmp/bin/../lib/gcc/arm-elf/4.4.0/../../../../arm-elf/lib/thumb/interwork\libg.a(lib_a-mlock.o)
 .glue_7t       0x00021ea8        0x0 c:/espardino_tmp/bin/../lib/gcc/arm-elf/4.4.0/../../../../arm-elf/lib/thumb/interwork\libg.a(lib_a-rand.o)
 .glue_7t       0x00021ea8        0x0 c:/espardino_tmp/bin/../lib/gcc/arm-elf/4.4.0/../../../../arm-elf/lib/thumb/interwork\libg.a(lib_a-realloc.o)
 .glue_7t       0x00021ea8        0x0 c:/espardino_tmp/bin/../lib/gcc/arm-elf/4.4.0/../../../../arm-elf/lib/thumb/interwork\libg.a(lib_a-reallocr.o)
 .glue_7t       0x00021ea8        0x0 c:/espardino_tmp/bin/../lib/gcc/arm-elf/4.4.0/../../../../arm-elf/lib/thumb/interwork\libg.a(lib_a-sbrkr.o)
 .glue_7t       0x00021ea8        0x0 c:/espardino_tmp/bin/../lib/gcc/arm-elf/4.4.0/../../../../arm-elf/lib/thumb/interwork\libg.a(lib_a-setjmp.o)
 .glue_7t       0x00021ea8        0x0 c:/espardino_tmp/bin/../lib/gcc/arm-elf/4.4.0/../../../../arm-elf/lib/thumb/interwork\libg.a(lib_a-strcat.o)
 .glue_7t       0x00021ea8        0x0 c:/espardino_tmp/bin/../lib/gcc/arm-elf/4.4.0/../../../../arm-elf/lib/thumb/interwork\libg.a(lib_a-strchr.o)
 .glue_7t       0x00021ea8        0x0 c:/espardino_tmp/bin/../lib/gcc/arm-elf/4.4.0/../../../../arm-elf/lib/thumb/interwork\libg.a(lib_a-strcmp.o)
 .glue_7t       0x00021ea8        0x0 c:/espardino_tmp/bin/../lib/gcc/arm-elf/4.4.0/../../../../arm-elf/lib/thumb/interwork\libg.a(lib_a-strcoll.o)
 .glue_7t       0x00021ea8        0x0 c:/espardino_tmp/bin/../lib/gcc/arm-elf/4.4.0/../../../../arm-elf/lib/thumb/interwork\libg.a(lib_a-strcpy.o)
 .glue_7t       0x00021ea8        0x0 c:/espardino_tmp/bin/../lib/gcc/arm-elf/4.4.0/../../../../arm-elf/lib/thumb/interwork\libg.a(lib_a-strcspn.o)
 .glue_7t       0x00021ea8        0x0 c:/espardino_tmp/bin/../lib/gcc/arm-elf/4.4.0/../../../../arm-elf/lib/thumb/interwork\libg.a(lib_a-strlen.o)
 .glue_7t       0x00021ea8        0x0 c:/espardino_tmp/bin/../lib/gcc/arm-elf/4.4.0/../../../../arm-elf/lib/thumb/interwork\libg.a(lib_a-strncat.o)
 .glue_7t       0x00021ea8        0x0 c:/espardino_tmp/bin/../lib/gcc/arm-elf/4.4.0/../../../../arm-elf/lib/thumb/interwork\libg.a(lib_a-strncpy.o)
 .glue_7t       0x00021ea8        0x0 c:/espardino_tmp/bin/../lib/gcc/arm-elf/4.4.0/../../../../arm-elf/lib/thumb/interwork\libg.a(lib_a-strstr.o)
 .glue_7t       0x00021ea8        0x0 c:/espardino_tmp/bin/../lib/gcc/arm-elf/4.4.0/../../../../arm-elf/lib/thumb/interwork\libg.a(lib_a-strtod.o)
 .glue_7t       0x00021ea8        0x0 c:/espardino_tmp/bin/../lib/gcc/arm-elf/4.4.0/../../../../arm-elf/lib/thumb/interwork\libg.a(lib_a-strtoul.o)
 .glue_7t       0x00021ea8        0x0 c:/espardino_tmp/bin/../lib/gcc/arm-elf/4.4.0/../../../../arm-elf/lib/thumb/interwork\libg.a(lib_a-syscalls.o)
 .glue_7t       0x00021ea8        0x0 c:/espardino_tmp/bin/../lib/gcc/arm-elf/4.4.0/../../../../arm-elf/lib/thumb/interwork\libg.a(lib_a-tmpfile.o)
 .glue_7t       0x00021ea8        0x0 c:/espardino_tmp/bin/../lib/gcc/arm-elf/4.4.0/../../../../arm-elf/lib/thumb/interwork\libg.a(lib_a-tmpnam.o)
 .glue_7t       0x00021ea8        0x0 c:/espardino_tmp/bin/../lib/gcc/arm-elf/4.4.0/../../../../arm-elf/lib/thumb/interwork\libg.a(lib_a-closer.o)
 .glue_7t       0x00021ea8        0x0 c:/espardino_tmp/bin/../lib/gcc/arm-elf/4.4.0/../../../../arm-elf/lib/thumb/interwork\libg.a(lib_a-fdopen.o)
 .glue_7t       0x00021ea8        0x0 c:/espardino_tmp/bin/../lib/gcc/arm-elf/4.4.0/../../../../arm-elf/lib/thumb/interwork\libg.a(lib_a-findfp.o)
 .glue_7t       0x00021ea8        0x0 c:/espardino_tmp/bin/../lib/gcc/arm-elf/4.4.0/../../../../arm-elf/lib/thumb/interwork\libg.a(lib_a-flags.o)
 .glue_7t       0x00021ea8        0x0 c:/espardino_tmp/bin/../lib/gcc/arm-elf/4.4.0/../../../../arm-elf/lib/thumb/interwork\libg.a(lib_a-freer.o)
 .glue_7t       0x00021ea8        0x0 c:/espardino_tmp/bin/../lib/gcc/arm-elf/4.4.0/../../../../arm-elf/lib/thumb/interwork\libg.a(lib_a-fwalk.o)
 .glue_7t       0x00021ea8        0x0 c:/espardino_tmp/bin/../lib/gcc/arm-elf/4.4.0/../../../../arm-elf/lib/thumb/interwork\libg.a(lib_a-gdtoa-gethex.o)
 .glue_7t       0x00021ea8        0x0 c:/espardino_tmp/bin/../lib/gcc/arm-elf/4.4.0/../../../../arm-elf/lib/thumb/interwork\libg.a(lib_a-gdtoa-hexnan.o)
 .glue_7t       0x00021ea8        0x0 c:/espardino_tmp/bin/../lib/gcc/arm-elf/4.4.0/../../../../arm-elf/lib/thumb/interwork\libg.a(lib_a-getenv.o)
 .glue_7t       0x00021ea8        0x0 c:/espardino_tmp/bin/../lib/gcc/arm-elf/4.4.0/../../../../arm-elf/lib/thumb/interwork\libg.a(lib_a-getenv_r.o)
 .glue_7t       0x00021ea8        0x0 c:/espardino_tmp/bin/../lib/gcc/arm-elf/4.4.0/../../../../arm-elf/lib/thumb/interwork\libg.a(lib_a-memchr.o)
 .glue_7t       0x00021ea8        0x0 c:/espardino_tmp/bin/../lib/gcc/arm-elf/4.4.0/../../../../arm-elf/lib/thumb/interwork\libg.a(lib_a-memmove.o)
 .glue_7t       0x00021ea8        0x0 c:/espardino_tmp/bin/../lib/gcc/arm-elf/4.4.0/../../../../arm-elf/lib/thumb/interwork\libg.a(lib_a-memset.o)
 .glue_7t       0x00021ea8        0x0 c:/espardino_tmp/bin/../lib/gcc/arm-elf/4.4.0/../../../../arm-elf/lib/thumb/interwork\libg.a(lib_a-mprec.o)
 .glue_7t       0x00021ea8        0x0 c:/espardino_tmp/bin/../lib/gcc/arm-elf/4.4.0/../../../../arm-elf/lib/thumb/interwork\libg.a(lib_a-openr.o)
 .glue_7t       0x00021ea8        0x0 c:/espardino_tmp/bin/../lib/gcc/arm-elf/4.4.0/../../../../arm-elf/lib/thumb/interwork\libg.a(lib_a-reent.o)
 .glue_7t       0x00021ea8        0x0 c:/espardino_tmp/bin/../lib/gcc/arm-elf/4.4.0/../../../../arm-elf/lib/thumb/interwork\libg.a(lib_a-remove.o)
 .glue_7t       0x00021ea8        0x0 c:/espardino_tmp/bin/../lib/gcc/arm-elf/4.4.0/../../../../arm-elf/lib/thumb/interwork\libg.a(lib_a-sf_nan.o)
 .glue_7t       0x00021ea8        0x0 c:/espardino_tmp/bin/../lib/gcc/arm-elf/4.4.0/../../../../arm-elf/lib/thumb/interwork\libg.a(lib_a-signalr.o)
 .glue_7t       0x00021ea8        0x0 c:/espardino_tmp/bin/../lib/gcc/arm-elf/4.4.0/../../../../arm-elf/lib/thumb/interwork\libg.a(lib_a-sprintf.o)
 .glue_7t       0x00021ea8        0x0 c:/espardino_tmp/bin/../lib/gcc/arm-elf/4.4.0/../../../../arm-elf/lib/thumb/interwork\libg.a(lib_a-stdio.o)
 .glue_7t       0x00021ea8        0x0 c:/espardino_tmp/bin/../lib/gcc/arm-elf/4.4.0/../../../../arm-elf/lib/thumb/interwork\libg.a(lib_a-strncmp.o)
 .glue_7t       0x00021ea8        0x0 c:/espardino_tmp/bin/../lib/gcc/arm-elf/4.4.0/../../../../arm-elf/lib/thumb/interwork\libg.a(lib_a-svfprintf.o)
 .glue_7t       0x00021ea8        0x0 c:/espardino_tmp/bin/../lib/gcc/arm-elf/4.4.0/../../../../arm-elf/lib/thumb/interwork\libg.a(lib_a-unlinkr.o)
 .glue_7t       0x00021ea8        0x0 c:/espardino_tmp/bin/../lib/gcc/arm-elf/4.4.0/../../../../arm-elf/lib/thumb/interwork\libg.a(lib_a-writer.o)
 .glue_7t       0x00021ea8        0x0 c:/espardino_tmp/bin/../lib/gcc/arm-elf/4.4.0/../../../../arm-elf/lib/thumb/interwork\libg.a(lib_a-callocr.o)
 .glue_7t       0x00021ea8        0x0 c:/espardino_tmp/bin/../lib/gcc/arm-elf/4.4.0/../../../../arm-elf/lib/thumb/interwork\libg.a(lib_a-dtoa.o)
 .glue_7t       0x00021ea8        0x0 c:/espardino_tmp/bin/../lib/gcc/arm-elf/4.4.0/../../../../arm-elf/lib/thumb/interwork\libg.a(lib_a-environ.o)
 .glue_7t       0x00021ea8        0x0 c:/espardino_tmp/bin/../lib/gcc/arm-elf/4.4.0/../../../../arm-elf/lib/thumb/interwork\libg.a(lib_a-envlock.o)
 .glue_7t       0x00021ea8        0x0 c:/espardino_tmp/bin/../lib/gcc/arm-elf/4.4.0/../../../../arm-elf/lib/thumb/interwork\libg.a(lib_a-fclose.o)
 .glue_7t       0x00021ea8        0x0 c:/espardino_tmp/bin/../lib/gcc/arm-elf/4.4.0/../../../../arm-elf/lib/thumb/interwork\libg.a(lib_a-fflush.o)
 .glue_7t       0x00021ea8        0x0 c:/espardino_tmp/bin/../lib/gcc/arm-elf/4.4.0/../../../../arm-elf/lib/thumb/interwork\libg.a(lib_a-lseekr.o)
 .glue_7t       0x00021ea8        0x0 c:/espardino_tmp/bin/../lib/gcc/arm-elf/4.4.0/../../../../arm-elf/lib/thumb/interwork\libg.a(lib_a-readr.o)
 .glue_7t       0x00021ea8        0x0 c:/espardino_tmp/bin/../lib/gcc/arm-elf/4.4.0/../../../../arm-elf/lib/thumb/interwork\libg.a(lib_a-s_isinfd.o)
 .glue_7t       0x00021ea8        0x0 c:/espardino_tmp/bin/../lib/gcc/arm-elf/4.4.0/thumb/interwork\libgcc.a(_arm_truncdfsf2.o)
 .glue_7t       0x00021ea8       0xb0 c:/espardino_tmp/bin/../lib/gcc/arm-elf/4.4.0/thumb/interwork\libgcc.a(_muldi3.o)
                0x00021f30                ____gtdf2_from_thumb
                0x00021f20                ____subdf3_from_thumb
                0x00021f3c                ____ltdf2_change_to_arm
                0x00021f28                ____ledf2_from_thumb
                0x00021f24                ____subdf3_change_to_arm
                0x00021f4c                ____gedf2_change_to_arm
                0x00021eb0                __xputs_from_thumb
                0x00021ee4                __VCOM_putchar_nl_change_to_arm
                0x00021f10                ____eqdf2_from_thumb
                0x00021eac                __xprintf_change_to_arm
                0x00021ef8                ____fixdfsi_from_thumb
                0x00021f0c                ____divdf3_change_to_arm
                0x00021f48                ____gedf2_from_thumb
                0x00021f18                ____floatunsidf_from_thumb
                0x00021f50                ____truncdfsf2_from_thumb
                0x00021ef0                ____fixunsdfsi_from_thumb
                0x00021eec                ____muldf3_change_to_arm
                0x00021ee0                __VCOM_putchar_nl_from_thumb
                0x00021efc                ____fixdfsi_change_to_arm
                0x00021f1c                ____floatunsidf_change_to_arm
                0x00021f08                ____divdf3_from_thumb
                0x00021eb4                __xputs_change_to_arm
                0x00021ecc                __VCOM_getchar_change_to_arm
                0x00021edc                __print_change_to_arm
                0x00021ef4                ____fixunsdfsi_change_to_arm
                0x00021ed4                ____adddf3_change_to_arm
                0x00021f34                ____gtdf2_change_to_arm
                0x00021f54                ____truncdfsf2_change_to_arm
                0x00021ed8                __print_from_thumb
                0x00021ec0                __xprintf_output_from_thumb
                0x00021f00                ____floatsidf_from_thumb
                0x00021f38                ____ltdf2_from_thumb
                0x00021f44                ____nedf2_change_to_arm
                0x00021ed0                ____adddf3_from_thumb
                0x00021f14                ____eqdf2_change_to_arm
                0x00021eb8                __VCOM_init_from_thumb
                0x00021ea8                __xprintf_from_thumb
                0x00021ee8                ____muldf3_from_thumb
                0x00021f40                ____nedf2_from_thumb
                0x00021ebc                __VCOM_init_change_to_arm
                0x00021f2c                ____ledf2_change_to_arm
                0x00021f04                ____floatsidf_change_to_arm
                0x00021ec8                __VCOM_getchar_from_thumb
                0x00021ec4                __xprintf_output_change_to_arm
 *(.rodata)
 .rodata        0x00021f58       0xa0 c:/espardino_tmp/bin/../lib/gcc/arm-elf/4.4.0/../../../../arm-elf/lib\liblua.a(lualib.o)
 .rodata        0x00021ff8      0xa30 c:/espardino_tmp/bin/../lib/gcc/arm-elf/4.4.0/../../../../arm-elf/lib\liblua.a(all.o)
                0x000225f4                luaX_tokens
                0x000223a4                luaO_nilobject_
                0x000223dc                lua_ident
                0x000223b0                luaT_typenames
                0x0002246c                luaP_opmodes
                0x0002298c                luaP_opnames
 .rodata        0x00022a28       0xd8 c:/espardino_tmp/bin/../lib/gcc/arm-elf/4.4.0/../../../../arm-elf/lib/thumb/interwork\libffs.a(ff.o)
 .rodata        0x00022b00       0x3c c:/espardino_tmp/bin/../lib/gcc/arm-elf/4.4.0/../../../../arm-elf/lib/thumb/interwork\libffs.a(sd_spi_lpc2000.o)
 .rodata        0x00022b3c      0x4c0 c:/espardino_tmp/bin/../lib/gcc/arm-elf/4.4.0/../../../../arm-elf/lib/thumb/interwork\libffs.a(ccsbcs.o)
 .rodata        0x00022ffc       0x90 c:/espardino_tmp/bin/../lib/gcc/arm-elf/4.4.0/../../../../arm-elf/lib/thumb/interwork\libvcom.a(main_serial.o)
 .rodata        0x0002308c       0x28 c:/espardino_tmp/bin/../lib/gcc/arm-elf/4.4.0/../../../../arm-elf/lib/thumb/interwork\libvcom.a(usbstdreq.o)
 .rodata        0x000230b4       0x20 c:/espardino_tmp/bin/../lib/gcc/arm-elf/4.4.0/../../../../arm-elf/lib\libmicro214x.a(adc.o)
 .rodata        0x000230d4       0x40 c:/espardino_tmp/bin/../lib/gcc/arm-elf/4.4.0/../../../../arm-elf/lib/thumb/interwork\libm.a(lib_a-s_atan.o)
 .rodata        0x00023114       0x30 c:/espardino_tmp/bin/../lib/gcc/arm-elf/4.4.0/../../../../arm-elf/lib/thumb/interwork\libm.a(lib_a-e_exp.o)
 .rodata        0x00023144       0x10 c:/espardino_tmp/bin/../lib/gcc/arm-elf/4.4.0/../../../../arm-elf/lib/thumb/interwork\libm.a(lib_a-e_fmod.o)
 .rodata        0x00023154       0x30 c:/espardino_tmp/bin/../lib/gcc/arm-elf/4.4.0/../../../../arm-elf/lib/thumb/interwork\libm.a(lib_a-e_pow.o)
 .rodata        0x00023184      0x188 c:/espardino_tmp/bin/../lib/gcc/arm-elf/4.4.0/../../../../arm-elf/lib/thumb/interwork\libm.a(lib_a-e_rem_pio2.o)
 .rodata        0x0002330c       0x50 c:/espardino_tmp/bin/../lib/gcc/arm-elf/4.4.0/../../../../arm-elf/lib/thumb/interwork\libm.a(lib_a-k_rem_pio2.o)
 .rodata        0x0002335c       0x10 c:/espardino_tmp/bin/../lib/gcc/arm-elf/4.4.0/../../../../arm-elf/lib/thumb/interwork\libm.a(lib_a-s_rint.o)
 .rodata        0x0002336c      0x104 c:/espardino_tmp/bin/../lib/gcc/arm-elf/4.4.0/../../../../arm-elf/lib/thumb/interwork\libg.a(lib_a-ctype_.o)
                0x0002336c                _ctype_
 .rodata        0x00023470        0x4 c:/espardino_tmp/bin/../lib/gcc/arm-elf/4.4.0/../../../../arm-elf/lib/thumb/interwork\libg.a(lib_a-impure.o)
                0x00023470                _global_impure_ptr
 .rodata        0x00023474       0x34 c:/espardino_tmp/bin/../lib/gcc/arm-elf/4.4.0/../../../../arm-elf/lib/thumb/interwork\libg.a(lib_a-locale.o)
 .rodata        0x000234a8       0xfc c:/espardino_tmp/bin/../lib/gcc/arm-elf/4.4.0/../../../../arm-elf/lib/thumb/interwork\libg.a(lib_a-strtod.o)
 .rodata        0x000235a4      0x124 c:/espardino_tmp/bin/../lib/gcc/arm-elf/4.4.0/../../../../arm-elf/lib/thumb/interwork\libg.a(lib_a-mprec.o)
                0x000236a0                __mprec_tinytens
                0x000235a4                __mprec_tens
                0x00023678                __mprec_bigtens
 .rodata        0x000236c8      0x184 c:/espardino_tmp/bin/../lib/gcc/arm-elf/4.4.0/../../../../arm-elf/lib/thumb/interwork\libg.a(lib_a-svfprintf.o)
 *(.rodata*)
 .rodata.str1.1
                0x0002384c      0x11b main.o
                                0x11d (size before relaxing)
 .rodata.str1.1
                0x00023967        0x9 c:/espardino_tmp/bin/../lib/gcc/arm-elf/4.4.0/../../../../arm-elf/lib\liblua.a(lua_io_wrappers.o)
                                  0xb (size before relaxing)
 .rodata.str1.1
                0x00023970       0xba c:/espardino_tmp/bin/../lib/gcc/arm-elf/4.4.0/../../../../arm-elf/lib\liblua.a(lualib.o)
                                 0xc1 (size before relaxing)
 .rodata.str1.1
                0x00023a2a       0x83 c:/espardino_tmp/bin/../lib/gcc/arm-elf/4.4.0/../../../../arm-elf/lib\liblua.a(lualib_console.o)
                                 0x88 (size before relaxing)
 .rodata.str1.1
                0x00023aad      0xd14 c:/espardino_tmp/bin/../lib/gcc/arm-elf/4.4.0/../../../../arm-elf/lib\liblua.a(all.o)
                                0xe36 (size before relaxing)
 .rodata.str1.1
                0x000247c1       0xc2 c:/espardino_tmp/bin/../lib/gcc/arm-elf/4.4.0/../../../../arm-elf/lib\liblua.a(lualib_bit.o)
                                 0xd4 (size before relaxing)
 .rodata.str1.1
                0x00024883       0x38 c:/espardino_tmp/bin/../lib/gcc/arm-elf/4.4.0/../../../../arm-elf/lib/thumb/interwork\libffs.a(ff.o)
 .rodata.str1.1
                0x00000000        0x7 c:/espardino_tmp/bin/../lib/gcc/arm-elf/4.4.0/../../../../arm-elf/lib\libmicro214x.a(miniprintf.o)
 *fill*         0x000248bb        0x1 00
 .rodata.str1.4
                0x000248bc        0x5 c:/espardino_tmp/bin/../lib/gcc/arm-elf/4.4.0/../../../../arm-elf/lib/thumb/interwork\libm.a(lib_a-w_acos.o)
                                  0xc (size before relaxing)
 *fill*         0x000248c1        0x3 00
 .rodata.str1.4
                0x000248c4        0x5 c:/espardino_tmp/bin/../lib/gcc/arm-elf/4.4.0/../../../../arm-elf/lib/thumb/interwork\libm.a(lib_a-w_asin.o)
                                  0xc (size before relaxing)
 *fill*         0x000248c9        0x3 00
 .rodata.str1.4
                0x000248cc        0x5 c:/espardino_tmp/bin/../lib/gcc/arm-elf/4.4.0/../../../../arm-elf/lib/thumb/interwork\libm.a(lib_a-w_cosh.o)
                                  0x8 (size before relaxing)
 *fill*         0x000248d1        0x3 00
 .rodata.str1.4
                0x000248d4        0x4 c:/espardino_tmp/bin/../lib/gcc/arm-elf/4.4.0/../../../../arm-elf/lib/thumb/interwork\libm.a(lib_a-w_exp.o)
 .rodata.str1.4
                0x000248d8        0x5 c:/espardino_tmp/bin/../lib/gcc/arm-elf/4.4.0/../../../../arm-elf/lib/thumb/interwork\libm.a(lib_a-w_fmod.o)
                                  0x8 (size before relaxing)
 *fill*         0x000248dd        0x3 00
 .rodata.str1.4
                0x000248e0        0x4 c:/espardino_tmp/bin/../lib/gcc/arm-elf/4.4.0/../../../../arm-elf/lib/thumb/interwork\libm.a(lib_a-w_log.o)
                                  0x8 (size before relaxing)
 .rodata.str1.4
                0x000248e4        0x6 c:/espardino_tmp/bin/../lib/gcc/arm-elf/4.4.0/../../../../arm-elf/lib/thumb/interwork\libm.a(lib_a-w_log10.o)
                                  0xc (size before relaxing)
 *fill*         0x000248ea        0x2 00
 .rodata.str1.4
                0x000248ec        0x4 c:/espardino_tmp/bin/../lib/gcc/arm-elf/4.4.0/../../../../arm-elf/lib/thumb/interwork\libm.a(lib_a-w_pow.o)
 .rodata.str1.4
                0x000248f0        0x5 c:/espardino_tmp/bin/../lib/gcc/arm-elf/4.4.0/../../../../arm-elf/lib/thumb/interwork\libm.a(lib_a-w_sinh.o)
                                  0x8 (size before relaxing)
 *fill*         0x000248f5        0x3 00
 .rodata.str1.4
                0x000248f8        0x5 c:/espardino_tmp/bin/../lib/gcc/arm-elf/4.4.0/../../../../arm-elf/lib/thumb/interwork\libm.a(lib_a-w_sqrt.o)
                                  0x8 (size before relaxing)
 .rodata.str1.4
                0x00000000        0x4 c:/espardino_tmp/bin/../lib/gcc/arm-elf/4.4.0/../../../../arm-elf/lib/thumb/interwork\libm.a(lib_a-e_pow.o)
 *fill*         0x000248fd        0x3 00
 .rodata.str1.4
                0x00024900        0x2 c:/espardino_tmp/bin/../lib/gcc/arm-elf/4.4.0/../../../../arm-elf/lib/thumb/interwork\libg.a(lib_a-impure.o)
                                  0x4 (size before relaxing)
 *fill*         0x00024902        0x2 00
 .rodata.str1.4
                0x00024904        0xf c:/espardino_tmp/bin/../lib/gcc/arm-elf/4.4.0/../../../../arm-elf/lib/thumb/interwork\libg.a(lib_a-locale.o)
                                 0x18 (size before relaxing)
 *fill*         0x00024913        0x1 00
 .rodata.str1.4
                0x00024914        0xf c:/espardino_tmp/bin/../lib/gcc/arm-elf/4.4.0/../../../../arm-elf/lib/thumb/interwork\libg.a(lib_a-strtod.o)
                                 0x10 (size before relaxing)
 *fill*         0x00024923        0x1 00
 .rodata.str1.4
                0x00024924        0x4 c:/espardino_tmp/bin/../lib/gcc/arm-elf/4.4.0/../../../../arm-elf/lib/thumb/interwork\libg.a(lib_a-syscalls.o)
 .rodata.str1.4
                0x00024928        0x4 c:/espardino_tmp/bin/../lib/gcc/arm-elf/4.4.0/../../../../arm-elf/lib/thumb/interwork\libg.a(lib_a-tmpfile.o)
 .rodata.str1.4
                0x0002492c       0x1e c:/espardino_tmp/bin/../lib/gcc/arm-elf/4.4.0/../../../../arm-elf/lib/thumb/interwork\libg.a(lib_a-tmpnam.o)
                                 0x24 (size before relaxing)
 *fill*         0x0002494a        0x2 00
 .rodata.str1.4
                0x0002494c       0x1b c:/espardino_tmp/bin/../lib/gcc/arm-elf/4.4.0/../../../../arm-elf/lib/thumb/interwork\libg.a(lib_a-gdtoa-gethex.o)
                                 0x1c (size before relaxing)
 *fill*         0x00024967        0x1 00
 .rodata.str1.4
                0x00024968       0x3f c:/espardino_tmp/bin/../lib/gcc/arm-elf/4.4.0/../../../../arm-elf/lib/thumb/interwork\libg.a(lib_a-svfprintf.o)
                                 0x44 (size before relaxing)
 *fill*         0x000249a7        0x1 00
 .rodata.str1.4
                0x000249a8       0x10 c:/espardino_tmp/bin/../lib/gcc/arm-elf/4.4.0/../../../../arm-elf/lib/thumb/interwork\libg.a(lib_a-dtoa.o)
                                 0x14 (size before relaxing)
 *(.gnu.linkonce.r.*)

.eh_frame       0x000249b8       0xa8
 .eh_frame      0x000249b8       0xa8 main.o

.vfp11_veneer   0x00024a60        0x0
 .vfp11_veneer  0x00024a60        0x0 startup.o
 .vfp11_veneer  0x00024a60        0x0 main.o
 .vfp11_veneer  0x00024a60        0x0 c:/espardino_tmp/bin/../lib/gcc/arm-elf/4.4.0/thumb/interwork\libgcc.a(_arm_addsubdf3.o)
 .vfp11_veneer  0x00024a60        0x0 c:/espardino_tmp/bin/../lib/gcc/arm-elf/4.4.0/../../../../arm-elf/lib\liblua.a(lua_io_wrappers.o)
 .vfp11_veneer  0x00024a60        0x0 c:/espardino_tmp/bin/../lib/gcc/arm-elf/4.4.0/../../../../arm-elf/lib\liblua.a(lualib.o)
 .vfp11_veneer  0x00024a60        0x0 c:/espardino_tmp/bin/../lib/gcc/arm-elf/4.4.0/../../../../arm-elf/lib\liblua.a(lualib_console.o)
 .vfp11_veneer  0x00024a60        0x0 c:/espardino_tmp/bin/../lib/gcc/arm-elf/4.4.0/../../../../arm-elf/lib\liblua.a(all.o)
 .vfp11_veneer  0x00024a60        0x0 c:/espardino_tmp/bin/../lib/gcc/arm-elf/4.4.0/../../../../arm-elf/lib\liblua.a(lualib_bit.o)
 .vfp11_veneer  0x00024a60        0x0 c:/espardino_tmp/bin/../lib/gcc/arm-elf/4.4.0/../../../../arm-elf/lib/thumb/interwork\libffs.a(ff.o)
 .vfp11_veneer  0x00024a60        0x0 c:/espardino_tmp/bin/../lib/gcc/arm-elf/4.4.0/../../../../arm-elf/lib/thumb/interwork\libffs.a(sd_spi_lpc2000.o)
 .vfp11_veneer  0x00024a60        0x0 c:/espardino_tmp/bin/../lib/gcc/arm-elf/4.4.0/../../../../arm-elf/lib/thumb/interwork\libffs.a(ccsbcs.o)
 .vfp11_veneer  0x00024a60        0x0 c:/espardino_tmp/bin/../lib/gcc/arm-elf/4.4.0/../../../../arm-elf/lib/thumb/interwork\libffs.a(fattime.o)
 .vfp11_veneer  0x00024a60        0x0 c:/espardino_tmp/bin/../lib/gcc/arm-elf/4.4.0/../../../../arm-elf/lib/thumb/interwork\libvcom.a(main_serial.o)
 .vfp11_veneer  0x00024a60        0x0 c:/espardino_tmp/bin/../lib/gcc/arm-elf/4.4.0/../../../../arm-elf/lib/thumb/interwork\libvcom.a(usbhw_lpc.o)
 .vfp11_veneer  0x00024a60        0x0 c:/espardino_tmp/bin/../lib/gcc/arm-elf/4.4.0/../../../../arm-elf/lib/thumb/interwork\libvcom.a(usbcontrol.o)
 .vfp11_veneer  0x00024a60        0x0 c:/espardino_tmp/bin/../lib/gcc/arm-elf/4.4.0/../../../../arm-elf/lib/thumb/interwork\libvcom.a(usbstdreq.o)
 .vfp11_veneer  0x00024a60        0x0 c:/espardino_tmp/bin/../lib/gcc/arm-elf/4.4.0/../../../../arm-elf/lib/thumb/interwork\libvcom.a(usbinit.o)
 .vfp11_veneer  0x00024a60        0x0 c:/espardino_tmp/bin/../lib/gcc/arm-elf/4.4.0/../../../../arm-elf/lib/thumb/interwork\libvcom.a(serial_fifo.o)
 .vfp11_veneer  0x00024a60        0x0 c:/espardino_tmp/bin/../lib/gcc/arm-elf/4.4.0/../../../../arm-elf/lib/thumb/interwork\libvcom.a(armVIC.o)
 .vfp11_veneer  0x00024a60        0x0 c:/espardino_tmp/bin/../lib/gcc/arm-elf/4.4.0/../../../../arm-elf/lib\libmicro214x.a(leds.o)
 .vfp11_veneer  0x00024a60        0x0 c:/espardino_tmp/bin/../lib/gcc/arm-elf/4.4.0/../../../../arm-elf/lib\libmicro214x.a(adc.o)
 .vfp11_veneer  0x00024a60        0x0 c:/espardino_tmp/bin/../lib/gcc/arm-elf/4.4.0/../../../../arm-elf/lib\libmicro214x.a(sysclocks.o)
 .vfp11_veneer  0x00024a60        0x0 c:/espardino_tmp/bin/../lib/gcc/arm-elf/4.4.0/../../../../arm-elf/lib\libmicro214x.a(iolib.o)
 .vfp11_veneer  0x00024a60        0x0 c:/espardino_tmp/bin/../lib/gcc/arm-elf/4.4.0/../../../../arm-elf/lib\libmicro214x.a(rtc.o)
 .vfp11_veneer  0x00024a60        0x0 c:/espardino_tmp/bin/../lib/gcc/arm-elf/4.4.0/../../../../arm-elf/lib\libmicro214x.a(miniprintf.o)
 .vfp11_veneer  0x00024a60        0x0 c:/espardino_tmp/bin/../lib/gcc/arm-elf/4.4.0/../../../../arm-elf/lib/thumb/interwork\libm.a(lib_a-s_atan.o)
 .vfp11_veneer  0x00024a60        0x0 c:/espardino_tmp/bin/../lib/gcc/arm-elf/4.4.0/../../../../arm-elf/lib/thumb/interwork\libm.a(lib_a-s_ceil.o)
 .vfp11_veneer  0x00024a60        0x0 c:/espardino_tmp/bin/../lib/gcc/arm-elf/4.4.0/../../../../arm-elf/lib/thumb/interwork\libm.a(lib_a-s_cos.o)
 .vfp11_veneer  0x00024a60        0x0 c:/espardino_tmp/bin/../lib/gcc/arm-elf/4.4.0/../../../../arm-elf/lib/thumb/interwork\libm.a(lib_a-s_fabs.o)
 .vfp11_veneer  0x00024a60        0x0 c:/espardino_tmp/bin/../lib/gcc/arm-elf/4.4.0/../../../../arm-elf/lib/thumb/interwork\libm.a(lib_a-s_floor.o)
 .vfp11_veneer  0x00024a60        0x0 c:/espardino_tmp/bin/../lib/gcc/arm-elf/4.4.0/../../../../arm-elf/lib/thumb/interwork\libm.a(lib_a-s_frexp.o)
 .vfp11_veneer  0x00024a60        0x0 c:/espardino_tmp/bin/../lib/gcc/arm-elf/4.4.0/../../../../arm-elf/lib/thumb/interwork\libm.a(lib_a-s_ldexp.o)
 .vfp11_veneer  0x00024a60        0x0 c:/espardino_tmp/bin/../lib/gcc/arm-elf/4.4.0/../../../../arm-elf/lib/thumb/interwork\libm.a(lib_a-s_modf.o)
 .vfp11_veneer  0x00024a60        0x0 c:/espardino_tmp/bin/../lib/gcc/arm-elf/4.4.0/../../../../arm-elf/lib/thumb/interwork\libm.a(lib_a-s_scalbn.o)
 .vfp11_veneer  0x00024a60        0x0 c:/espardino_tmp/bin/../lib/gcc/arm-elf/4.4.0/../../../../arm-elf/lib/thumb/interwork\libm.a(lib_a-s_sin.o)
 .vfp11_veneer  0x00024a60        0x0 c:/espardino_tmp/bin/../lib/gcc/arm-elf/4.4.0/../../../../arm-elf/lib/thumb/interwork\libm.a(lib_a-s_tan.o)
 .vfp11_veneer  0x00024a60        0x0 c:/espardino_tmp/bin/../lib/gcc/arm-elf/4.4.0/../../../../arm-elf/lib/thumb/interwork\libm.a(lib_a-s_tanh.o)
 .vfp11_veneer  0x00024a60        0x0 c:/espardino_tmp/bin/../lib/gcc/arm-elf/4.4.0/../../../../arm-elf/lib/thumb/interwork\libm.a(lib_a-w_acos.o)
 .vfp11_veneer  0x00024a60        0x0 c:/espardino_tmp/bin/../lib/gcc/arm-elf/4.4.0/../../../../arm-elf/lib/thumb/interwork\libm.a(lib_a-w_asin.o)
 .vfp11_veneer  0x00024a60        0x0 c:/espardino_tmp/bin/../lib/gcc/arm-elf/4.4.0/../../../../arm-elf/lib/thumb/interwork\libm.a(lib_a-w_atan2.o)
 .vfp11_veneer  0x00024a60        0x0 c:/espardino_tmp/bin/../lib/gcc/arm-elf/4.4.0/../../../../arm-elf/lib/thumb/interwork\libm.a(lib_a-w_cosh.o)
 .vfp11_veneer  0x00024a60        0x0 c:/espardino_tmp/bin/../lib/gcc/arm-elf/4.4.0/../../../../arm-elf/lib/thumb/interwork\libm.a(lib_a-w_exp.o)
 .vfp11_veneer  0x00024a60        0x0 c:/espardino_tmp/bin/../lib/gcc/arm-elf/4.4.0/../../../../arm-elf/lib/thumb/interwork\libm.a(lib_a-w_fmod.o)
 .vfp11_veneer  0x00024a60        0x0 c:/espardino_tmp/bin/../lib/gcc/arm-elf/4.4.0/../../../../arm-elf/lib/thumb/interwork\libm.a(lib_a-w_log.o)
 .vfp11_veneer  0x00024a60        0x0 c:/espardino_tmp/bin/../lib/gcc/arm-elf/4.4.0/../../../../arm-elf/lib/thumb/interwork\libm.a(lib_a-w_log10.o)
 .vfp11_veneer  0x00024a60        0x0 c:/espardino_tmp/bin/../lib/gcc/arm-elf/4.4.0/../../../../arm-elf/lib/thumb/interwork\libm.a(lib_a-w_pow.o)
 .vfp11_veneer  0x00024a60        0x0 c:/espardino_tmp/bin/../lib/gcc/arm-elf/4.4.0/../../../../arm-elf/lib/thumb/interwork\libm.a(lib_a-w_sinh.o)
 .vfp11_veneer  0x00024a60        0x0 c:/espardino_tmp/bin/../lib/gcc/arm-elf/4.4.0/../../../../arm-elf/lib/thumb/interwork\libm.a(lib_a-w_sqrt.o)
 .vfp11_veneer  0x00024a60        0x0 c:/espardino_tmp/bin/../lib/gcc/arm-elf/4.4.0/../../../../arm-elf/lib/thumb/interwork\libm.a(lib_a-e_acos.o)
 .vfp11_veneer  0x00024a60        0x0 c:/espardino_tmp/bin/../lib/gcc/arm-elf/4.4.0/../../../../arm-elf/lib/thumb/interwork\libm.a(lib_a-e_asin.o)
 .vfp11_veneer  0x00024a60        0x0 c:/espardino_tmp/bin/../lib/gcc/arm-elf/4.4.0/../../../../arm-elf/lib/thumb/interwork\libm.a(lib_a-e_atan2.o)
 .vfp11_veneer  0x00024a60        0x0 c:/espardino_tmp/bin/../lib/gcc/arm-elf/4.4.0/../../../../arm-elf/lib/thumb/interwork\libm.a(lib_a-e_cosh.o)
 .vfp11_veneer  0x00024a60        0x0 c:/espardino_tmp/bin/../lib/gcc/arm-elf/4.4.0/../../../../arm-elf/lib/thumb/interwork\libm.a(lib_a-e_exp.o)
 .vfp11_veneer  0x00024a60        0x0 c:/espardino_tmp/bin/../lib/gcc/arm-elf/4.4.0/../../../../arm-elf/lib/thumb/interwork\libm.a(lib_a-e_fmod.o)
 .vfp11_veneer  0x00024a60        0x0 c:/espardino_tmp/bin/../lib/gcc/arm-elf/4.4.0/../../../../arm-elf/lib/thumb/interwork\libm.a(lib_a-e_log.o)
 .vfp11_veneer  0x00024a60        0x0 c:/espardino_tmp/bin/../lib/gcc/arm-elf/4.4.0/../../../../arm-elf/lib/thumb/interwork\libm.a(lib_a-e_log10.o)
 .vfp11_veneer  0x00024a60        0x0 c:/espardino_tmp/bin/../lib/gcc/arm-elf/4.4.0/../../../../arm-elf/lib/thumb/interwork\libm.a(lib_a-e_pow.o)
 .vfp11_veneer  0x00024a60        0x0 c:/espardino_tmp/bin/../lib/gcc/arm-elf/4.4.0/../../../../arm-elf/lib/thumb/interwork\libm.a(lib_a-e_rem_pio2.o)
 .vfp11_veneer  0x00024a60        0x0 c:/espardino_tmp/bin/../lib/gcc/arm-elf/4.4.0/../../../../arm-elf/lib/thumb/interwork\libm.a(lib_a-e_sinh.o)
 .vfp11_veneer  0x00024a60        0x0 c:/espardino_tmp/bin/../lib/gcc/arm-elf/4.4.0/../../../../arm-elf/lib/thumb/interwork\libm.a(lib_a-e_sqrt.o)
 .vfp11_veneer  0x00024a60        0x0 c:/espardino_tmp/bin/../lib/gcc/arm-elf/4.4.0/../../../../arm-elf/lib/thumb/interwork\libm.a(lib_a-k_cos.o)
 .vfp11_veneer  0x00024a60        0x0 c:/espardino_tmp/bin/../lib/gcc/arm-elf/4.4.0/../../../../arm-elf/lib/thumb/interwork\libm.a(lib_a-k_rem_pio2.o)
 .vfp11_veneer  0x00024a60        0x0 c:/espardino_tmp/bin/../lib/gcc/arm-elf/4.4.0/../../../../arm-elf/lib/thumb/interwork\libm.a(lib_a-k_sin.o)
 .vfp11_veneer  0x00024a60        0x0 c:/espardino_tmp/bin/../lib/gcc/arm-elf/4.4.0/../../../../arm-elf/lib/thumb/interwork\libm.a(lib_a-k_tan.o)
 .vfp11_veneer  0x00024a60        0x0 c:/espardino_tmp/bin/../lib/gcc/arm-elf/4.4.0/../../../../arm-elf/lib/thumb/interwork\libm.a(lib_a-s_copysign.o)
 .vfp11_veneer  0x00024a60        0x0 c:/espardino_tmp/bin/../lib/gcc/arm-elf/4.4.0/../../../../arm-elf/lib/thumb/interwork\libm.a(lib_a-s_expm1.o)
 .vfp11_veneer  0x00024a60        0x0 c:/espardino_tmp/bin/../lib/gcc/arm-elf/4.4.0/../../../../arm-elf/lib/thumb/interwork\libm.a(lib_a-s_finite.o)
 .vfp11_veneer  0x00024a60        0x0 c:/espardino_tmp/bin/../lib/gcc/arm-elf/4.4.0/../../../../arm-elf/lib/thumb/interwork\libm.a(lib_a-s_isnand.o)
 .vfp11_veneer  0x00024a60        0x0 c:/espardino_tmp/bin/../lib/gcc/arm-elf/4.4.0/../../../../arm-elf/lib/thumb/interwork\libm.a(lib_a-s_lib_ver.o)
 .vfp11_veneer  0x00024a60        0x0 c:/espardino_tmp/bin/../lib/gcc/arm-elf/4.4.0/../../../../arm-elf/lib/thumb/interwork\libm.a(lib_a-s_matherr.o)
 .vfp11_veneer  0x00024a60        0x0 c:/espardino_tmp/bin/../lib/gcc/arm-elf/4.4.0/../../../../arm-elf/lib/thumb/interwork\libm.a(lib_a-s_nan.o)
 .vfp11_veneer  0x00024a60        0x0 c:/espardino_tmp/bin/../lib/gcc/arm-elf/4.4.0/../../../../arm-elf/lib/thumb/interwork\libm.a(lib_a-s_rint.o)
 .vfp11_veneer  0x00024a60        0x0 c:/espardino_tmp/bin/../lib/gcc/arm-elf/4.4.0/thumb/interwork\libgcc.a(_udivsi3.o)
 .vfp11_veneer  0x00024a60        0x0 c:/espardino_tmp/bin/../lib/gcc/arm-elf/4.4.0/thumb/interwork\libgcc.a(_divsi3.o)
 .vfp11_veneer  0x00024a60        0x0 c:/espardino_tmp/bin/../lib/gcc/arm-elf/4.4.0/thumb/interwork\libgcc.a(_umodsi3.o)
 .vfp11_veneer  0x00024a60        0x0 c:/espardino_tmp/bin/../lib/gcc/arm-elf/4.4.0/thumb/interwork\libgcc.a(_modsi3.o)
 .vfp11_veneer  0x00024a60        0x0 c:/espardino_tmp/bin/../lib/gcc/arm-elf/4.4.0/thumb/interwork\libgcc.a(_dvmd_tls.o)
 .vfp11_veneer  0x00024a60        0x0 c:/espardino_tmp/bin/../lib/gcc/arm-elf/4.4.0/thumb/interwork\libgcc.a(_arm_muldivdf3.o)
 .vfp11_veneer  0x00024a60        0x0 c:/espardino_tmp/bin/../lib/gcc/arm-elf/4.4.0/thumb/interwork\libgcc.a(_arm_cmpdf2.o)
 .vfp11_veneer  0x00024a60        0x0 c:/espardino_tmp/bin/../lib/gcc/arm-elf/4.4.0/thumb/interwork\libgcc.a(_arm_fixdfsi.o)
 .vfp11_veneer  0x00024a60        0x0 c:/espardino_tmp/bin/../lib/gcc/arm-elf/4.4.0/thumb/interwork\libgcc.a(_arm_fixunsdfsi.o)
 .vfp11_veneer  0x00024a60        0x0 c:/espardino_tmp/bin/../lib/gcc/arm-elf/4.4.0/../../../../arm-elf/lib/thumb/interwork\libg.a(lib_a-ctype_.o)
 .vfp11_veneer  0x00024a60        0x0 c:/espardino_tmp/bin/../lib/gcc/arm-elf/4.4.0/../../../../arm-elf/lib/thumb/interwork\libg.a(lib_a-errno.o)
 .vfp11_veneer  0x00024a60        0x0 c:/espardino_tmp/bin/../lib/gcc/arm-elf/4.4.0/../../../../arm-elf/lib/thumb/interwork\libg.a(lib_a-impure.o)
 .vfp11_veneer  0x00024a60        0x0 c:/espardino_tmp/bin/../lib/gcc/arm-elf/4.4.0/../../../../arm-elf/lib/thumb/interwork\libg.a(lib_a-locale.o)
 .vfp11_veneer  0x00024a60        0x0 c:/espardino_tmp/bin/../lib/gcc/arm-elf/4.4.0/../../../../arm-elf/lib/thumb/interwork\libg.a(lib_a-malloc.o)
 .vfp11_veneer  0x00024a60        0x0 c:/espardino_tmp/bin/../lib/gcc/arm-elf/4.4.0/../../../../arm-elf/lib/thumb/interwork\libg.a(lib_a-mallocr.o)
 .vfp11_veneer  0x00024a60        0x0 c:/espardino_tmp/bin/../lib/gcc/arm-elf/4.4.0/../../../../arm-elf/lib/thumb/interwork\libg.a(lib_a-memcmp.o)
 .vfp11_veneer  0x00024a60        0x0 c:/espardino_tmp/bin/../lib/gcc/arm-elf/4.4.0/../../../../arm-elf/lib/thumb/interwork\libg.a(lib_a-memcpy.o)
 .vfp11_veneer  0x00024a60        0x0 c:/espardino_tmp/bin/../lib/gcc/arm-elf/4.4.0/../../../../arm-elf/lib/thumb/interwork\libg.a(lib_a-mlock.o)
 .vfp11_veneer  0x00024a60        0x0 c:/espardino_tmp/bin/../lib/gcc/arm-elf/4.4.0/../../../../arm-elf/lib/thumb/interwork\libg.a(lib_a-rand.o)
 .vfp11_veneer  0x00024a60        0x0 c:/espardino_tmp/bin/../lib/gcc/arm-elf/4.4.0/../../../../arm-elf/lib/thumb/interwork\libg.a(lib_a-realloc.o)
 .vfp11_veneer  0x00024a60        0x0 c:/espardino_tmp/bin/../lib/gcc/arm-elf/4.4.0/../../../../arm-elf/lib/thumb/interwork\libg.a(lib_a-reallocr.o)
 .vfp11_veneer  0x00024a60        0x0 c:/espardino_tmp/bin/../lib/gcc/arm-elf/4.4.0/../../../../arm-elf/lib/thumb/interwork\libg.a(lib_a-sbrkr.o)
 .vfp11_veneer  0x00024a60        0x0 c:/espardino_tmp/bin/../lib/gcc/arm-elf/4.4.0/../../../../arm-elf/lib/thumb/interwork\libg.a(lib_a-setjmp.o)
 .vfp11_veneer  0x00024a60        0x0 c:/espardino_tmp/bin/../lib/gcc/arm-elf/4.4.0/../../../../arm-elf/lib/thumb/interwork\libg.a(lib_a-strcat.o)
 .vfp11_veneer  0x00024a60        0x0 c:/espardino_tmp/bin/../lib/gcc/arm-elf/4.4.0/../../../../arm-elf/lib/thumb/interwork\libg.a(lib_a-strchr.o)
 .vfp11_veneer  0x00024a60        0x0 c:/espardino_tmp/bin/../lib/gcc/arm-elf/4.4.0/../../../../arm-elf/lib/thumb/interwork\libg.a(lib_a-strcmp.o)
 .vfp11_veneer  0x00024a60        0x0 c:/espardino_tmp/bin/../lib/gcc/arm-elf/4.4.0/../../../../arm-elf/lib/thumb/interwork\libg.a(lib_a-strcoll.o)
 .vfp11_veneer  0x00024a60        0x0 c:/espardino_tmp/bin/../lib/gcc/arm-elf/4.4.0/../../../../arm-elf/lib/thumb/interwork\libg.a(lib_a-strcpy.o)
 .vfp11_veneer  0x00024a60        0x0 c:/espardino_tmp/bin/../lib/gcc/arm-elf/4.4.0/../../../../arm-elf/lib/thumb/interwork\libg.a(lib_a-strcspn.o)
 .vfp11_veneer  0x00024a60        0x0 c:/espardino_tmp/bin/../lib/gcc/arm-elf/4.4.0/../../../../arm-elf/lib/thumb/interwork\libg.a(lib_a-strlen.o)
 .vfp11_veneer  0x00024a60        0x0 c:/espardino_tmp/bin/../lib/gcc/arm-elf/4.4.0/../../../../arm-elf/lib/thumb/interwork\libg.a(lib_a-strncat.o)
 .vfp11_veneer  0x00024a60        0x0 c:/espardino_tmp/bin/../lib/gcc/arm-elf/4.4.0/../../../../arm-elf/lib/thumb/interwork\libg.a(lib_a-strncpy.o)
 .vfp11_veneer  0x00024a60        0x0 c:/espardino_tmp/bin/../lib/gcc/arm-elf/4.4.0/../../../../arm-elf/lib/thumb/interwork\libg.a(lib_a-strstr.o)
 .vfp11_veneer  0x00024a60        0x0 c:/espardino_tmp/bin/../lib/gcc/arm-elf/4.4.0/../../../../arm-elf/lib/thumb/interwork\libg.a(lib_a-strtod.o)
 .vfp11_veneer  0x00024a60        0x0 c:/espardino_tmp/bin/../lib/gcc/arm-elf/4.4.0/../../../../arm-elf/lib/thumb/interwork\libg.a(lib_a-strtoul.o)
 .vfp11_veneer  0x00024a60        0x0 c:/espardino_tmp/bin/../lib/gcc/arm-elf/4.4.0/../../../../arm-elf/lib/thumb/interwork\libg.a(lib_a-syscalls.o)
 .vfp11_veneer  0x00024a60        0x0 c:/espardino_tmp/bin/../lib/gcc/arm-elf/4.4.0/../../../../arm-elf/lib/thumb/interwork\libg.a(lib_a-tmpfile.o)
 .vfp11_veneer  0x00024a60        0x0 c:/espardino_tmp/bin/../lib/gcc/arm-elf/4.4.0/../../../../arm-elf/lib/thumb/interwork\libg.a(lib_a-tmpnam.o)
 .vfp11_veneer  0x00024a60        0x0 c:/espardino_tmp/bin/../lib/gcc/arm-elf/4.4.0/../../../../arm-elf/lib/thumb/interwork\libg.a(lib_a-closer.o)
 .vfp11_veneer  0x00024a60        0x0 c:/espardino_tmp/bin/../lib/gcc/arm-elf/4.4.0/../../../../arm-elf/lib/thumb/interwork\libg.a(lib_a-fdopen.o)
 .vfp11_veneer  0x00024a60        0x0 c:/espardino_tmp/bin/../lib/gcc/arm-elf/4.4.0/../../../../arm-elf/lib/thumb/interwork\libg.a(lib_a-findfp.o)
 .vfp11_veneer  0x00024a60        0x0 c:/espardino_tmp/bin/../lib/gcc/arm-elf/4.4.0/../../../../arm-elf/lib/thumb/interwork\libg.a(lib_a-flags.o)
 .vfp11_veneer  0x00024a60        0x0 c:/espardino_tmp/bin/../lib/gcc/arm-elf/4.4.0/../../../../arm-elf/lib/thumb/interwork\libg.a(lib_a-freer.o)
 .vfp11_veneer  0x00024a60        0x0 c:/espardino_tmp/bin/../lib/gcc/arm-elf/4.4.0/../../../../arm-elf/lib/thumb/interwork\libg.a(lib_a-fwalk.o)
 .vfp11_veneer  0x00024a60        0x0 c:/espardino_tmp/bin/../lib/gcc/arm-elf/4.4.0/../../../../arm-elf/lib/thumb/interwork\libg.a(lib_a-gdtoa-gethex.o)
 .vfp11_veneer  0x00024a60        0x0 c:/espardino_tmp/bin/../lib/gcc/arm-elf/4.4.0/../../../../arm-elf/lib/thumb/interwork\libg.a(lib_a-gdtoa-hexnan.o)
 .vfp11_veneer  0x00024a60        0x0 c:/espardino_tmp/bin/../lib/gcc/arm-elf/4.4.0/../../../../arm-elf/lib/thumb/interwork\libg.a(lib_a-getenv.o)
 .vfp11_veneer  0x00024a60        0x0 c:/espardino_tmp/bin/../lib/gcc/arm-elf/4.4.0/../../../../arm-elf/lib/thumb/interwork\libg.a(lib_a-getenv_r.o)
 .vfp11_veneer  0x00024a60        0x0 c:/espardino_tmp/bin/../lib/gcc/arm-elf/4.4.0/../../../../arm-elf/lib/thumb/interwork\libg.a(lib_a-memchr.o)
 .vfp11_veneer  0x00024a60        0x0 c:/espardino_tmp/bin/../lib/gcc/arm-elf/4.4.0/../../../../arm-elf/lib/thumb/interwork\libg.a(lib_a-memmove.o)
 .vfp11_veneer  0x00024a60        0x0 c:/espardino_tmp/bin/../lib/gcc/arm-elf/4.4.0/../../../../arm-elf/lib/thumb/interwork\libg.a(lib_a-memset.o)
 .vfp11_veneer  0x00024a60        0x0 c:/espardino_tmp/bin/../lib/gcc/arm-elf/4.4.0/../../../../arm-elf/lib/thumb/interwork\libg.a(lib_a-mprec.o)
 .vfp11_veneer  0x00024a60        0x0 c:/espardino_tmp/bin/../lib/gcc/arm-elf/4.4.0/../../../../arm-elf/lib/thumb/interwork\libg.a(lib_a-openr.o)
 .vfp11_veneer  0x00024a60        0x0 c:/espardino_tmp/bin/../lib/gcc/arm-elf/4.4.0/../../../../arm-elf/lib/thumb/interwork\libg.a(lib_a-reent.o)
 .vfp11_veneer  0x00024a60        0x0 c:/espardino_tmp/bin/../lib/gcc/arm-elf/4.4.0/../../../../arm-elf/lib/thumb/interwork\libg.a(lib_a-remove.o)
 .vfp11_veneer  0x00024a60        0x0 c:/espardino_tmp/bin/../lib/gcc/arm-elf/4.4.0/../../../../arm-elf/lib/thumb/interwork\libg.a(lib_a-sf_nan.o)
 .vfp11_veneer  0x00024a60        0x0 c:/espardino_tmp/bin/../lib/gcc/arm-elf/4.4.0/../../../../arm-elf/lib/thumb/interwork\libg.a(lib_a-signalr.o)
 .vfp11_veneer  0x00024a60        0x0 c:/espardino_tmp/bin/../lib/gcc/arm-elf/4.4.0/../../../../arm-elf/lib/thumb/interwork\libg.a(lib_a-sprintf.o)
 .vfp11_veneer  0x00024a60        0x0 c:/espardino_tmp/bin/../lib/gcc/arm-elf/4.4.0/../../../../arm-elf/lib/thumb/interwork\libg.a(lib_a-stdio.o)
 .vfp11_veneer  0x00024a60        0x0 c:/espardino_tmp/bin/../lib/gcc/arm-elf/4.4.0/../../../../arm-elf/lib/thumb/interwork\libg.a(lib_a-strncmp.o)
 .vfp11_veneer  0x00024a60        0x0 c:/espardino_tmp/bin/../lib/gcc/arm-elf/4.4.0/../../../../arm-elf/lib/thumb/interwork\libg.a(lib_a-svfprintf.o)
 .vfp11_veneer  0x00024a60        0x0 c:/espardino_tmp/bin/../lib/gcc/arm-elf/4.4.0/../../../../arm-elf/lib/thumb/interwork\libg.a(lib_a-unlinkr.o)
 .vfp11_veneer  0x00024a60        0x0 c:/espardino_tmp/bin/../lib/gcc/arm-elf/4.4.0/../../../../arm-elf/lib/thumb/interwork\libg.a(lib_a-writer.o)
 .vfp11_veneer  0x00024a60        0x0 c:/espardino_tmp/bin/../lib/gcc/arm-elf/4.4.0/../../../../arm-elf/lib/thumb/interwork\libg.a(lib_a-callocr.o)
 .vfp11_veneer  0x00024a60        0x0 c:/espardino_tmp/bin/../lib/gcc/arm-elf/4.4.0/../../../../arm-elf/lib/thumb/interwork\libg.a(lib_a-dtoa.o)
 .vfp11_veneer  0x00024a60        0x0 c:/espardino_tmp/bin/../lib/gcc/arm-elf/4.4.0/../../../../arm-elf/lib/thumb/interwork\libg.a(lib_a-environ.o)
 .vfp11_veneer  0x00024a60        0x0 c:/espardino_tmp/bin/../lib/gcc/arm-elf/4.4.0/../../../../arm-elf/lib/thumb/interwork\libg.a(lib_a-envlock.o)
 .vfp11_veneer  0x00024a60        0x0 c:/espardino_tmp/bin/../lib/gcc/arm-elf/4.4.0/../../../../arm-elf/lib/thumb/interwork\libg.a(lib_a-fclose.o)
 .vfp11_veneer  0x00024a60        0x0 c:/espardino_tmp/bin/../lib/gcc/arm-elf/4.4.0/../../../../arm-elf/lib/thumb/interwork\libg.a(lib_a-fflush.o)
 .vfp11_veneer  0x00024a60        0x0 c:/espardino_tmp/bin/../lib/gcc/arm-elf/4.4.0/../../../../arm-elf/lib/thumb/interwork\libg.a(lib_a-lseekr.o)
 .vfp11_veneer  0x00024a60        0x0 c:/espardino_tmp/bin/../lib/gcc/arm-elf/4.4.0/../../../../arm-elf/lib/thumb/interwork\libg.a(lib_a-readr.o)
 .vfp11_veneer  0x00024a60        0x0 c:/espardino_tmp/bin/../lib/gcc/arm-elf/4.4.0/../../../../arm-elf/lib/thumb/interwork\libg.a(lib_a-s_isinfd.o)
 .vfp11_veneer  0x00024a60        0x0 c:/espardino_tmp/bin/../lib/gcc/arm-elf/4.4.0/thumb/interwork\libgcc.a(_arm_truncdfsf2.o)
 .vfp11_veneer  0x00024a60        0x0 c:/espardino_tmp/bin/../lib/gcc/arm-elf/4.4.0/thumb/interwork\libgcc.a(_muldi3.o)
                0x00024a60                . = ALIGN (0x4)

.ctors          0x00024a60        0x0
                0x00024a60                PROVIDE (__ctors_start__, .)
 *(SORT(.ctors.*))
 *(.ctors)
                0x00024a60                PROVIDE (__ctors_end__, .)

.dtors          0x00024a60        0x0
                0x00024a60                PROVIDE (__dtors_start__, .)
 *(SORT(.dtors.*))
 *(.dtors)
                0x00024a60                PROVIDE (__dtors_end__, .)
                0x00024a60                . = ALIGN (0x4)
                0x00024a60                _etext = .
                0x00024a60                PROVIDE (etext, .)

.data           0x40000000      0x89c load address 0x00024a60
                0x40000000                _data = .
 *(.data)
 .data          0x40000000        0x0 startup.o
 .data          0x40000000        0x0 main.o
 .data          0x40000000        0x0 c:/espardino_tmp/bin/../lib/gcc/arm-elf/4.4.0/thumb/interwork\libgcc.a(_arm_addsubdf3.o)
 .data          0x40000000        0x4 c:/espardino_tmp/bin/../lib/gcc/arm-elf/4.4.0/../../../../arm-elf/lib\liblua.a(lua_io_wrappers.o)
                0x40000000                my_f_out
 .data          0x40000004        0x0 c:/espardino_tmp/bin/../lib/gcc/arm-elf/4.4.0/../../../../arm-elf/lib\liblua.a(lualib.o)
 .data          0x40000004        0x0 c:/espardino_tmp/bin/../lib/gcc/arm-elf/4.4.0/../../../../arm-elf/lib\liblua.a(lualib_console.o)
 .data          0x40000004        0x0 c:/espardino_tmp/bin/../lib/gcc/arm-elf/4.4.0/../../../../arm-elf/lib\liblua.a(all.o)
 .data          0x40000004        0x0 c:/espardino_tmp/bin/../lib/gcc/arm-elf/4.4.0/../../../../arm-elf/lib\liblua.a(lualib_bit.o)
 .data          0x40000004        0x0 c:/espardino_tmp/bin/../lib/gcc/arm-elf/4.4.0/../../../../arm-elf/lib/thumb/interwork\libffs.a(ff.o)
 .data          0x40000004        0x1 c:/espardino_tmp/bin/../lib/gcc/arm-elf/4.4.0/../../../../arm-elf/lib/thumb/interwork\libffs.a(sd_spi_lpc2000.o)
 .data          0x40000005        0x0 c:/espardino_tmp/bin/../lib/gcc/arm-elf/4.4.0/../../../../arm-elf/lib/thumb/interwork\libffs.a(ccsbcs.o)
 .data          0x40000005        0x0 c:/espardino_tmp/bin/../lib/gcc/arm-elf/4.4.0/../../../../arm-elf/lib/thumb/interwork\libffs.a(fattime.o)
 *fill*         0x40000005        0x3 00
 .data          0x40000008        0x8 c:/espardino_tmp/bin/../lib/gcc/arm-elf/4.4.0/../../../../arm-elf/lib/thumb/interwork\libvcom.a(main_serial.o)
 .data          0x40000010        0x0 c:/espardino_tmp/bin/../lib/gcc/arm-elf/4.4.0/../../../../arm-elf/lib/thumb/interwork\libvcom.a(usbhw_lpc.o)
 .data          0x40000010        0x0 c:/espardino_tmp/bin/../lib/gcc/arm-elf/4.4.0/../../../../arm-elf/lib/thumb/interwork\libvcom.a(usbcontrol.o)
 .data          0x40000010        0x0 c:/espardino_tmp/bin/../lib/gcc/arm-elf/4.4.0/../../../../arm-elf/lib/thumb/interwork\libvcom.a(usbstdreq.o)
 .data          0x40000010        0x0 c:/espardino_tmp/bin/../lib/gcc/arm-elf/4.4.0/../../../../arm-elf/lib/thumb/interwork\libvcom.a(usbinit.o)
 .data          0x40000010        0x0 c:/espardino_tmp/bin/../lib/gcc/arm-elf/4.4.0/../../../../arm-elf/lib/thumb/interwork\libvcom.a(serial_fifo.o)
 .data          0x40000010        0x0 c:/espardino_tmp/bin/../lib/gcc/arm-elf/4.4.0/../../../../arm-elf/lib/thumb/interwork\libvcom.a(armVIC.o)
 .data          0x40000010        0x0 c:/espardino_tmp/bin/../lib/gcc/arm-elf/4.4.0/../../../../arm-elf/lib\libmicro214x.a(leds.o)
 .data          0x40000010        0x4 c:/espardino_tmp/bin/../lib/gcc/arm-elf/4.4.0/../../../../arm-elf/lib\libmicro214x.a(adc.o)
                0x40000010                ADC_clkdiv_calc
 .data          0x40000014        0x8 c:/espardino_tmp/bin/../lib/gcc/arm-elf/4.4.0/../../../../arm-elf/lib\libmicro214x.a(sysclocks.o)
                0x40000018                SYSCLK_speed_Hz
                0x40000014                VPB_speed_Hz
 .data          0x4000001c        0x0 c:/espardino_tmp/bin/../lib/gcc/arm-elf/4.4.0/../../../../arm-elf/lib\libmicro214x.a(iolib.o)
 .data          0x4000001c        0x0 c:/espardino_tmp/bin/../lib/gcc/arm-elf/4.4.0/../../../../arm-elf/lib\libmicro214x.a(rtc.o)
 .data          0x4000001c        0x0 c:/espardino_tmp/bin/../lib/gcc/arm-elf/4.4.0/../../../../arm-elf/lib\libmicro214x.a(miniprintf.o)
 .data          0x4000001c        0x0 c:/espardino_tmp/bin/../lib/gcc/arm-elf/4.4.0/../../../../arm-elf/lib/thumb/interwork\libm.a(lib_a-s_atan.o)
 .data          0x4000001c        0x0 c:/espardino_tmp/bin/../lib/gcc/arm-elf/4.4.0/../../../../arm-elf/lib/thumb/interwork\libm.a(lib_a-s_ceil.o)
 .data          0x4000001c        0x0 c:/espardino_tmp/bin/../lib/gcc/arm-elf/4.4.0/../../../../arm-elf/lib/thumb/interwork\libm.a(lib_a-s_cos.o)
 .data          0x4000001c        0x0 c:/espardino_tmp/bin/../lib/gcc/arm-elf/4.4.0/../../../../arm-elf/lib/thumb/interwork\libm.a(lib_a-s_fabs.o)
 .data          0x4000001c        0x0 c:/espardino_tmp/bin/../lib/gcc/arm-elf/4.4.0/../../../../arm-elf/lib/thumb/interwork\libm.a(lib_a-s_floor.o)
 .data          0x4000001c        0x0 c:/espardino_tmp/bin/../lib/gcc/arm-elf/4.4.0/../../../../arm-elf/lib/thumb/interwork\libm.a(lib_a-s_frexp.o)
 .data          0x4000001c        0x0 c:/espardino_tmp/bin/../lib/gcc/arm-elf/4.4.0/../../../../arm-elf/lib/thumb/interwork\libm.a(lib_a-s_ldexp.o)
 .data          0x4000001c        0x0 c:/espardino_tmp/bin/../lib/gcc/arm-elf/4.4.0/../../../../arm-elf/lib/thumb/interwork\libm.a(lib_a-s_modf.o)
 .data          0x4000001c        0x0 c:/espardino_tmp/bin/../lib/gcc/arm-elf/4.4.0/../../../../arm-elf/lib/thumb/interwork\libm.a(lib_a-s_scalbn.o)
 .data          0x4000001c        0x0 c:/espardino_tmp/bin/../lib/gcc/arm-elf/4.4.0/../../../../arm-elf/lib/thumb/interwork\libm.a(lib_a-s_sin.o)
 .data          0x4000001c        0x0 c:/espardino_tmp/bin/../lib/gcc/arm-elf/4.4.0/../../../../arm-elf/lib/thumb/interwork\libm.a(lib_a-s_tan.o)
 .data          0x4000001c        0x0 c:/espardino_tmp/bin/../lib/gcc/arm-elf/4.4.0/../../../../arm-elf/lib/thumb/interwork\libm.a(lib_a-s_tanh.o)
 .data          0x4000001c        0x0 c:/espardino_tmp/bin/../lib/gcc/arm-elf/4.4.0/../../../../arm-elf/lib/thumb/interwork\libm.a(lib_a-w_acos.o)
 .data          0x4000001c        0x0 c:/espardino_tmp/bin/../lib/gcc/arm-elf/4.4.0/../../../../arm-elf/lib/thumb/interwork\libm.a(lib_a-w_asin.o)
 .data          0x4000001c        0x0 c:/espardino_tmp/bin/../lib/gcc/arm-elf/4.4.0/../../../../arm-elf/lib/thumb/interwork\libm.a(lib_a-w_atan2.o)
 .data          0x4000001c        0x0 c:/espardino_tmp/bin/../lib/gcc/arm-elf/4.4.0/../../../../arm-elf/lib/thumb/interwork\libm.a(lib_a-w_cosh.o)
 .data          0x4000001c        0x0 c:/espardino_tmp/bin/../lib/gcc/arm-elf/4.4.0/../../../../arm-elf/lib/thumb/interwork\libm.a(lib_a-w_exp.o)
 .data          0x4000001c        0x0 c:/espardino_tmp/bin/../lib/gcc/arm-elf/4.4.0/../../../../arm-elf/lib/thumb/interwork\libm.a(lib_a-w_fmod.o)
 .data          0x4000001c        0x0 c:/espardino_tmp/bin/../lib/gcc/arm-elf/4.4.0/../../../../arm-elf/lib/thumb/interwork\libm.a(lib_a-w_log.o)
 .data          0x4000001c        0x0 c:/espardino_tmp/bin/../lib/gcc/arm-elf/4.4.0/../../../../arm-elf/lib/thumb/interwork\libm.a(lib_a-w_log10.o)
 .data          0x4000001c        0x0 c:/espardino_tmp/bin/../lib/gcc/arm-elf/4.4.0/../../../../arm-elf/lib/thumb/interwork\libm.a(lib_a-w_pow.o)
 .data          0x4000001c        0x0 c:/espardino_tmp/bin/../lib/gcc/arm-elf/4.4.0/../../../../arm-elf/lib/thumb/interwork\libm.a(lib_a-w_sinh.o)
 .data          0x4000001c        0x0 c:/espardino_tmp/bin/../lib/gcc/arm-elf/4.4.0/../../../../arm-elf/lib/thumb/interwork\libm.a(lib_a-w_sqrt.o)
 .data          0x4000001c        0x0 c:/espardino_tmp/bin/../lib/gcc/arm-elf/4.4.0/../../../../arm-elf/lib/thumb/interwork\libm.a(lib_a-e_acos.o)
 .data          0x4000001c        0x0 c:/espardino_tmp/bin/../lib/gcc/arm-elf/4.4.0/../../../../arm-elf/lib/thumb/interwork\libm.a(lib_a-e_asin.o)
 .data          0x4000001c        0x0 c:/espardino_tmp/bin/../lib/gcc/arm-elf/4.4.0/../../../../arm-elf/lib/thumb/interwork\libm.a(lib_a-e_atan2.o)
 .data          0x4000001c        0x0 c:/espardino_tmp/bin/../lib/gcc/arm-elf/4.4.0/../../../../arm-elf/lib/thumb/interwork\libm.a(lib_a-e_cosh.o)
 .data          0x4000001c        0x0 c:/espardino_tmp/bin/../lib/gcc/arm-elf/4.4.0/../../../../arm-elf/lib/thumb/interwork\libm.a(lib_a-e_exp.o)
 .data          0x4000001c        0x0 c:/espardino_tmp/bin/../lib/gcc/arm-elf/4.4.0/../../../../arm-elf/lib/thumb/interwork\libm.a(lib_a-e_fmod.o)
 .data          0x4000001c        0x0 c:/espardino_tmp/bin/../lib/gcc/arm-elf/4.4.0/../../../../arm-elf/lib/thumb/interwork\libm.a(lib_a-e_log.o)
 .data          0x4000001c        0x0 c:/espardino_tmp/bin/../lib/gcc/arm-elf/4.4.0/../../../../arm-elf/lib/thumb/interwork\libm.a(lib_a-e_log10.o)
 .data          0x4000001c        0x0 c:/espardino_tmp/bin/../lib/gcc/arm-elf/4.4.0/../../../../arm-elf/lib/thumb/interwork\libm.a(lib_a-e_pow.o)
 .data          0x4000001c        0x0 c:/espardino_tmp/bin/../lib/gcc/arm-elf/4.4.0/../../../../arm-elf/lib/thumb/interwork\libm.a(lib_a-e_rem_pio2.o)
 .data          0x4000001c        0x0 c:/espardino_tmp/bin/../lib/gcc/arm-elf/4.4.0/../../../../arm-elf/lib/thumb/interwork\libm.a(lib_a-e_sinh.o)
 .data          0x4000001c        0x0 c:/espardino_tmp/bin/../lib/gcc/arm-elf/4.4.0/../../../../arm-elf/lib/thumb/interwork\libm.a(lib_a-e_sqrt.o)
 .data          0x4000001c        0x0 c:/espardino_tmp/bin/../lib/gcc/arm-elf/4.4.0/../../../../arm-elf/lib/thumb/interwork\libm.a(lib_a-k_cos.o)
 .data          0x4000001c        0x0 c:/espardino_tmp/bin/../lib/gcc/arm-elf/4.4.0/../../../../arm-elf/lib/thumb/interwork\libm.a(lib_a-k_rem_pio2.o)
 .data          0x4000001c        0x0 c:/espardino_tmp/bin/../lib/gcc/arm-elf/4.4.0/../../../../arm-elf/lib/thumb/interwork\libm.a(lib_a-k_sin.o)
 .data          0x4000001c        0x0 c:/espardino_tmp/bin/../lib/gcc/arm-elf/4.4.0/../../../../arm-elf/lib/thumb/interwork\libm.a(lib_a-k_tan.o)
 .data          0x4000001c        0x0 c:/espardino_tmp/bin/../lib/gcc/arm-elf/4.4.0/../../../../arm-elf/lib/thumb/interwork\libm.a(lib_a-s_copysign.o)
 .data          0x4000001c        0x0 c:/espardino_tmp/bin/../lib/gcc/arm-elf/4.4.0/../../../../arm-elf/lib/thumb/interwork\libm.a(lib_a-s_expm1.o)
 .data          0x4000001c        0x0 c:/espardino_tmp/bin/../lib/gcc/arm-elf/4.4.0/../../../../arm-elf/lib/thumb/interwork\libm.a(lib_a-s_finite.o)
 .data          0x4000001c        0x0 c:/espardino_tmp/bin/../lib/gcc/arm-elf/4.4.0/../../../../arm-elf/lib/thumb/interwork\libm.a(lib_a-s_isnand.o)
 .data          0x4000001c        0x4 c:/espardino_tmp/bin/../lib/gcc/arm-elf/4.4.0/../../../../arm-elf/lib/thumb/interwork\libm.a(lib_a-s_lib_ver.o)
                0x4000001c                __fdlib_version
 .data          0x40000020        0x0 c:/espardino_tmp/bin/../lib/gcc/arm-elf/4.4.0/../../../../arm-elf/lib/thumb/interwork\libm.a(lib_a-s_matherr.o)
 .data          0x40000020        0x0 c:/espardino_tmp/bin/../lib/gcc/arm-elf/4.4.0/../../../../arm-elf/lib/thumb/interwork\libm.a(lib_a-s_nan.o)
 .data          0x40000020        0x0 c:/espardino_tmp/bin/../lib/gcc/arm-elf/4.4.0/../../../../arm-elf/lib/thumb/interwork\libm.a(lib_a-s_rint.o)
 .data          0x40000020        0x0 c:/espardino_tmp/bin/../lib/gcc/arm-elf/4.4.0/thumb/interwork\libgcc.a(_udivsi3.o)
 .data          0x40000020        0x0 c:/espardino_tmp/bin/../lib/gcc/arm-elf/4.4.0/thumb/interwork\libgcc.a(_divsi3.o)
 .data          0x40000020        0x0 c:/espardino_tmp/bin/../lib/gcc/arm-elf/4.4.0/thumb/interwork\libgcc.a(_umodsi3.o)
 .data          0x40000020        0x0 c:/espardino_tmp/bin/../lib/gcc/arm-elf/4.4.0/thumb/interwork\libgcc.a(_modsi3.o)
 .data          0x40000020        0x0 c:/espardino_tmp/bin/../lib/gcc/arm-elf/4.4.0/thumb/interwork\libgcc.a(_dvmd_tls.o)
 .data          0x40000020        0x0 c:/espardino_tmp/bin/../lib/gcc/arm-elf/4.4.0/thumb/interwork\libgcc.a(_arm_muldivdf3.o)
 .data          0x40000020        0x0 c:/espardino_tmp/bin/../lib/gcc/arm-elf/4.4.0/thumb/interwork\libgcc.a(_arm_cmpdf2.o)
 .data          0x40000020        0x0 c:/espardino_tmp/bin/../lib/gcc/arm-elf/4.4.0/thumb/interwork\libgcc.a(_arm_fixdfsi.o)
 .data          0x40000020        0x0 c:/espardino_tmp/bin/../lib/gcc/arm-elf/4.4.0/thumb/interwork\libgcc.a(_arm_fixunsdfsi.o)
 .data          0x40000020        0x8 c:/espardino_tmp/bin/../lib/gcc/arm-elf/4.4.0/../../../../arm-elf/lib/thumb/interwork\libg.a(lib_a-ctype_.o)
                0x40000020                __ctype_ptr
                0x40000024                __ctype_ptr__
 .data          0x40000028        0x0 c:/espardino_tmp/bin/../lib/gcc/arm-elf/4.4.0/../../../../arm-elf/lib/thumb/interwork\libg.a(lib_a-errno.o)
 .data          0x40000028      0x428 c:/espardino_tmp/bin/../lib/gcc/arm-elf/4.4.0/../../../../arm-elf/lib/thumb/interwork\libg.a(lib_a-impure.o)
                0x40000028                _impure_ptr
 .data          0x40000450       0x10 c:/espardino_tmp/bin/../lib/gcc/arm-elf/4.4.0/../../../../arm-elf/lib/thumb/interwork\libg.a(lib_a-locale.o)
                0x40000450                __mb_cur_max
                0x40000454                __lc_ctype
 .data          0x40000460        0x0 c:/espardino_tmp/bin/../lib/gcc/arm-elf/4.4.0/../../../../arm-elf/lib/thumb/interwork\libg.a(lib_a-malloc.o)
 .data          0x40000460      0x410 c:/espardino_tmp/bin/../lib/gcc/arm-elf/4.4.0/../../../../arm-elf/lib/thumb/interwork\libg.a(lib_a-mallocr.o)
                0x40000868                __malloc_sbrk_base
                0x40000460                __malloc_av_
                0x4000086c                __malloc_trim_threshold
 .data          0x40000870        0x0 c:/espardino_tmp/bin/../lib/gcc/arm-elf/4.4.0/../../../../arm-elf/lib/thumb/interwork\libg.a(lib_a-memcmp.o)
 .data          0x40000870        0x0 c:/espardino_tmp/bin/../lib/gcc/arm-elf/4.4.0/../../../../arm-elf/lib/thumb/interwork\libg.a(lib_a-memcpy.o)
 .data          0x40000870        0x0 c:/espardino_tmp/bin/../lib/gcc/arm-elf/4.4.0/../../../../arm-elf/lib/thumb/interwork\libg.a(lib_a-mlock.o)
 .data          0x40000870        0x0 c:/espardino_tmp/bin/../lib/gcc/arm-elf/4.4.0/../../../../arm-elf/lib/thumb/interwork\libg.a(lib_a-rand.o)
 .data          0x40000870        0x0 c:/espardino_tmp/bin/../lib/gcc/arm-elf/4.4.0/../../../../arm-elf/lib/thumb/interwork\libg.a(lib_a-realloc.o)
 .data          0x40000870        0x0 c:/espardino_tmp/bin/../lib/gcc/arm-elf/4.4.0/../../../../arm-elf/lib/thumb/interwork\libg.a(lib_a-reallocr.o)
 .data          0x40000870        0x0 c:/espardino_tmp/bin/../lib/gcc/arm-elf/4.4.0/../../../../arm-elf/lib/thumb/interwork\libg.a(lib_a-sbrkr.o)
 .data          0x40000870        0x0 c:/espardino_tmp/bin/../lib/gcc/arm-elf/4.4.0/../../../../arm-elf/lib/thumb/interwork\libg.a(lib_a-setjmp.o)
 .data          0x40000870        0x0 c:/espardino_tmp/bin/../lib/gcc/arm-elf/4.4.0/../../../../arm-elf/lib/thumb/interwork\libg.a(lib_a-strcat.o)
 .data          0x40000870        0x0 c:/espardino_tmp/bin/../lib/gcc/arm-elf/4.4.0/../../../../arm-elf/lib/thumb/interwork\libg.a(lib_a-strchr.o)
 .data          0x40000870        0x0 c:/espardino_tmp/bin/../lib/gcc/arm-elf/4.4.0/../../../../arm-elf/lib/thumb/interwork\libg.a(lib_a-strcmp.o)
 .data          0x40000870        0x0 c:/espardino_tmp/bin/../lib/gcc/arm-elf/4.4.0/../../../../arm-elf/lib/thumb/interwork\libg.a(lib_a-strcoll.o)
 .data          0x40000870        0x0 c:/espardino_tmp/bin/../lib/gcc/arm-elf/4.4.0/../../../../arm-elf/lib/thumb/interwork\libg.a(lib_a-strcpy.o)
 .data          0x40000870        0x0 c:/espardino_tmp/bin/../lib/gcc/arm-elf/4.4.0/../../../../arm-elf/lib/thumb/interwork\libg.a(lib_a-strcspn.o)
 .data          0x40000870        0x0 c:/espardino_tmp/bin/../lib/gcc/arm-elf/4.4.0/../../../../arm-elf/lib/thumb/interwork\libg.a(lib_a-strlen.o)
 .data          0x40000870        0x0 c:/espardino_tmp/bin/../lib/gcc/arm-elf/4.4.0/../../../../arm-elf/lib/thumb/interwork\libg.a(lib_a-strncat.o)
 .data          0x40000870        0x0 c:/espardino_tmp/bin/../lib/gcc/arm-elf/4.4.0/../../../../arm-elf/lib/thumb/interwork\libg.a(lib_a-strncpy.o)
 .data          0x40000870        0x0 c:/espardino_tmp/bin/../lib/gcc/arm-elf/4.4.0/../../../../arm-elf/lib/thumb/interwork\libg.a(lib_a-strstr.o)
 .data          0x40000870       0x28 c:/espardino_tmp/bin/../lib/gcc/arm-elf/4.4.0/../../../../arm-elf/lib/thumb/interwork\libg.a(lib_a-strtod.o)
 .data          0x40000898        0x0 c:/espardino_tmp/bin/../lib/gcc/arm-elf/4.4.0/../../../../arm-elf/lib/thumb/interwork\libg.a(lib_a-strtoul.o)
 .data          0x40000898        0x0 c:/espardino_tmp/bin/../lib/gcc/arm-elf/4.4.0/../../../../arm-elf/lib/thumb/interwork\libg.a(lib_a-syscalls.o)
 .data          0x40000898        0x0 c:/espardino_tmp/bin/../lib/gcc/arm-elf/4.4.0/../../../../arm-elf/lib/thumb/interwork\libg.a(lib_a-tmpfile.o)
 .data          0x40000898        0x0 c:/espardino_tmp/bin/../lib/gcc/arm-elf/4.4.0/../../../../arm-elf/lib/thumb/interwork\libg.a(lib_a-tmpnam.o)
 .data          0x40000898        0x0 c:/espardino_tmp/bin/../lib/gcc/arm-elf/4.4.0/../../../../arm-elf/lib/thumb/interwork\libg.a(lib_a-closer.o)
 .data          0x40000898        0x0 c:/espardino_tmp/bin/../lib/gcc/arm-elf/4.4.0/../../../../arm-elf/lib/thumb/interwork\libg.a(lib_a-fdopen.o)
 .data          0x40000898        0x0 c:/espardino_tmp/bin/../lib/gcc/arm-elf/4.4.0/../../../../arm-elf/lib/thumb/interwork\libg.a(lib_a-findfp.o)
 .data          0x40000898        0x0 c:/espardino_tmp/bin/../lib/gcc/arm-elf/4.4.0/../../../../arm-elf/lib/thumb/interwork\libg.a(lib_a-flags.o)
 .data          0x40000898        0x0 c:/espardino_tmp/bin/../lib/gcc/arm-elf/4.4.0/../../../../arm-elf/lib/thumb/interwork\libg.a(lib_a-freer.o)
 .data          0x40000898        0x0 c:/espardino_tmp/bin/../lib/gcc/arm-elf/4.4.0/../../../../arm-elf/lib/thumb/interwork\libg.a(lib_a-fwalk.o)
 .data          0x40000898        0x0 c:/espardino_tmp/bin/../lib/gcc/arm-elf/4.4.0/../../../../arm-elf/lib/thumb/interwork\libg.a(lib_a-gdtoa-gethex.o)
 .data          0x40000898        0x0 c:/espardino_tmp/bin/../lib/gcc/arm-elf/4.4.0/../../../../arm-elf/lib/thumb/interwork\libg.a(lib_a-gdtoa-hexnan.o)
 .data          0x40000898        0x0 c:/espardino_tmp/bin/../lib/gcc/arm-elf/4.4.0/../../../../arm-elf/lib/thumb/interwork\libg.a(lib_a-getenv.o)
 .data          0x40000898        0x0 c:/espardino_tmp/bin/../lib/gcc/arm-elf/4.4.0/../../../../arm-elf/lib/thumb/interwork\libg.a(lib_a-getenv_r.o)
 .data          0x40000898        0x0 c:/espardino_tmp/bin/../lib/gcc/arm-elf/4.4.0/../../../../arm-elf/lib/thumb/interwork\libg.a(lib_a-memchr.o)
 .data          0x40000898        0x0 c:/espardino_tmp/bin/../lib/gcc/arm-elf/4.4.0/../../../../arm-elf/lib/thumb/interwork\libg.a(lib_a-memmove.o)
 .data          0x40000898        0x0 c:/espardino_tmp/bin/../lib/gcc/arm-elf/4.4.0/../../../../arm-elf/lib/thumb/interwork\libg.a(lib_a-memset.o)
 .data          0x40000898        0x0 c:/espardino_tmp/bin/../lib/gcc/arm-elf/4.4.0/../../../../arm-elf/lib/thumb/interwork\libg.a(lib_a-mprec.o)
 .data          0x40000898        0x0 c:/espardino_tmp/bin/../lib/gcc/arm-elf/4.4.0/../../../../arm-elf/lib/thumb/interwork\libg.a(lib_a-openr.o)
 .data          0x40000898        0x0 c:/espardino_tmp/bin/../lib/gcc/arm-elf/4.4.0/../../../../arm-elf/lib/thumb/interwork\libg.a(lib_a-reent.o)
 .data          0x40000898        0x0 c:/espardino_tmp/bin/../lib/gcc/arm-elf/4.4.0/../../../../arm-elf/lib/thumb/interwork\libg.a(lib_a-remove.o)
 .data          0x40000898        0x0 c:/espardino_tmp/bin/../lib/gcc/arm-elf/4.4.0/../../../../arm-elf/lib/thumb/interwork\libg.a(lib_a-sf_nan.o)
 .data          0x40000898        0x0 c:/espardino_tmp/bin/../lib/gcc/arm-elf/4.4.0/../../../../arm-elf/lib/thumb/interwork\libg.a(lib_a-signalr.o)
 .data          0x40000898        0x0 c:/espardino_tmp/bin/../lib/gcc/arm-elf/4.4.0/../../../../arm-elf/lib/thumb/interwork\libg.a(lib_a-sprintf.o)
 .data          0x40000898        0x0 c:/espardino_tmp/bin/../lib/gcc/arm-elf/4.4.0/../../../../arm-elf/lib/thumb/interwork\libg.a(lib_a-stdio.o)
 .data          0x40000898        0x0 c:/espardino_tmp/bin/../lib/gcc/arm-elf/4.4.0/../../../../arm-elf/lib/thumb/interwork\libg.a(lib_a-strncmp.o)
 .data          0x40000898        0x0 c:/espardino_tmp/bin/../lib/gcc/arm-elf/4.4.0/../../../../arm-elf/lib/thumb/interwork\libg.a(lib_a-svfprintf.o)
 .data          0x40000898        0x0 c:/espardino_tmp/bin/../lib/gcc/arm-elf/4.4.0/../../../../arm-elf/lib/thumb/interwork\libg.a(lib_a-unlinkr.o)
 .data          0x40000898        0x0 c:/espardino_tmp/bin/../lib/gcc/arm-elf/4.4.0/../../../../arm-elf/lib/thumb/interwork\libg.a(lib_a-writer.o)
 .data          0x40000898        0x0 c:/espardino_tmp/bin/../lib/gcc/arm-elf/4.4.0/../../../../arm-elf/lib/thumb/interwork\libg.a(lib_a-callocr.o)
 .data          0x40000898        0x0 c:/espardino_tmp/bin/../lib/gcc/arm-elf/4.4.0/../../../../arm-elf/lib/thumb/interwork\libg.a(lib_a-dtoa.o)
 .data          0x40000898        0x4 c:/espardino_tmp/bin/../lib/gcc/arm-elf/4.4.0/../../../../arm-elf/lib/thumb/interwork\libg.a(lib_a-environ.o)
                0x40000898                environ
 .data          0x4000089c        0x0 c:/espardino_tmp/bin/../lib/gcc/arm-elf/4.4.0/../../../../arm-elf/lib/thumb/interwork\libg.a(lib_a-envlock.o)
 .data          0x4000089c        0x0 c:/espardino_tmp/bin/../lib/gcc/arm-elf/4.4.0/../../../../arm-elf/lib/thumb/interwork\libg.a(lib_a-fclose.o)
 .data          0x4000089c        0x0 c:/espardino_tmp/bin/../lib/gcc/arm-elf/4.4.0/../../../../arm-elf/lib/thumb/interwork\libg.a(lib_a-fflush.o)
 .data          0x4000089c        0x0 c:/espardino_tmp/bin/../lib/gcc/arm-elf/4.4.0/../../../../arm-elf/lib/thumb/interwork\libg.a(lib_a-lseekr.o)
 .data          0x4000089c        0x0 c:/espardino_tmp/bin/../lib/gcc/arm-elf/4.4.0/../../../../arm-elf/lib/thumb/interwork\libg.a(lib_a-readr.o)
 .data          0x4000089c        0x0 c:/espardino_tmp/bin/../lib/gcc/arm-elf/4.4.0/../../../../arm-elf/lib/thumb/interwork\libg.a(lib_a-s_isinfd.o)
 .data          0x4000089c        0x0 c:/espardino_tmp/bin/../lib/gcc/arm-elf/4.4.0/thumb/interwork\libgcc.a(_arm_truncdfsf2.o)
 .data          0x4000089c        0x0 c:/espardino_tmp/bin/../lib/gcc/arm-elf/4.4.0/thumb/interwork\libgcc.a(_muldi3.o)
 *(.data.*)
 *(.gnu.linkonce.d*)
                0x4000089c                . = ALIGN (0x4)
 *(.fastrun)
                0x4000089c                . = ALIGN (0x4)
                0x4000089c                _edata = .
                0x4000089c                PROVIDE (edata, .)

.bss            0x4000089c      0x614 load address 0x000252fc
                0x4000089c                __bss_start = .
                0x4000089c                __bss_start__ = .
 *(.bss)
 .bss           0x4000089c        0x0 startup.o
 .bss           0x4000089c        0x0 main.o
 .bss           0x4000089c        0x0 c:/espardino_tmp/bin/../lib/gcc/arm-elf/4.4.0/thumb/interwork\libgcc.a(_arm_addsubdf3.o)
 .bss           0x4000089c        0x4 c:/espardino_tmp/bin/../lib/gcc/arm-elf/4.4.0/../../../../arm-elf/lib\liblua.a(lua_io_wrappers.o)
                0x4000089c                my_stdin_eof
 .bss           0x400008a0        0x0 c:/espardino_tmp/bin/../lib/gcc/arm-elf/4.4.0/../../../../arm-elf/lib\liblua.a(lualib.o)
 .bss           0x400008a0        0x4 c:/espardino_tmp/bin/../lib/gcc/arm-elf/4.4.0/../../../../arm-elf/lib\liblua.a(lualib_console.o)
                0x400008a0                luaconsole_do_exit
 .bss           0x400008a4        0x0 c:/espardino_tmp/bin/../lib/gcc/arm-elf/4.4.0/../../../../arm-elf/lib\liblua.a(all.o)
 .bss           0x400008a4        0x0 c:/espardino_tmp/bin/../lib/gcc/arm-elf/4.4.0/../../../../arm-elf/lib\liblua.a(lualib_bit.o)
 .bss           0x400008a4      0x208 c:/espardino_tmp/bin/../lib/gcc/arm-elf/4.4.0/../../../../arm-elf/lib/thumb/interwork\libffs.a(ff.o)
 .bss           0x40000aac        0xc c:/espardino_tmp/bin/../lib/gcc/arm-elf/4.4.0/../../../../arm-elf/lib/thumb/interwork\libffs.a(sd_spi_lpc2000.o)
 .bss           0x40000ab8        0x0 c:/espardino_tmp/bin/../lib/gcc/arm-elf/4.4.0/../../../../arm-elf/lib/thumb/interwork\libffs.a(ccsbcs.o)
 .bss           0x40000ab8        0x0 c:/espardino_tmp/bin/../lib/gcc/arm-elf/4.4.0/../../../../arm-elf/lib/thumb/interwork\libffs.a(fattime.o)
 .bss           0x40000ab8      0x160 c:/espardino_tmp/bin/../lib/gcc/arm-elf/4.4.0/../../../../arm-elf/lib/thumb/interwork\libvcom.a(main_serial.o)
 .bss           0x40000c18       0x48 c:/espardino_tmp/bin/../lib/gcc/arm-elf/4.4.0/../../../../arm-elf/lib/thumb/interwork\libvcom.a(usbhw_lpc.o)
 .bss           0x40000c60       0x34 c:/espardino_tmp/bin/../lib/gcc/arm-elf/4.4.0/../../../../arm-elf/lib/thumb/interwork\libvcom.a(usbcontrol.o)
 .bss           0x40000c94        0xc c:/espardino_tmp/bin/../lib/gcc/arm-elf/4.4.0/../../../../arm-elf/lib/thumb/interwork\libvcom.a(usbstdreq.o)
 .bss           0x40000ca0        0x8 c:/espardino_tmp/bin/../lib/gcc/arm-elf/4.4.0/../../../../arm-elf/lib/thumb/interwork\libvcom.a(usbinit.o)
 .bss           0x40000ca8        0x0 c:/espardino_tmp/bin/../lib/gcc/arm-elf/4.4.0/../../../../arm-elf/lib/thumb/interwork\libvcom.a(serial_fifo.o)
 .bss           0x40000ca8        0x0 c:/espardino_tmp/bin/../lib/gcc/arm-elf/4.4.0/../../../../arm-elf/lib/thumb/interwork\libvcom.a(armVIC.o)
 .bss           0x40000ca8        0x0 c:/espardino_tmp/bin/../lib/gcc/arm-elf/4.4.0/../../../../arm-elf/lib\libmicro214x.a(leds.o)
 .bss           0x40000ca8        0x4 c:/espardino_tmp/bin/../lib/gcc/arm-elf/4.4.0/../../../../arm-elf/lib\libmicro214x.a(adc.o)
 .bss           0x40000cac        0x0 c:/espardino_tmp/bin/../lib/gcc/arm-elf/4.4.0/../../../../arm-elf/lib\libmicro214x.a(sysclocks.o)
 .bss           0x40000cac        0x4 c:/espardino_tmp/bin/../lib/gcc/arm-elf/4.4.0/../../../../arm-elf/lib\libmicro214x.a(iolib.o)
 .bss           0x40000cb0        0x0 c:/espardino_tmp/bin/../lib/gcc/arm-elf/4.4.0/../../../../arm-elf/lib\libmicro214x.a(rtc.o)
 .bss           0x40000cb0        0x4 c:/espardino_tmp/bin/../lib/gcc/arm-elf/4.4.0/../../../../arm-elf/lib\libmicro214x.a(miniprintf.o)
 .bss           0x40000cb4        0x0 c:/espardino_tmp/bin/../lib/gcc/arm-elf/4.4.0/../../../../arm-elf/lib/thumb/interwork\libm.a(lib_a-s_atan.o)
 .bss           0x40000cb4        0x0 c:/espardino_tmp/bin/../lib/gcc/arm-elf/4.4.0/../../../../arm-elf/lib/thumb/interwork\libm.a(lib_a-s_ceil.o)
 .bss           0x40000cb4        0x0 c:/espardino_tmp/bin/../lib/gcc/arm-elf/4.4.0/../../../../arm-elf/lib/thumb/interwork\libm.a(lib_a-s_cos.o)
 .bss           0x40000cb4        0x0 c:/espardino_tmp/bin/../lib/gcc/arm-elf/4.4.0/../../../../arm-elf/lib/thumb/interwork\libm.a(lib_a-s_fabs.o)
 .bss           0x40000cb4        0x0 c:/espardino_tmp/bin/../lib/gcc/arm-elf/4.4.0/../../../../arm-elf/lib/thumb/interwork\libm.a(lib_a-s_floor.o)
 .bss           0x40000cb4        0x0 c:/espardino_tmp/bin/../lib/gcc/arm-elf/4.4.0/../../../../arm-elf/lib/thumb/interwork\libm.a(lib_a-s_frexp.o)
 .bss           0x40000cb4        0x0 c:/espardino_tmp/bin/../lib/gcc/arm-elf/4.4.0/../../../../arm-elf/lib/thumb/interwork\libm.a(lib_a-s_ldexp.o)
 .bss           0x40000cb4        0x0 c:/espardino_tmp/bin/../lib/gcc/arm-elf/4.4.0/../../../../arm-elf/lib/thumb/interwork\libm.a(lib_a-s_modf.o)
 .bss           0x40000cb4        0x0 c:/espardino_tmp/bin/../lib/gcc/arm-elf/4.4.0/../../../../arm-elf/lib/thumb/interwork\libm.a(lib_a-s_scalbn.o)
 .bss           0x40000cb4        0x0 c:/espardino_tmp/bin/../lib/gcc/arm-elf/4.4.0/../../../../arm-elf/lib/thumb/interwork\libm.a(lib_a-s_sin.o)
 .bss           0x40000cb4        0x0 c:/espardino_tmp/bin/../lib/gcc/arm-elf/4.4.0/../../../../arm-elf/lib/thumb/interwork\libm.a(lib_a-s_tan.o)
 .bss           0x40000cb4        0x0 c:/espardino_tmp/bin/../lib/gcc/arm-elf/4.4.0/../../../../arm-elf/lib/thumb/interwork\libm.a(lib_a-s_tanh.o)
 .bss           0x40000cb4        0x0 c:/espardino_tmp/bin/../lib/gcc/arm-elf/4.4.0/../../../../arm-elf/lib/thumb/interwork\libm.a(lib_a-w_acos.o)
 .bss           0x40000cb4        0x0 c:/espardino_tmp/bin/../lib/gcc/arm-elf/4.4.0/../../../../arm-elf/lib/thumb/interwork\libm.a(lib_a-w_asin.o)
 .bss           0x40000cb4        0x0 c:/espardino_tmp/bin/../lib/gcc/arm-elf/4.4.0/../../../../arm-elf/lib/thumb/interwork\libm.a(lib_a-w_atan2.o)
 .bss           0x40000cb4        0x0 c:/espardino_tmp/bin/../lib/gcc/arm-elf/4.4.0/../../../../arm-elf/lib/thumb/interwork\libm.a(lib_a-w_cosh.o)
 .bss           0x40000cb4        0x0 c:/espardino_tmp/bin/../lib/gcc/arm-elf/4.4.0/../../../../arm-elf/lib/thumb/interwork\libm.a(lib_a-w_exp.o)
 .bss           0x40000cb4        0x0 c:/espardino_tmp/bin/../lib/gcc/arm-elf/4.4.0/../../../../arm-elf/lib/thumb/interwork\libm.a(lib_a-w_fmod.o)
 .bss           0x40000cb4        0x0 c:/espardino_tmp/bin/../lib/gcc/arm-elf/4.4.0/../../../../arm-elf/lib/thumb/interwork\libm.a(lib_a-w_log.o)
 .bss           0x40000cb4        0x0 c:/espardino_tmp/bin/../lib/gcc/arm-elf/4.4.0/../../../../arm-elf/lib/thumb/interwork\libm.a(lib_a-w_log10.o)
 .bss           0x40000cb4        0x0 c:/espardino_tmp/bin/../lib/gcc/arm-elf/4.4.0/../../../../arm-elf/lib/thumb/interwork\libm.a(lib_a-w_pow.o)
 .bss           0x40000cb4        0x0 c:/espardino_tmp/bin/../lib/gcc/arm-elf/4.4.0/../../../../arm-elf/lib/thumb/interwork\libm.a(lib_a-w_sinh.o)
 .bss           0x40000cb4        0x0 c:/espardino_tmp/bin/../lib/gcc/arm-elf/4.4.0/../../../../arm-elf/lib/thumb/interwork\libm.a(lib_a-w_sqrt.o)
 .bss           0x40000cb4        0x0 c:/espardino_tmp/bin/../lib/gcc/arm-elf/4.4.0/../../../../arm-elf/lib/thumb/interwork\libm.a(lib_a-e_acos.o)
 .bss           0x40000cb4        0x0 c:/espardino_tmp/bin/../lib/gcc/arm-elf/4.4.0/../../../../arm-elf/lib/thumb/interwork\libm.a(lib_a-e_asin.o)
 .bss           0x40000cb4        0x0 c:/espardino_tmp/bin/../lib/gcc/arm-elf/4.4.0/../../../../arm-elf/lib/thumb/interwork\libm.a(lib_a-e_atan2.o)
 .bss           0x40000cb4        0x0 c:/espardino_tmp/bin/../lib/gcc/arm-elf/4.4.0/../../../../arm-elf/lib/thumb/interwork\libm.a(lib_a-e_cosh.o)
 .bss           0x40000cb4        0x0 c:/espardino_tmp/bin/../lib/gcc/arm-elf/4.4.0/../../../../arm-elf/lib/thumb/interwork\libm.a(lib_a-e_exp.o)
 .bss           0x40000cb4        0x0 c:/espardino_tmp/bin/../lib/gcc/arm-elf/4.4.0/../../../../arm-elf/lib/thumb/interwork\libm.a(lib_a-e_fmod.o)
 .bss           0x40000cb4        0x0 c:/espardino_tmp/bin/../lib/gcc/arm-elf/4.4.0/../../../../arm-elf/lib/thumb/interwork\libm.a(lib_a-e_log.o)
 .bss           0x40000cb4        0x0 c:/espardino_tmp/bin/../lib/gcc/arm-elf/4.4.0/../../../../arm-elf/lib/thumb/interwork\libm.a(lib_a-e_log10.o)
 .bss           0x40000cb4        0x0 c:/espardino_tmp/bin/../lib/gcc/arm-elf/4.4.0/../../../../arm-elf/lib/thumb/interwork\libm.a(lib_a-e_pow.o)
 .bss           0x40000cb4        0x0 c:/espardino_tmp/bin/../lib/gcc/arm-elf/4.4.0/../../../../arm-elf/lib/thumb/interwork\libm.a(lib_a-e_rem_pio2.o)
 .bss           0x40000cb4        0x0 c:/espardino_tmp/bin/../lib/gcc/arm-elf/4.4.0/../../../../arm-elf/lib/thumb/interwork\libm.a(lib_a-e_sinh.o)
 .bss           0x40000cb4        0x0 c:/espardino_tmp/bin/../lib/gcc/arm-elf/4.4.0/../../../../arm-elf/lib/thumb/interwork\libm.a(lib_a-e_sqrt.o)
 .bss           0x40000cb4        0x0 c:/espardino_tmp/bin/../lib/gcc/arm-elf/4.4.0/../../../../arm-elf/lib/thumb/interwork\libm.a(lib_a-k_cos.o)
 .bss           0x40000cb4        0x0 c:/espardino_tmp/bin/../lib/gcc/arm-elf/4.4.0/../../../../arm-elf/lib/thumb/interwork\libm.a(lib_a-k_rem_pio2.o)
 .bss           0x40000cb4        0x0 c:/espardino_tmp/bin/../lib/gcc/arm-elf/4.4.0/../../../../arm-elf/lib/thumb/interwork\libm.a(lib_a-k_sin.o)
 .bss           0x40000cb4        0x0 c:/espardino_tmp/bin/../lib/gcc/arm-elf/4.4.0/../../../../arm-elf/lib/thumb/interwork\libm.a(lib_a-k_tan.o)
 .bss           0x40000cb4        0x0 c:/espardino_tmp/bin/../lib/gcc/arm-elf/4.4.0/../../../../arm-elf/lib/thumb/interwork\libm.a(lib_a-s_copysign.o)
 .bss           0x40000cb4        0x0 c:/espardino_tmp/bin/../lib/gcc/arm-elf/4.4.0/../../../../arm-elf/lib/thumb/interwork\libm.a(lib_a-s_expm1.o)
 .bss           0x40000cb4        0x0 c:/espardino_tmp/bin/../lib/gcc/arm-elf/4.4.0/../../../../arm-elf/lib/thumb/interwork\libm.a(lib_a-s_finite.o)
 .bss           0x40000cb4        0x0 c:/espardino_tmp/bin/../lib/gcc/arm-elf/4.4.0/../../../../arm-elf/lib/thumb/interwork\libm.a(lib_a-s_isnand.o)
 .bss           0x40000cb4        0x0 c:/espardino_tmp/bin/../lib/gcc/arm-elf/4.4.0/../../../../arm-elf/lib/thumb/interwork\libm.a(lib_a-s_lib_ver.o)
 .bss           0x40000cb4        0x0 c:/espardino_tmp/bin/../lib/gcc/arm-elf/4.4.0/../../../../arm-elf/lib/thumb/interwork\libm.a(lib_a-s_matherr.o)
 .bss           0x40000cb4        0x0 c:/espardino_tmp/bin/../lib/gcc/arm-elf/4.4.0/../../../../arm-elf/lib/thumb/interwork\libm.a(lib_a-s_nan.o)
 .bss           0x40000cb4        0x0 c:/espardino_tmp/bin/../lib/gcc/arm-elf/4.4.0/../../../../arm-elf/lib/thumb/interwork\libm.a(lib_a-s_rint.o)
 .bss           0x40000cb4        0x0 c:/espardino_tmp/bin/../lib/gcc/arm-elf/4.4.0/thumb/interwork\libgcc.a(_udivsi3.o)
 .bss           0x40000cb4        0x0 c:/espardino_tmp/bin/../lib/gcc/arm-elf/4.4.0/thumb/interwork\libgcc.a(_divsi3.o)
 .bss           0x40000cb4        0x0 c:/espardino_tmp/bin/../lib/gcc/arm-elf/4.4.0/thumb/interwork\libgcc.a(_umodsi3.o)
 .bss           0x40000cb4        0x0 c:/espardino_tmp/bin/../lib/gcc/arm-elf/4.4.0/thumb/interwork\libgcc.a(_modsi3.o)
 .bss           0x40000cb4        0x0 c:/espardino_tmp/bin/../lib/gcc/arm-elf/4.4.0/thumb/interwork\libgcc.a(_dvmd_tls.o)
 .bss           0x40000cb4        0x0 c:/espardino_tmp/bin/../lib/gcc/arm-elf/4.4.0/thumb/interwork\libgcc.a(_arm_muldivdf3.o)
 .bss           0x40000cb4        0x0 c:/espardino_tmp/bin/../lib/gcc/arm-elf/4.4.0/thumb/interwork\libgcc.a(_arm_cmpdf2.o)
 .bss           0x40000cb4        0x0 c:/espardino_tmp/bin/../lib/gcc/arm-elf/4.4.0/thumb/interwork\libgcc.a(_arm_fixdfsi.o)
 .bss           0x40000cb4        0x0 c:/espardino_tmp/bin/../lib/gcc/arm-elf/4.4.0/thumb/interwork\libgcc.a(_arm_fixunsdfsi.o)
 .bss           0x40000cb4        0x0 c:/espardino_tmp/bin/../lib/gcc/arm-elf/4.4.0/../../../../arm-elf/lib/thumb/interwork\libg.a(lib_a-ctype_.o)
 .bss           0x40000cb4        0x0 c:/espardino_tmp/bin/../lib/gcc/arm-elf/4.4.0/../../../../arm-elf/lib/thumb/interwork\libg.a(lib_a-errno.o)
 .bss           0x40000cb4        0x0 c:/espardino_tmp/bin/../lib/gcc/arm-elf/4.4.0/../../../../arm-elf/lib/thumb/interwork\libg.a(lib_a-impure.o)
 .bss           0x40000cb4        0xc c:/espardino_tmp/bin/../lib/gcc/arm-elf/4.4.0/../../../../arm-elf/lib/thumb/interwork\libg.a(lib_a-locale.o)
                0x40000cb4                __nlocale_changed
                0x40000cb8                __mlocale_changed
                0x40000cbc                _PathLocale
 .bss           0x40000cc0        0x0 c:/espardino_tmp/bin/../lib/gcc/arm-elf/4.4.0/../../../../arm-elf/lib/thumb/interwork\libg.a(lib_a-malloc.o)
 .bss           0x40000cc0       0x34 c:/espardino_tmp/bin/../lib/gcc/arm-elf/4.4.0/../../../../arm-elf/lib/thumb/interwork\libg.a(lib_a-mallocr.o)
                0x40000cc0                __malloc_top_pad
                0x40000cec                __malloc_max_sbrked_mem
                0x40000cc4                __malloc_current_mallinfo
                0x40000cf0                __malloc_max_total_mem
 .bss           0x40000cf4        0x0 c:/espardino_tmp/bin/../lib/gcc/arm-elf/4.4.0/../../../../arm-elf/lib/thumb/interwork\libg.a(lib_a-memcmp.o)
 .bss           0x40000cf4        0x0 c:/espardino_tmp/bin/../lib/gcc/arm-elf/4.4.0/../../../../arm-elf/lib/thumb/interwork\libg.a(lib_a-memcpy.o)
 .bss           0x40000cf4        0x0 c:/espardino_tmp/bin/../lib/gcc/arm-elf/4.4.0/../../../../arm-elf/lib/thumb/interwork\libg.a(lib_a-mlock.o)
 .bss           0x40000cf4        0x0 c:/espardino_tmp/bin/../lib/gcc/arm-elf/4.4.0/../../../../arm-elf/lib/thumb/interwork\libg.a(lib_a-rand.o)
 .bss           0x40000cf4        0x0 c:/espardino_tmp/bin/../lib/gcc/arm-elf/4.4.0/../../../../arm-elf/lib/thumb/interwork\libg.a(lib_a-realloc.o)
 .bss           0x40000cf4        0x0 c:/espardino_tmp/bin/../lib/gcc/arm-elf/4.4.0/../../../../arm-elf/lib/thumb/interwork\libg.a(lib_a-reallocr.o)
 .bss           0x40000cf4        0x0 c:/espardino_tmp/bin/../lib/gcc/arm-elf/4.4.0/../../../../arm-elf/lib/thumb/interwork\libg.a(lib_a-sbrkr.o)
 .bss           0x40000cf4        0x0 c:/espardino_tmp/bin/../lib/gcc/arm-elf/4.4.0/../../../../arm-elf/lib/thumb/interwork\libg.a(lib_a-setjmp.o)
 .bss           0x40000cf4        0x0 c:/espardino_tmp/bin/../lib/gcc/arm-elf/4.4.0/../../../../arm-elf/lib/thumb/interwork\libg.a(lib_a-strcat.o)
 .bss           0x40000cf4        0x0 c:/espardino_tmp/bin/../lib/gcc/arm-elf/4.4.0/../../../../arm-elf/lib/thumb/interwork\libg.a(lib_a-strchr.o)
 .bss           0x40000cf4        0x0 c:/espardino_tmp/bin/../lib/gcc/arm-elf/4.4.0/../../../../arm-elf/lib/thumb/interwork\libg.a(lib_a-strcmp.o)
 .bss           0x40000cf4        0x0 c:/espardino_tmp/bin/../lib/gcc/arm-elf/4.4.0/../../../../arm-elf/lib/thumb/interwork\libg.a(lib_a-strcoll.o)
 .bss           0x40000cf4        0x0 c:/espardino_tmp/bin/../lib/gcc/arm-elf/4.4.0/../../../../arm-elf/lib/thumb/interwork\libg.a(lib_a-strcpy.o)
 .bss           0x40000cf4        0x0 c:/espardino_tmp/bin/../lib/gcc/arm-elf/4.4.0/../../../../arm-elf/lib/thumb/interwork\libg.a(lib_a-strcspn.o)
 .bss           0x40000cf4        0x0 c:/espardino_tmp/bin/../lib/gcc/arm-elf/4.4.0/../../../../arm-elf/lib/thumb/interwork\libg.a(lib_a-strlen.o)
 .bss           0x40000cf4        0x0 c:/espardino_tmp/bin/../lib/gcc/arm-elf/4.4.0/../../../../arm-elf/lib/thumb/interwork\libg.a(lib_a-strncat.o)
 .bss           0x40000cf4        0x0 c:/espardino_tmp/bin/../lib/gcc/arm-elf/4.4.0/../../../../arm-elf/lib/thumb/interwork\libg.a(lib_a-strncpy.o)
 .bss           0x40000cf4        0x0 c:/espardino_tmp/bin/../lib/gcc/arm-elf/4.4.0/../../../../arm-elf/lib/thumb/interwork\libg.a(lib_a-strstr.o)
 .bss           0x40000cf4        0x0 c:/espardino_tmp/bin/../lib/gcc/arm-elf/4.4.0/../../../../arm-elf/lib/thumb/interwork\libg.a(lib_a-strtod.o)
 .bss           0x40000cf4        0x0 c:/espardino_tmp/bin/../lib/gcc/arm-elf/4.4.0/../../../../arm-elf/lib/thumb/interwork\libg.a(lib_a-strtoul.o)
 .bss           0x40000cf4       0xb0 c:/espardino_tmp/bin/../lib/gcc/arm-elf/4.4.0/../../../../arm-elf/lib/thumb/interwork\libg.a(lib_a-syscalls.o)
 .bss           0x40000da4        0x0 c:/espardino_tmp/bin/../lib/gcc/arm-elf/4.4.0/../../../../arm-elf/lib/thumb/interwork\libg.a(lib_a-tmpfile.o)
 .bss           0x40000da4        0x0 c:/espardino_tmp/bin/../lib/gcc/arm-elf/4.4.0/../../../../arm-elf/lib/thumb/interwork\libg.a(lib_a-tmpnam.o)
 .bss           0x40000da4        0x0 c:/espardino_tmp/bin/../lib/gcc/arm-elf/4.4.0/../../../../arm-elf/lib/thumb/interwork\libg.a(lib_a-closer.o)
 .bss           0x40000da4        0x0 c:/espardino_tmp/bin/../lib/gcc/arm-elf/4.4.0/../../../../arm-elf/lib/thumb/interwork\libg.a(lib_a-fdopen.o)
 .bss           0x40000da4        0x0 c:/espardino_tmp/bin/../lib/gcc/arm-elf/4.4.0/../../../../arm-elf/lib/thumb/interwork\libg.a(lib_a-findfp.o)
 .bss           0x40000da4        0x0 c:/espardino_tmp/bin/../lib/gcc/arm-elf/4.4.0/../../../../arm-elf/lib/thumb/interwork\libg.a(lib_a-flags.o)
 .bss           0x40000da4        0x0 c:/espardino_tmp/bin/../lib/gcc/arm-elf/4.4.0/../../../../arm-elf/lib/thumb/interwork\libg.a(lib_a-freer.o)
 .bss           0x40000da4        0x0 c:/espardino_tmp/bin/../lib/gcc/arm-elf/4.4.0/../../../../arm-elf/lib/thumb/interwork\libg.a(lib_a-fwalk.o)
 .bss           0x40000da4        0x0 c:/espardino_tmp/bin/../lib/gcc/arm-elf/4.4.0/../../../../arm-elf/lib/thumb/interwork\libg.a(lib_a-gdtoa-gethex.o)
 .bss           0x40000da4        0x0 c:/espardino_tmp/bin/../lib/gcc/arm-elf/4.4.0/../../../../arm-elf/lib/thumb/interwork\libg.a(lib_a-gdtoa-hexnan.o)
 .bss           0x40000da4        0x0 c:/espardino_tmp/bin/../lib/gcc/arm-elf/4.4.0/../../../../arm-elf/lib/thumb/interwork\libg.a(lib_a-getenv.o)
 .bss           0x40000da4        0x0 c:/espardino_tmp/bin/../lib/gcc/arm-elf/4.4.0/../../../../arm-elf/lib/thumb/interwork\libg.a(lib_a-getenv_r.o)
 .bss           0x40000da4        0x0 c:/espardino_tmp/bin/../lib/gcc/arm-elf/4.4.0/../../../../arm-elf/lib/thumb/interwork\libg.a(lib_a-memchr.o)
 .bss           0x40000da4        0x0 c:/espardino_tmp/bin/../lib/gcc/arm-elf/4.4.0/../../../../arm-elf/lib/thumb/interwork\libg.a(lib_a-memmove.o)
 .bss           0x40000da4        0x0 c:/espardino_tmp/bin/../lib/gcc/arm-elf/4.4.0/../../../../arm-elf/lib/thumb/interwork\libg.a(lib_a-memset.o)
 .bss           0x40000da4        0x0 c:/espardino_tmp/bin/../lib/gcc/arm-elf/4.4.0/../../../../arm-elf/lib/thumb/interwork\libg.a(lib_a-mprec.o)
 .bss           0x40000da4        0x0 c:/espardino_tmp/bin/../lib/gcc/arm-elf/4.4.0/../../../../arm-elf/lib/thumb/interwork\libg.a(lib_a-openr.o)
 .bss           0x40000da4        0x0 c:/espardino_tmp/bin/../lib/gcc/arm-elf/4.4.0/../../../../arm-elf/lib/thumb/interwork\libg.a(lib_a-reent.o)
 .bss           0x40000da4        0x0 c:/espardino_tmp/bin/../lib/gcc/arm-elf/4.4.0/../../../../arm-elf/lib/thumb/interwork\libg.a(lib_a-remove.o)
 .bss           0x40000da4        0x0 c:/espardino_tmp/bin/../lib/gcc/arm-elf/4.4.0/../../../../arm-elf/lib/thumb/interwork\libg.a(lib_a-sf_nan.o)
 .bss           0x40000da4        0x0 c:/espardino_tmp/bin/../lib/gcc/arm-elf/4.4.0/../../../../arm-elf/lib/thumb/interwork\libg.a(lib_a-signalr.o)
 .bss           0x40000da4        0x0 c:/espardino_tmp/bin/../lib/gcc/arm-elf/4.4.0/../../../../arm-elf/lib/thumb/interwork\libg.a(lib_a-sprintf.o)
 .bss           0x40000da4        0x0 c:/espardino_tmp/bin/../lib/gcc/arm-elf/4.4.0/../../../../arm-elf/lib/thumb/interwork\libg.a(lib_a-stdio.o)
 .bss           0x40000da4        0x0 c:/espardino_tmp/bin/../lib/gcc/arm-elf/4.4.0/../../../../arm-elf/lib/thumb/interwork\libg.a(lib_a-strncmp.o)
 .bss           0x40000da4        0x0 c:/espardino_tmp/bin/../lib/gcc/arm-elf/4.4.0/../../../../arm-elf/lib/thumb/interwork\libg.a(lib_a-svfprintf.o)
 .bss           0x40000da4        0x0 c:/espardino_tmp/bin/../lib/gcc/arm-elf/4.4.0/../../../../arm-elf/lib/thumb/interwork\libg.a(lib_a-unlinkr.o)
 .bss           0x40000da4        0x0 c:/espardino_tmp/bin/../lib/gcc/arm-elf/4.4.0/../../../../arm-elf/lib/thumb/interwork\libg.a(lib_a-writer.o)
 .bss           0x40000da4        0x0 c:/espardino_tmp/bin/../lib/gcc/arm-elf/4.4.0/../../../../arm-elf/lib/thumb/interwork\libg.a(lib_a-callocr.o)
 .bss           0x40000da4        0x0 c:/espardino_tmp/bin/../lib/gcc/arm-elf/4.4.0/../../../../arm-elf/lib/thumb/interwork\libg.a(lib_a-dtoa.o)
 .bss           0x40000da4        0x4 c:/espardino_tmp/bin/../lib/gcc/arm-elf/4.4.0/../../../../arm-elf/lib/thumb/interwork\libg.a(lib_a-environ.o)
 .bss           0x40000da8        0x0 c:/espardino_tmp/bin/../lib/gcc/arm-elf/4.4.0/../../../../arm-elf/lib/thumb/interwork\libg.a(lib_a-envlock.o)
 .bss           0x40000da8        0x0 c:/espardino_tmp/bin/../lib/gcc/arm-elf/4.4.0/../../../../arm-elf/lib/thumb/interwork\libg.a(lib_a-fclose.o)
 .bss           0x40000da8        0x0 c:/espardino_tmp/bin/../lib/gcc/arm-elf/4.4.0/../../../../arm-elf/lib/thumb/interwork\libg.a(lib_a-fflush.o)
 .bss           0x40000da8        0x0 c:/espardino_tmp/bin/../lib/gcc/arm-elf/4.4.0/../../../../arm-elf/lib/thumb/interwork\libg.a(lib_a-lseekr.o)
 .bss           0x40000da8        0x0 c:/espardino_tmp/bin/../lib/gcc/arm-elf/4.4.0/../../../../arm-elf/lib/thumb/interwork\libg.a(lib_a-readr.o)
 .bss           0x40000da8        0x0 c:/espardino_tmp/bin/../lib/gcc/arm-elf/4.4.0/../../../../arm-elf/lib/thumb/interwork\libg.a(lib_a-s_isinfd.o)
 .bss           0x40000da8        0x0 c:/espardino_tmp/bin/../lib/gcc/arm-elf/4.4.0/thumb/interwork\libgcc.a(_arm_truncdfsf2.o)
 .bss           0x40000da8        0x0 c:/espardino_tmp/bin/../lib/gcc/arm-elf/4.4.0/thumb/interwork\libgcc.a(_muldi3.o)
 *(.gnu.linkonce.b*)
 *(COMMON)
 COMMON         0x40000da8        0x4 c:/espardino_tmp/bin/../lib/gcc/arm-elf/4.4.0/../../../../arm-elf/lib\liblua.a(lua_io_wrappers.o)
                0x40000da8                lua_fatfs
 COMMON         0x40000dac      0x100 c:/espardino_tmp/bin/../lib/gcc/arm-elf/4.4.0/../../../../arm-elf/lib/thumb/interwork\libg.a(lib_a-gdtoa-gethex.o)
                0x40000dac                __hexdig
 COMMON         0x40000eac        0x4 c:/espardino_tmp/bin/../lib/gcc/arm-elf/4.4.0/../../../../arm-elf/lib/thumb/interwork\libg.a(lib_a-reent.o)
                0x40000eac                errno
                0x40000eb0                . = ALIGN (0x4)
                0x40000eb0                . = ALIGN (0x4)
                0x40000eb0                __bss_end__ = .
                0x40000eb0                PROVIDE (__bss_end, .)

.stack          0x40000f00       0x10 load address 0x00025960
                0x40000f10                . = (. + STACK_SIZE)
 *fill*         0x40000f00       0x10 00
                0x40000f10                PROVIDE (_stack, .)
                0x40000f10                _end = .
                0x40000f10                PROVIDE (end, .)

.stab
 *(.stab)

.stabstr
 *(.stabstr)

.stab.excl
 *(.stab.excl)

.stab.exclstr
 *(.stab.exclstr)

.stab.index
 *(.stab.index)

.stab.indexstr
 *(.stab.indexstr)

.comment        0x00000000      0x95a
 *(.comment)
 .comment       0x00000000       0x12 main.o
 .comment       0x00000012       0x12 c:/espardino_tmp/bin/../lib/gcc/arm-elf/4.4.0/../../../../arm-elf/lib\liblua.a(lua_io_wrappers.o)
 .comment       0x00000024       0x12 c:/espardino_tmp/bin/../lib/gcc/arm-elf/4.4.0/../../../../arm-elf/lib\liblua.a(lualib.o)
 .comment       0x00000036       0x12 c:/espardino_tmp/bin/../lib/gcc/arm-elf/4.4.0/../../../../arm-elf/lib\liblua.a(lualib_console.o)
 .comment       0x00000048       0x12 c:/espardino_tmp/bin/../lib/gcc/arm-elf/4.4.0/../../../../arm-elf/lib\liblua.a(all.o)
 .comment       0x0000005a       0x12 c:/espardino_tmp/bin/../lib/gcc/arm-elf/4.4.0/../../../../arm-elf/lib\liblua.a(lualib_bit.o)
 .comment       0x0000006c       0x12 c:/espardino_tmp/bin/../lib/gcc/arm-elf/4.4.0/../../../../arm-elf/lib/thumb/interwork\libffs.a(ff.o)
 .comment       0x0000007e       0x12 c:/espardino_tmp/bin/../lib/gcc/arm-elf/4.4.0/../../../../arm-elf/lib/thumb/interwork\libffs.a(sd_spi_lpc2000.o)
 .comment       0x00000090       0x12 c:/espardino_tmp/bin/../lib/gcc/arm-elf/4.4.0/../../../../arm-elf/lib/thumb/interwork\libffs.a(ccsbcs.o)
 .comment       0x000000a2       0x12 c:/espardino_tmp/bin/../lib/gcc/arm-elf/4.4.0/../../../../arm-elf/lib/thumb/interwork\libffs.a(fattime.o)
 .comment       0x000000b4       0x12 c:/espardino_tmp/bin/../lib/gcc/arm-elf/4.4.0/../../../../arm-elf/lib/thumb/interwork\libvcom.a(main_serial.o)
 .comment       0x000000c6       0x12 c:/espardino_tmp/bin/../lib/gcc/arm-elf/4.4.0/../../../../arm-elf/lib/thumb/interwork\libvcom.a(usbhw_lpc.o)
 .comment       0x000000d8       0x12 c:/espardino_tmp/bin/../lib/gcc/arm-elf/4.4.0/../../../../arm-elf/lib/thumb/interwork\libvcom.a(usbcontrol.o)
 .comment       0x000000ea       0x12 c:/espardino_tmp/bin/../lib/gcc/arm-elf/4.4.0/../../../../arm-elf/lib/thumb/interwork\libvcom.a(usbstdreq.o)
 .comment       0x000000fc       0x12 c:/espardino_tmp/bin/../lib/gcc/arm-elf/4.4.0/../../../../arm-elf/lib/thumb/interwork\libvcom.a(usbinit.o)
 .comment       0x0000010e       0x12 c:/espardino_tmp/bin/../lib/gcc/arm-elf/4.4.0/../../../../arm-elf/lib/thumb/interwork\libvcom.a(serial_fifo.o)
 .comment       0x00000120       0x12 c:/espardino_tmp/bin/../lib/gcc/arm-elf/4.4.0/../../../../arm-elf/lib/thumb/interwork\libvcom.a(armVIC.o)
 .comment       0x00000132       0x12 c:/espardino_tmp/bin/../lib/gcc/arm-elf/4.4.0/../../../../arm-elf/lib\libmicro214x.a(leds.o)
 .comment       0x00000144       0x12 c:/espardino_tmp/bin/../lib/gcc/arm-elf/4.4.0/../../../../arm-elf/lib\libmicro214x.a(adc.o)
 .comment       0x00000156       0x12 c:/espardino_tmp/bin/../lib/gcc/arm-elf/4.4.0/../../../../arm-elf/lib\libmicro214x.a(sysclocks.o)
 .comment       0x00000168       0x12 c:/espardino_tmp/bin/../lib/gcc/arm-elf/4.4.0/../../../../arm-elf/lib\libmicro214x.a(iolib.o)
 .comment       0x0000017a       0x12 c:/espardino_tmp/bin/../lib/gcc/arm-elf/4.4.0/../../../../arm-elf/lib\libmicro214x.a(rtc.o)
 .comment       0x0000018c       0x12 c:/espardino_tmp/bin/../lib/gcc/arm-elf/4.4.0/../../../../arm-elf/lib\libmicro214x.a(miniprintf.o)
 .comment       0x0000019e       0x12 c:/espardino_tmp/bin/../lib/gcc/arm-elf/4.4.0/../../../../arm-elf/lib/thumb/interwork\libm.a(lib_a-s_atan.o)
 .comment       0x000001b0       0x12 c:/espardino_tmp/bin/../lib/gcc/arm-elf/4.4.0/../../../../arm-elf/lib/thumb/interwork\libm.a(lib_a-s_ceil.o)
 .comment       0x000001c2       0x12 c:/espardino_tmp/bin/../lib/gcc/arm-elf/4.4.0/../../../../arm-elf/lib/thumb/interwork\libm.a(lib_a-s_cos.o)
 .comment       0x000001d4       0x12 c:/espardino_tmp/bin/../lib/gcc/arm-elf/4.4.0/../../../../arm-elf/lib/thumb/interwork\libm.a(lib_a-s_fabs.o)
 .comment       0x000001e6       0x12 c:/espardino_tmp/bin/../lib/gcc/arm-elf/4.4.0/../../../../arm-elf/lib/thumb/interwork\libm.a(lib_a-s_floor.o)
 .comment       0x000001f8       0x12 c:/espardino_tmp/bin/../lib/gcc/arm-elf/4.4.0/../../../../arm-elf/lib/thumb/interwork\libm.a(lib_a-s_frexp.o)
 .comment       0x0000020a       0x12 c:/espardino_tmp/bin/../lib/gcc/arm-elf/4.4.0/../../../../arm-elf/lib/thumb/interwork\libm.a(lib_a-s_ldexp.o)
 .comment       0x0000021c       0x12 c:/espardino_tmp/bin/../lib/gcc/arm-elf/4.4.0/../../../../arm-elf/lib/thumb/interwork\libm.a(lib_a-s_modf.o)
 .comment       0x0000022e       0x12 c:/espardino_tmp/bin/../lib/gcc/arm-elf/4.4.0/../../../../arm-elf/lib/thumb/interwork\libm.a(lib_a-s_scalbn.o)
 .comment       0x00000240       0x12 c:/espardino_tmp/bin/../lib/gcc/arm-elf/4.4.0/../../../../arm-elf/lib/thumb/interwork\libm.a(lib_a-s_sin.o)
 .comment       0x00000252       0x12 c:/espardino_tmp/bin/../lib/gcc/arm-elf/4.4.0/../../../../arm-elf/lib/thumb/interwork\libm.a(lib_a-s_tan.o)
 .comment       0x00000264       0x12 c:/espardino_tmp/bin/../lib/gcc/arm-elf/4.4.0/../../../../arm-elf/lib/thumb/interwork\libm.a(lib_a-s_tanh.o)
 .comment       0x00000276       0x12 c:/espardino_tmp/bin/../lib/gcc/arm-elf/4.4.0/../../../../arm-elf/lib/thumb/interwork\libm.a(lib_a-w_acos.o)
 .comment       0x00000288       0x12 c:/espardino_tmp/bin/../lib/gcc/arm-elf/4.4.0/../../../../arm-elf/lib/thumb/interwork\libm.a(lib_a-w_asin.o)
 .comment       0x0000029a       0x12 c:/espardino_tmp/bin/../lib/gcc/arm-elf/4.4.0/../../../../arm-elf/lib/thumb/interwork\libm.a(lib_a-w_atan2.o)
 .comment       0x000002ac       0x12 c:/espardino_tmp/bin/../lib/gcc/arm-elf/4.4.0/../../../../arm-elf/lib/thumb/interwork\libm.a(lib_a-w_cosh.o)
 .comment       0x000002be       0x12 c:/espardino_tmp/bin/../lib/gcc/arm-elf/4.4.0/../../../../arm-elf/lib/thumb/interwork\libm.a(lib_a-w_exp.o)
 .comment       0x000002d0       0x12 c:/espardino_tmp/bin/../lib/gcc/arm-elf/4.4.0/../../../../arm-elf/lib/thumb/interwork\libm.a(lib_a-w_fmod.o)
 .comment       0x000002e2       0x12 c:/espardino_tmp/bin/../lib/gcc/arm-elf/4.4.0/../../../../arm-elf/lib/thumb/interwork\libm.a(lib_a-w_log.o)
 .comment       0x000002f4       0x12 c:/espardino_tmp/bin/../lib/gcc/arm-elf/4.4.0/../../../../arm-elf/lib/thumb/interwork\libm.a(lib_a-w_log10.o)
 .comment       0x00000306       0x12 c:/espardino_tmp/bin/../lib/gcc/arm-elf/4.4.0/../../../../arm-elf/lib/thumb/interwork\libm.a(lib_a-w_pow.o)
 .comment       0x00000318       0x12 c:/espardino_tmp/bin/../lib/gcc/arm-elf/4.4.0/../../../../arm-elf/lib/thumb/interwork\libm.a(lib_a-w_sinh.o)
 .comment       0x0000032a       0x12 c:/espardino_tmp/bin/../lib/gcc/arm-elf/4.4.0/../../../../arm-elf/lib/thumb/interwork\libm.a(lib_a-w_sqrt.o)
 .comment       0x0000033c       0x12 c:/espardino_tmp/bin/../lib/gcc/arm-elf/4.4.0/../../../../arm-elf/lib/thumb/interwork\libm.a(lib_a-e_acos.o)
 .comment       0x0000034e       0x12 c:/espardino_tmp/bin/../lib/gcc/arm-elf/4.4.0/../../../../arm-elf/lib/thumb/interwork\libm.a(lib_a-e_asin.o)
 .comment       0x00000360       0x12 c:/espardino_tmp/bin/../lib/gcc/arm-elf/4.4.0/../../../../arm-elf/lib/thumb/interwork\libm.a(lib_a-e_atan2.o)
 .comment       0x00000372       0x12 c:/espardino_tmp/bin/../lib/gcc/arm-elf/4.4.0/../../../../arm-elf/lib/thumb/interwork\libm.a(lib_a-e_cosh.o)
 .comment       0x00000384       0x12 c:/espardino_tmp/bin/../lib/gcc/arm-elf/4.4.0/../../../../arm-elf/lib/thumb/interwork\libm.a(lib_a-e_exp.o)
 .comment       0x00000396       0x12 c:/espardino_tmp/bin/../lib/gcc/arm-elf/4.4.0/../../../../arm-elf/lib/thumb/interwork\libm.a(lib_a-e_fmod.o)
 .comment       0x000003a8       0x12 c:/espardino_tmp/bin/../lib/gcc/arm-elf/4.4.0/../../../../arm-elf/lib/thumb/interwork\libm.a(lib_a-e_log.o)
 .comment       0x000003ba       0x12 c:/espardino_tmp/bin/../lib/gcc/arm-elf/4.4.0/../../../../arm-elf/lib/thumb/interwork\libm.a(lib_a-e_log10.o)
 .comment       0x000003cc       0x12 c:/espardino_tmp/bin/../lib/gcc/arm-elf/4.4.0/../../../../arm-elf/lib/thumb/interwork\libm.a(lib_a-e_pow.o)
 .comment       0x000003de       0x12 c:/espardino_tmp/bin/../lib/gcc/arm-elf/4.4.0/../../../../arm-elf/lib/thumb/interwork\libm.a(lib_a-e_rem_pio2.o)
 .comment       0x000003f0       0x12 c:/espardino_tmp/bin/../lib/gcc/arm-elf/4.4.0/../../../../arm-elf/lib/thumb/interwork\libm.a(lib_a-e_sinh.o)
 .comment       0x00000402       0x12 c:/espardino_tmp/bin/../lib/gcc/arm-elf/4.4.0/../../../../arm-elf/lib/thumb/interwork\libm.a(lib_a-e_sqrt.o)
 .comment       0x00000414       0x12 c:/espardino_tmp/bin/../lib/gcc/arm-elf/4.4.0/../../../../arm-elf/lib/thumb/interwork\libm.a(lib_a-k_cos.o)
 .comment       0x00000426       0x12 c:/espardino_tmp/bin/../lib/gcc/arm-elf/4.4.0/../../../../arm-elf/lib/thumb/interwork\libm.a(lib_a-k_rem_pio2.o)
 .comment       0x00000438       0x12 c:/espardino_tmp/bin/../lib/gcc/arm-elf/4.4.0/../../../../arm-elf/lib/thumb/interwork\libm.a(lib_a-k_sin.o)
 .comment       0x0000044a       0x12 c:/espardino_tmp/bin/../lib/gcc/arm-elf/4.4.0/../../../../arm-elf/lib/thumb/interwork\libm.a(lib_a-k_tan.o)
 .comment       0x0000045c       0x12 c:/espardino_tmp/bin/../lib/gcc/arm-elf/4.4.0/../../../../arm-elf/lib/thumb/interwork\libm.a(lib_a-s_copysign.o)
 .comment       0x0000046e       0x12 c:/espardino_tmp/bin/../lib/gcc/arm-elf/4.4.0/../../../../arm-elf/lib/thumb/interwork\libm.a(lib_a-s_expm1.o)
 .comment       0x00000480       0x12 c:/espardino_tmp/bin/../lib/gcc/arm-elf/4.4.0/../../../../arm-elf/lib/thumb/interwork\libm.a(lib_a-s_finite.o)
 .comment       0x00000492       0x12 c:/espardino_tmp/bin/../lib/gcc/arm-elf/4.4.0/../../../../arm-elf/lib/thumb/interwork\libm.a(lib_a-s_isnand.o)
 .comment       0x000004a4       0x12 c:/espardino_tmp/bin/../lib/gcc/arm-elf/4.4.0/../../../../arm-elf/lib/thumb/interwork\libm.a(lib_a-s_lib_ver.o)
 .comment       0x000004b6       0x12 c:/espardino_tmp/bin/../lib/gcc/arm-elf/4.4.0/../../../../arm-elf/lib/thumb/interwork\libm.a(lib_a-s_matherr.o)
 .comment       0x000004c8       0x12 c:/espardino_tmp/bin/../lib/gcc/arm-elf/4.4.0/../../../../arm-elf/lib/thumb/interwork\libm.a(lib_a-s_nan.o)
 .comment       0x000004da       0x12 c:/espardino_tmp/bin/../lib/gcc/arm-elf/4.4.0/../../../../arm-elf/lib/thumb/interwork\libm.a(lib_a-s_rint.o)
 .comment       0x000004ec       0x12 c:/espardino_tmp/bin/../lib/gcc/arm-elf/4.4.0/../../../../arm-elf/lib/thumb/interwork\libg.a(lib_a-ctype_.o)
 .comment       0x000004fe       0x12 c:/espardino_tmp/bin/../lib/gcc/arm-elf/4.4.0/../../../../arm-elf/lib/thumb/interwork\libg.a(lib_a-errno.o)
 .comment       0x00000510       0x12 c:/espardino_tmp/bin/../lib/gcc/arm-elf/4.4.0/../../../../arm-elf/lib/thumb/interwork\libg.a(lib_a-impure.o)
 .comment       0x00000522       0x12 c:/espardino_tmp/bin/../lib/gcc/arm-elf/4.4.0/../../../../arm-elf/lib/thumb/interwork\libg.a(lib_a-locale.o)
 .comment       0x00000534       0x12 c:/espardino_tmp/bin/../lib/gcc/arm-elf/4.4.0/../../../../arm-elf/lib/thumb/interwork\libg.a(lib_a-malloc.o)
 .comment       0x00000546       0x12 c:/espardino_tmp/bin/../lib/gcc/arm-elf/4.4.0/../../../../arm-elf/lib/thumb/interwork\libg.a(lib_a-mallocr.o)
 .comment       0x00000558       0x12 c:/espardino_tmp/bin/../lib/gcc/arm-elf/4.4.0/../../../../arm-elf/lib/thumb/interwork\libg.a(lib_a-memcmp.o)
 .comment       0x0000056a       0x12 c:/espardino_tmp/bin/../lib/gcc/arm-elf/4.4.0/../../../../arm-elf/lib/thumb/interwork\libg.a(lib_a-memcpy.o)
 .comment       0x0000057c       0x12 c:/espardino_tmp/bin/../lib/gcc/arm-elf/4.4.0/../../../../arm-elf/lib/thumb/interwork\libg.a(lib_a-mlock.o)
 .comment       0x0000058e       0x12 c:/espardino_tmp/bin/../lib/gcc/arm-elf/4.4.0/../../../../arm-elf/lib/thumb/interwork\libg.a(lib_a-rand.o)
 .comment       0x000005a0       0x12 c:/espardino_tmp/bin/../lib/gcc/arm-elf/4.4.0/../../../../arm-elf/lib/thumb/interwork\libg.a(lib_a-realloc.o)
 .comment       0x000005b2       0x12 c:/espardino_tmp/bin/../lib/gcc/arm-elf/4.4.0/../../../../arm-elf/lib/thumb/interwork\libg.a(lib_a-reallocr.o)
 .comment       0x000005c4       0x12 c:/espardino_tmp/bin/../lib/gcc/arm-elf/4.4.0/../../../../arm-elf/lib/thumb/interwork\libg.a(lib_a-sbrkr.o)
 .comment       0x000005d6       0x12 c:/espardino_tmp/bin/../lib/gcc/arm-elf/4.4.0/../../../../arm-elf/lib/thumb/interwork\libg.a(lib_a-strcat.o)
 .comment       0x000005e8       0x12 c:/espardino_tmp/bin/../lib/gcc/arm-elf/4.4.0/../../../../arm-elf/lib/thumb/interwork\libg.a(lib_a-strchr.o)
 .comment       0x000005fa       0x12 c:/espardino_tmp/bin/../lib/gcc/arm-elf/4.4.0/../../../../arm-elf/lib/thumb/interwork\libg.a(lib_a-strcmp.o)
 .comment       0x0000060c       0x12 c:/espardino_tmp/bin/../lib/gcc/arm-elf/4.4.0/../../../../arm-elf/lib/thumb/interwork\libg.a(lib_a-strcoll.o)
 .comment       0x0000061e       0x12 c:/espardino_tmp/bin/../lib/gcc/arm-elf/4.4.0/../../../../arm-elf/lib/thumb/interwork\libg.a(lib_a-strcpy.o)
 .comment       0x00000630       0x12 c:/espardino_tmp/bin/../lib/gcc/arm-elf/4.4.0/../../../../arm-elf/lib/thumb/interwork\libg.a(lib_a-strcspn.o)
 .comment       0x00000642       0x12 c:/espardino_tmp/bin/../lib/gcc/arm-elf/4.4.0/../../../../arm-elf/lib/thumb/interwork\libg.a(lib_a-strlen.o)
 .comment       0x00000654       0x12 c:/espardino_tmp/bin/../lib/gcc/arm-elf/4.4.0/../../../../arm-elf/lib/thumb/interwork\libg.a(lib_a-strncat.o)
 .comment       0x00000666       0x12 c:/espardino_tmp/bin/../lib/gcc/arm-elf/4.4.0/../../../../arm-elf/lib/thumb/interwork\libg.a(lib_a-strncpy.o)
 .comment       0x00000678       0x12 c:/espardino_tmp/bin/../lib/gcc/arm-elf/4.4.0/../../../../arm-elf/lib/thumb/interwork\libg.a(lib_a-strstr.o)
 .comment       0x0000068a       0x12 c:/espardino_tmp/bin/../lib/gcc/arm-elf/4.4.0/../../../../arm-elf/lib/thumb/interwork\libg.a(lib_a-strtod.o)
 .comment       0x0000069c       0x12 c:/espardino_tmp/bin/../lib/gcc/arm-elf/4.4.0/../../../../arm-elf/lib/thumb/interwork\libg.a(lib_a-strtoul.o)
 .comment       0x000006ae       0x12 c:/espardino_tmp/bin/../lib/gcc/arm-elf/4.4.0/../../../../arm-elf/lib/thumb/interwork\libg.a(lib_a-syscalls.o)
 .comment       0x000006c0       0x12 c:/espardino_tmp/bin/../lib/gcc/arm-elf/4.4.0/../../../../arm-elf/lib/thumb/interwork\libg.a(lib_a-tmpfile.o)
 .comment       0x000006d2       0x12 c:/espardino_tmp/bin/../lib/gcc/arm-elf/4.4.0/../../../../arm-elf/lib/thumb/interwork\libg.a(lib_a-tmpnam.o)
 .comment       0x000006e4       0x12 c:/espardino_tmp/bin/../lib/gcc/arm-elf/4.4.0/../../../../arm-elf/lib/thumb/interwork\libg.a(lib_a-closer.o)
 .comment       0x000006f6       0x12 c:/espardino_tmp/bin/../lib/gcc/arm-elf/4.4.0/../../../../arm-elf/lib/thumb/interwork\libg.a(lib_a-fdopen.o)
 .comment       0x00000708       0x12 c:/espardino_tmp/bin/../lib/gcc/arm-elf/4.4.0/../../../../arm-elf/lib/thumb/interwork\libg.a(lib_a-findfp.o)
 .comment       0x0000071a       0x12 c:/espardino_tmp/bin/../lib/gcc/arm-elf/4.4.0/../../../../arm-elf/lib/thumb/interwork\libg.a(lib_a-flags.o)
 .comment       0x0000072c       0x12 c:/espardino_tmp/bin/../lib/gcc/arm-elf/4.4.0/../../../../arm-elf/lib/thumb/interwork\libg.a(lib_a-freer.o)
 .comment       0x0000073e       0x12 c:/espardino_tmp/bin/../lib/gcc/arm-elf/4.4.0/../../../../arm-elf/lib/thumb/interwork\libg.a(lib_a-fwalk.o)
 .comment       0x00000750       0x12 c:/espardino_tmp/bin/../lib/gcc/arm-elf/4.4.0/../../../../arm-elf/lib/thumb/interwork\libg.a(lib_a-gdtoa-gethex.o)
 .comment       0x00000762       0x12 c:/espardino_tmp/bin/../lib/gcc/arm-elf/4.4.0/../../../../arm-elf/lib/thumb/interwork\libg.a(lib_a-gdtoa-hexnan.o)
 .comment       0x00000774       0x12 c:/espardino_tmp/bin/../lib/gcc/arm-elf/4.4.0/../../../../arm-elf/lib/thumb/interwork\libg.a(lib_a-getenv.o)
 .comment       0x00000786       0x12 c:/espardino_tmp/bin/../lib/gcc/arm-elf/4.4.0/../../../../arm-elf/lib/thumb/interwork\libg.a(lib_a-getenv_r.o)
 .comment       0x00000798       0x12 c:/espardino_tmp/bin/../lib/gcc/arm-elf/4.4.0/../../../../arm-elf/lib/thumb/interwork\libg.a(lib_a-memchr.o)
 .comment       0x000007aa       0x12 c:/espardino_tmp/bin/../lib/gcc/arm-elf/4.4.0/../../../../arm-elf/lib/thumb/interwork\libg.a(lib_a-memmove.o)
 .comment       0x000007bc       0x12 c:/espardino_tmp/bin/../lib/gcc/arm-elf/4.4.0/../../../../arm-elf/lib/thumb/interwork\libg.a(lib_a-memset.o)
 .comment       0x000007ce       0x12 c:/espardino_tmp/bin/../lib/gcc/arm-elf/4.4.0/../../../../arm-elf/lib/thumb/interwork\libg.a(lib_a-mprec.o)
 .comment       0x000007e0       0x12 c:/espardino_tmp/bin/../lib/gcc/arm-elf/4.4.0/../../../../arm-elf/lib/thumb/interwork\libg.a(lib_a-openr.o)
 .comment       0x000007f2       0x12 c:/espardino_tmp/bin/../lib/gcc/arm-elf/4.4.0/../../../../arm-elf/lib/thumb/interwork\libg.a(lib_a-reent.o)
 .comment       0x00000804       0x12 c:/espardino_tmp/bin/../lib/gcc/arm-elf/4.4.0/../../../../arm-elf/lib/thumb/interwork\libg.a(lib_a-remove.o)
 .comment       0x00000816       0x12 c:/espardino_tmp/bin/../lib/gcc/arm-elf/4.4.0/../../../../arm-elf/lib/thumb/interwork\libg.a(lib_a-sf_nan.o)
 .comment       0x00000828       0x12 c:/espardino_tmp/bin/../lib/gcc/arm-elf/4.4.0/../../../../arm-elf/lib/thumb/interwork\libg.a(lib_a-signalr.o)
 .comment       0x0000083a       0x12 c:/espardino_tmp/bin/../lib/gcc/arm-elf/4.4.0/../../../../arm-elf/lib/thumb/interwork\libg.a(lib_a-sprintf.o)
 .comment       0x0000084c       0x12 c:/espardino_tmp/bin/../lib/gcc/arm-elf/4.4.0/../../../../arm-elf/lib/thumb/interwork\libg.a(lib_a-stdio.o)
 .comment       0x0000085e       0x12 c:/espardino_tmp/bin/../lib/gcc/arm-elf/4.4.0/../../../../arm-elf/lib/thumb/interwork\libg.a(lib_a-strncmp.o)
 .comment       0x00000870       0x12 c:/espardino_tmp/bin/../lib/gcc/arm-elf/4.4.0/../../../../arm-elf/lib/thumb/interwork\libg.a(lib_a-svfprintf.o)
 .comment       0x00000882       0x12 c:/espardino_tmp/bin/../lib/gcc/arm-elf/4.4.0/../../../../arm-elf/lib/thumb/interwork\libg.a(lib_a-unlinkr.o)
 .comment       0x00000894       0x12 c:/espardino_tmp/bin/../lib/gcc/arm-elf/4.4.0/../../../../arm-elf/lib/thumb/interwork\libg.a(lib_a-writer.o)
 .comment       0x000008a6       0x12 c:/espardino_tmp/bin/../lib/gcc/arm-elf/4.4.0/../../../../arm-elf/lib/thumb/interwork\libg.a(lib_a-callocr.o)
 .comment       0x000008b8       0x12 c:/espardino_tmp/bin/../lib/gcc/arm-elf/4.4.0/../../../../arm-elf/lib/thumb/interwork\libg.a(lib_a-dtoa.o)
 .comment       0x000008ca       0x12 c:/espardino_tmp/bin/../lib/gcc/arm-elf/4.4.0/../../../../arm-elf/lib/thumb/interwork\libg.a(lib_a-environ.o)
 .comment       0x000008dc       0x12 c:/espardino_tmp/bin/../lib/gcc/arm-elf/4.4.0/../../../../arm-elf/lib/thumb/interwork\libg.a(lib_a-envlock.o)
 .comment       0x000008ee       0x12 c:/espardino_tmp/bin/../lib/gcc/arm-elf/4.4.0/../../../../arm-elf/lib/thumb/interwork\libg.a(lib_a-fclose.o)
 .comment       0x00000900       0x12 c:/espardino_tmp/bin/../lib/gcc/arm-elf/4.4.0/../../../../arm-elf/lib/thumb/interwork\libg.a(lib_a-fflush.o)
 .comment       0x00000912       0x12 c:/espardino_tmp/bin/../lib/gcc/arm-elf/4.4.0/../../../../arm-elf/lib/thumb/interwork\libg.a(lib_a-lseekr.o)
 .comment       0x00000924       0x12 c:/espardino_tmp/bin/../lib/gcc/arm-elf/4.4.0/../../../../arm-elf/lib/thumb/interwork\libg.a(lib_a-readr.o)
 .comment       0x00000936       0x12 c:/espardino_tmp/bin/../lib/gcc/arm-elf/4.4.0/../../../../arm-elf/lib/thumb/interwork\libg.a(lib_a-s_isinfd.o)
 .comment       0x00000948       0x12 c:/espardino_tmp/bin/../lib/gcc/arm-elf/4.4.0/thumb/interwork\libgcc.a(_muldi3.o)

.debug
 *(.debug)

.line
 *(.line)

.debug_srcinfo
 *(.debug_srcinfo)

.debug_sfnames
 *(.debug_sfnames)

.debug_aranges  0x00000000      0xee0
 *(.debug_aranges)
 .debug_aranges
                0x00000000       0x20 startup.o
 .debug_aranges
                0x00000020       0x20 main.o
 .debug_aranges
                0x00000040       0x20 c:/espardino_tmp/bin/../lib/gcc/arm-elf/4.4.0/thumb/interwork\libgcc.a(_arm_addsubdf3.o)
 .debug_aranges
                0x00000060       0x20 c:/espardino_tmp/bin/../lib/gcc/arm-elf/4.4.0/../../../../arm-elf/lib/thumb/interwork\libm.a(lib_a-s_atan.o)
 .debug_aranges
                0x00000080       0x20 c:/espardino_tmp/bin/../lib/gcc/arm-elf/4.4.0/../../../../arm-elf/lib/thumb/interwork\libm.a(lib_a-s_ceil.o)
 .debug_aranges
                0x000000a0       0x20 c:/espardino_tmp/bin/../lib/gcc/arm-elf/4.4.0/../../../../arm-elf/lib/thumb/interwork\libm.a(lib_a-s_cos.o)
 .debug_aranges
                0x000000c0       0x20 c:/espardino_tmp/bin/../lib/gcc/arm-elf/4.4.0/../../../../arm-elf/lib/thumb/interwork\libm.a(lib_a-s_fabs.o)
 .debug_aranges
                0x000000e0       0x20 c:/espardino_tmp/bin/../lib/gcc/arm-elf/4.4.0/../../../../arm-elf/lib/thumb/interwork\libm.a(lib_a-s_floor.o)
 .debug_aranges
                0x00000100       0x20 c:/espardino_tmp/bin/../lib/gcc/arm-elf/4.4.0/../../../../arm-elf/lib/thumb/interwork\libm.a(lib_a-s_frexp.o)
 .debug_aranges
                0x00000120       0x20 c:/espardino_tmp/bin/../lib/gcc/arm-elf/4.4.0/../../../../arm-elf/lib/thumb/interwork\libm.a(lib_a-s_ldexp.o)
 .debug_aranges
                0x00000140       0x20 c:/espardino_tmp/bin/../lib/gcc/arm-elf/4.4.0/../../../../arm-elf/lib/thumb/interwork\libm.a(lib_a-s_modf.o)
 .debug_aranges
                0x00000160       0x20 c:/espardino_tmp/bin/../lib/gcc/arm-elf/4.4.0/../../../../arm-elf/lib/thumb/interwork\libm.a(lib_a-s_scalbn.o)
 .debug_aranges
                0x00000180       0x20 c:/espardino_tmp/bin/../lib/gcc/arm-elf/4.4.0/../../../../arm-elf/lib/thumb/interwork\libm.a(lib_a-s_sin.o)
 .debug_aranges
                0x000001a0       0x20 c:/espardino_tmp/bin/../lib/gcc/arm-elf/4.4.0/../../../../arm-elf/lib/thumb/interwork\libm.a(lib_a-s_tan.o)
 .debug_aranges
                0x000001c0       0x20 c:/espardino_tmp/bin/../lib/gcc/arm-elf/4.4.0/../../../../arm-elf/lib/thumb/interwork\libm.a(lib_a-s_tanh.o)
 .debug_aranges
                0x000001e0       0x20 c:/espardino_tmp/bin/../lib/gcc/arm-elf/4.4.0/../../../../arm-elf/lib/thumb/interwork\libm.a(lib_a-w_acos.o)
 .debug_aranges
                0x00000200       0x20 c:/espardino_tmp/bin/../lib/gcc/arm-elf/4.4.0/../../../../arm-elf/lib/thumb/interwork\libm.a(lib_a-w_asin.o)
 .debug_aranges
                0x00000220       0x20 c:/espardino_tmp/bin/../lib/gcc/arm-elf/4.4.0/../../../../arm-elf/lib/thumb/interwork\libm.a(lib_a-w_atan2.o)
 .debug_aranges
                0x00000240       0x20 c:/espardino_tmp/bin/../lib/gcc/arm-elf/4.4.0/../../../../arm-elf/lib/thumb/interwork\libm.a(lib_a-w_cosh.o)
 .debug_aranges
                0x00000260       0x20 c:/espardino_tmp/bin/../lib/gcc/arm-elf/4.4.0/../../../../arm-elf/lib/thumb/interwork\libm.a(lib_a-w_exp.o)
 .debug_aranges
                0x00000280       0x20 c:/espardino_tmp/bin/../lib/gcc/arm-elf/4.4.0/../../../../arm-elf/lib/thumb/interwork\libm.a(lib_a-w_fmod.o)
 .debug_aranges
                0x000002a0       0x20 c:/espardino_tmp/bin/../lib/gcc/arm-elf/4.4.0/../../../../arm-elf/lib/thumb/interwork\libm.a(lib_a-w_log.o)
 .debug_aranges
                0x000002c0       0x20 c:/espardino_tmp/bin/../lib/gcc/arm-elf/4.4.0/../../../../arm-elf/lib/thumb/interwork\libm.a(lib_a-w_log10.o)
 .debug_aranges
                0x000002e0       0x20 c:/espardino_tmp/bin/../lib/gcc/arm-elf/4.4.0/../../../../arm-elf/lib/thumb/interwork\libm.a(lib_a-w_pow.o)
 .debug_aranges
                0x00000300       0x20 c:/espardino_tmp/bin/../lib/gcc/arm-elf/4.4.0/../../../../arm-elf/lib/thumb/interwork\libm.a(lib_a-w_sinh.o)
 .debug_aranges
                0x00000320       0x20 c:/espardino_tmp/bin/../lib/gcc/arm-elf/4.4.0/../../../../arm-elf/lib/thumb/interwork\libm.a(lib_a-w_sqrt.o)
 .debug_aranges
                0x00000340       0x20 c:/espardino_tmp/bin/../lib/gcc/arm-elf/4.4.0/../../../../arm-elf/lib/thumb/interwork\libm.a(lib_a-e_acos.o)
 .debug_aranges
                0x00000360       0x20 c:/espardino_tmp/bin/../lib/gcc/arm-elf/4.4.0/../../../../arm-elf/lib/thumb/interwork\libm.a(lib_a-e_asin.o)
 .debug_aranges
                0x00000380       0x20 c:/espardino_tmp/bin/../lib/gcc/arm-elf/4.4.0/../../../../arm-elf/lib/thumb/interwork\libm.a(lib_a-e_atan2.o)
 .debug_aranges
                0x000003a0       0x20 c:/espardino_tmp/bin/../lib/gcc/arm-elf/4.4.0/../../../../arm-elf/lib/thumb/interwork\libm.a(lib_a-e_cosh.o)
 .debug_aranges
                0x000003c0       0x20 c:/espardino_tmp/bin/../lib/gcc/arm-elf/4.4.0/../../../../arm-elf/lib/thumb/interwork\libm.a(lib_a-e_exp.o)
 .debug_aranges
                0x000003e0       0x20 c:/espardino_tmp/bin/../lib/gcc/arm-elf/4.4.0/../../../../arm-elf/lib/thumb/interwork\libm.a(lib_a-e_fmod.o)
 .debug_aranges
                0x00000400       0x20 c:/espardino_tmp/bin/../lib/gcc/arm-elf/4.4.0/../../../../arm-elf/lib/thumb/interwork\libm.a(lib_a-e_log.o)
 .debug_aranges
                0x00000420       0x20 c:/espardino_tmp/bin/../lib/gcc/arm-elf/4.4.0/../../../../arm-elf/lib/thumb/interwork\libm.a(lib_a-e_log10.o)
 .debug_aranges
                0x00000440       0x20 c:/espardino_tmp/bin/../lib/gcc/arm-elf/4.4.0/../../../../arm-elf/lib/thumb/interwork\libm.a(lib_a-e_pow.o)
 .debug_aranges
                0x00000460       0x20 c:/espardino_tmp/bin/../lib/gcc/arm-elf/4.4.0/../../../../arm-elf/lib/thumb/interwork\libm.a(lib_a-e_rem_pio2.o)
 .debug_aranges
                0x00000480       0x20 c:/espardino_tmp/bin/../lib/gcc/arm-elf/4.4.0/../../../../arm-elf/lib/thumb/interwork\libm.a(lib_a-e_sinh.o)
 .debug_aranges
                0x000004a0       0x20 c:/espardino_tmp/bin/../lib/gcc/arm-elf/4.4.0/../../../../arm-elf/lib/thumb/interwork\libm.a(lib_a-e_sqrt.o)
 .debug_aranges
                0x000004c0       0x20 c:/espardino_tmp/bin/../lib/gcc/arm-elf/4.4.0/../../../../arm-elf/lib/thumb/interwork\libm.a(lib_a-k_cos.o)
 .debug_aranges
                0x000004e0       0x20 c:/espardino_tmp/bin/../lib/gcc/arm-elf/4.4.0/../../../../arm-elf/lib/thumb/interwork\libm.a(lib_a-k_rem_pio2.o)
 .debug_aranges
                0x00000500       0x20 c:/espardino_tmp/bin/../lib/gcc/arm-elf/4.4.0/../../../../arm-elf/lib/thumb/interwork\libm.a(lib_a-k_sin.o)
 .debug_aranges
                0x00000520       0x20 c:/espardino_tmp/bin/../lib/gcc/arm-elf/4.4.0/../../../../arm-elf/lib/thumb/interwork\libm.a(lib_a-k_tan.o)
 .debug_aranges
                0x00000540       0x20 c:/espardino_tmp/bin/../lib/gcc/arm-elf/4.4.0/../../../../arm-elf/lib/thumb/interwork\libm.a(lib_a-s_copysign.o)
 .debug_aranges
                0x00000560       0x20 c:/espardino_tmp/bin/../lib/gcc/arm-elf/4.4.0/../../../../arm-elf/lib/thumb/interwork\libm.a(lib_a-s_expm1.o)
 .debug_aranges
                0x00000580       0x20 c:/espardino_tmp/bin/../lib/gcc/arm-elf/4.4.0/../../../../arm-elf/lib/thumb/interwork\libm.a(lib_a-s_finite.o)
 .debug_aranges
                0x000005a0       0x20 c:/espardino_tmp/bin/../lib/gcc/arm-elf/4.4.0/../../../../arm-elf/lib/thumb/interwork\libm.a(lib_a-s_isnand.o)
 .debug_aranges
                0x000005c0       0x20 c:/espardino_tmp/bin/../lib/gcc/arm-elf/4.4.0/../../../../arm-elf/lib/thumb/interwork\libm.a(lib_a-s_matherr.o)
 .debug_aranges
                0x000005e0       0x20 c:/espardino_tmp/bin/../lib/gcc/arm-elf/4.4.0/../../../../arm-elf/lib/thumb/interwork\libm.a(lib_a-s_nan.o)
 .debug_aranges
                0x00000600       0x20 c:/espardino_tmp/bin/../lib/gcc/arm-elf/4.4.0/../../../../arm-elf/lib/thumb/interwork\libm.a(lib_a-s_rint.o)
 .debug_aranges
                0x00000620       0x20 c:/espardino_tmp/bin/../lib/gcc/arm-elf/4.4.0/thumb/interwork\libgcc.a(_udivsi3.o)
 .debug_aranges
                0x00000640       0x20 c:/espardino_tmp/bin/../lib/gcc/arm-elf/4.4.0/thumb/interwork\libgcc.a(_divsi3.o)
 .debug_aranges
                0x00000660       0x20 c:/espardino_tmp/bin/../lib/gcc/arm-elf/4.4.0/thumb/interwork\libgcc.a(_umodsi3.o)
 .debug_aranges
                0x00000680       0x20 c:/espardino_tmp/bin/../lib/gcc/arm-elf/4.4.0/thumb/interwork\libgcc.a(_modsi3.o)
 .debug_aranges
                0x000006a0       0x20 c:/espardino_tmp/bin/../lib/gcc/arm-elf/4.4.0/thumb/interwork\libgcc.a(_dvmd_tls.o)
 .debug_aranges
                0x000006c0       0x20 c:/espardino_tmp/bin/../lib/gcc/arm-elf/4.4.0/thumb/interwork\libgcc.a(_arm_muldivdf3.o)
 .debug_aranges
                0x000006e0       0x20 c:/espardino_tmp/bin/../lib/gcc/arm-elf/4.4.0/thumb/interwork\libgcc.a(_arm_cmpdf2.o)
 .debug_aranges
                0x00000700       0x20 c:/espardino_tmp/bin/../lib/gcc/arm-elf/4.4.0/thumb/interwork\libgcc.a(_arm_fixdfsi.o)
 .debug_aranges
                0x00000720       0x20 c:/espardino_tmp/bin/../lib/gcc/arm-elf/4.4.0/thumb/interwork\libgcc.a(_arm_fixunsdfsi.o)
 .debug_aranges
                0x00000740       0x20 c:/espardino_tmp/bin/../lib/gcc/arm-elf/4.4.0/../../../../arm-elf/lib/thumb/interwork\libg.a(lib_a-errno.o)
 .debug_aranges
                0x00000760       0x20 c:/espardino_tmp/bin/../lib/gcc/arm-elf/4.4.0/../../../../arm-elf/lib/thumb/interwork\libg.a(lib_a-locale.o)
 .debug_aranges
                0x00000780       0x20 c:/espardino_tmp/bin/../lib/gcc/arm-elf/4.4.0/../../../../arm-elf/lib/thumb/interwork\libg.a(lib_a-malloc.o)
 .debug_aranges
                0x000007a0       0x20 c:/espardino_tmp/bin/../lib/gcc/arm-elf/4.4.0/../../../../arm-elf/lib/thumb/interwork\libg.a(lib_a-mallocr.o)
 .debug_aranges
                0x000007c0       0x20 c:/espardino_tmp/bin/../lib/gcc/arm-elf/4.4.0/../../../../arm-elf/lib/thumb/interwork\libg.a(lib_a-memcmp.o)
 .debug_aranges
                0x000007e0       0x20 c:/espardino_tmp/bin/../lib/gcc/arm-elf/4.4.0/../../../../arm-elf/lib/thumb/interwork\libg.a(lib_a-memcpy.o)
 .debug_aranges
                0x00000800       0x20 c:/espardino_tmp/bin/../lib/gcc/arm-elf/4.4.0/../../../../arm-elf/lib/thumb/interwork\libg.a(lib_a-mlock.o)
 .debug_aranges
                0x00000820       0x20 c:/espardino_tmp/bin/../lib/gcc/arm-elf/4.4.0/../../../../arm-elf/lib/thumb/interwork\libg.a(lib_a-rand.o)
 .debug_aranges
                0x00000840       0x20 c:/espardino_tmp/bin/../lib/gcc/arm-elf/4.4.0/../../../../arm-elf/lib/thumb/interwork\libg.a(lib_a-realloc.o)
 .debug_aranges
                0x00000860       0x20 c:/espardino_tmp/bin/../lib/gcc/arm-elf/4.4.0/../../../../arm-elf/lib/thumb/interwork\libg.a(lib_a-reallocr.o)
 .debug_aranges
                0x00000880       0x20 c:/espardino_tmp/bin/../lib/gcc/arm-elf/4.4.0/../../../../arm-elf/lib/thumb/interwork\libg.a(lib_a-sbrkr.o)
 .debug_aranges
                0x000008a0       0x20 c:/espardino_tmp/bin/../lib/gcc/arm-elf/4.4.0/../../../../arm-elf/lib/thumb/interwork\libg.a(lib_a-strcat.o)
 .debug_aranges
                0x000008c0       0x20 c:/espardino_tmp/bin/../lib/gcc/arm-elf/4.4.0/../../../../arm-elf/lib/thumb/interwork\libg.a(lib_a-strchr.o)
 .debug_aranges
                0x000008e0       0x20 c:/espardino_tmp/bin/../lib/gcc/arm-elf/4.4.0/../../../../arm-elf/lib/thumb/interwork\libg.a(lib_a-strcmp.o)
 .debug_aranges
                0x00000900       0x20 c:/espardino_tmp/bin/../lib/gcc/arm-elf/4.4.0/../../../../arm-elf/lib/thumb/interwork\libg.a(lib_a-strcoll.o)
 .debug_aranges
                0x00000920       0x20 c:/espardino_tmp/bin/../lib/gcc/arm-elf/4.4.0/../../../../arm-elf/lib/thumb/interwork\libg.a(lib_a-strcpy.o)
 .debug_aranges
                0x00000940       0x20 c:/espardino_tmp/bin/../lib/gcc/arm-elf/4.4.0/../../../../arm-elf/lib/thumb/interwork\libg.a(lib_a-strcspn.o)
 .debug_aranges
                0x00000960       0x20 c:/espardino_tmp/bin/../lib/gcc/arm-elf/4.4.0/../../../../arm-elf/lib/thumb/interwork\libg.a(lib_a-strlen.o)
 .debug_aranges
                0x00000980       0x20 c:/espardino_tmp/bin/../lib/gcc/arm-elf/4.4.0/../../../../arm-elf/lib/thumb/interwork\libg.a(lib_a-strncat.o)
 .debug_aranges
                0x000009a0       0x20 c:/espardino_tmp/bin/../lib/gcc/arm-elf/4.4.0/../../../../arm-elf/lib/thumb/interwork\libg.a(lib_a-strncpy.o)
 .debug_aranges
                0x000009c0       0x20 c:/espardino_tmp/bin/../lib/gcc/arm-elf/4.4.0/../../../../arm-elf/lib/thumb/interwork\libg.a(lib_a-strstr.o)
 .debug_aranges
                0x000009e0       0x20 c:/espardino_tmp/bin/../lib/gcc/arm-elf/4.4.0/../../../../arm-elf/lib/thumb/interwork\libg.a(lib_a-strtod.o)
 .debug_aranges
                0x00000a00       0x20 c:/espardino_tmp/bin/../lib/gcc/arm-elf/4.4.0/../../../../arm-elf/lib/thumb/interwork\libg.a(lib_a-strtoul.o)
 .debug_aranges
                0x00000a20       0x20 c:/espardino_tmp/bin/../lib/gcc/arm-elf/4.4.0/../../../../arm-elf/lib/thumb/interwork\libg.a(lib_a-syscalls.o)
 .debug_aranges
                0x00000a40       0x20 c:/espardino_tmp/bin/../lib/gcc/arm-elf/4.4.0/../../../../arm-elf/lib/thumb/interwork\libg.a(lib_a-tmpfile.o)
 .debug_aranges
                0x00000a60       0x20 c:/espardino_tmp/bin/../lib/gcc/arm-elf/4.4.0/../../../../arm-elf/lib/thumb/interwork\libg.a(lib_a-tmpnam.o)
 .debug_aranges
                0x00000a80       0x20 c:/espardino_tmp/bin/../lib/gcc/arm-elf/4.4.0/../../../../arm-elf/lib/thumb/interwork\libg.a(lib_a-closer.o)
 .debug_aranges
                0x00000aa0       0x20 c:/espardino_tmp/bin/../lib/gcc/arm-elf/4.4.0/../../../../arm-elf/lib/thumb/interwork\libg.a(lib_a-fdopen.o)
 .debug_aranges
                0x00000ac0       0x20 c:/espardino_tmp/bin/../lib/gcc/arm-elf/4.4.0/../../../../arm-elf/lib/thumb/interwork\libg.a(lib_a-findfp.o)
 .debug_aranges
                0x00000ae0       0x20 c:/espardino_tmp/bin/../lib/gcc/arm-elf/4.4.0/../../../../arm-elf/lib/thumb/interwork\libg.a(lib_a-flags.o)
 .debug_aranges
                0x00000b00       0x20 c:/espardino_tmp/bin/../lib/gcc/arm-elf/4.4.0/../../../../arm-elf/lib/thumb/interwork\libg.a(lib_a-freer.o)
 .debug_aranges
                0x00000b20       0x20 c:/espardino_tmp/bin/../lib/gcc/arm-elf/4.4.0/../../../../arm-elf/lib/thumb/interwork\libg.a(lib_a-fwalk.o)
 .debug_aranges
                0x00000b40       0x20 c:/espardino_tmp/bin/../lib/gcc/arm-elf/4.4.0/../../../../arm-elf/lib/thumb/interwork\libg.a(lib_a-gdtoa-gethex.o)
 .debug_aranges
                0x00000b60       0x20 c:/espardino_tmp/bin/../lib/gcc/arm-elf/4.4.0/../../../../arm-elf/lib/thumb/interwork\libg.a(lib_a-gdtoa-hexnan.o)
 .debug_aranges
                0x00000b80       0x20 c:/espardino_tmp/bin/../lib/gcc/arm-elf/4.4.0/../../../../arm-elf/lib/thumb/interwork\libg.a(lib_a-getenv.o)
 .debug_aranges
                0x00000ba0       0x20 c:/espardino_tmp/bin/../lib/gcc/arm-elf/4.4.0/../../../../arm-elf/lib/thumb/interwork\libg.a(lib_a-getenv_r.o)
 .debug_aranges
                0x00000bc0       0x20 c:/espardino_tmp/bin/../lib/gcc/arm-elf/4.4.0/../../../../arm-elf/lib/thumb/interwork\libg.a(lib_a-memchr.o)
 .debug_aranges
                0x00000be0       0x20 c:/espardino_tmp/bin/../lib/gcc/arm-elf/4.4.0/../../../../arm-elf/lib/thumb/interwork\libg.a(lib_a-memmove.o)
 .debug_aranges
                0x00000c00       0x20 c:/espardino_tmp/bin/../lib/gcc/arm-elf/4.4.0/../../../../arm-elf/lib/thumb/interwork\libg.a(lib_a-memset.o)
 .debug_aranges
                0x00000c20       0x20 c:/espardino_tmp/bin/../lib/gcc/arm-elf/4.4.0/../../../../arm-elf/lib/thumb/interwork\libg.a(lib_a-mprec.o)
 .debug_aranges
                0x00000c40       0x20 c:/espardino_tmp/bin/../lib/gcc/arm-elf/4.4.0/../../../../arm-elf/lib/thumb/interwork\libg.a(lib_a-openr.o)
 .debug_aranges
                0x00000c60       0x20 c:/espardino_tmp/bin/../lib/gcc/arm-elf/4.4.0/../../../../arm-elf/lib/thumb/interwork\libg.a(lib_a-reent.o)
 .debug_aranges
                0x00000c80       0x20 c:/espardino_tmp/bin/../lib/gcc/arm-elf/4.4.0/../../../../arm-elf/lib/thumb/interwork\libg.a(lib_a-remove.o)
 .debug_aranges
                0x00000ca0       0x20 c:/espardino_tmp/bin/../lib/gcc/arm-elf/4.4.0/../../../../arm-elf/lib/thumb/interwork\libg.a(lib_a-sf_nan.o)
 .debug_aranges
                0x00000cc0       0x20 c:/espardino_tmp/bin/../lib/gcc/arm-elf/4.4.0/../../../../arm-elf/lib/thumb/interwork\libg.a(lib_a-signalr.o)
 .debug_aranges
                0x00000ce0       0x20 c:/espardino_tmp/bin/../lib/gcc/arm-elf/4.4.0/../../../../arm-elf/lib/thumb/interwork\libg.a(lib_a-sprintf.o)
 .debug_aranges
                0x00000d00       0x20 c:/espardino_tmp/bin/../lib/gcc/arm-elf/4.4.0/../../../../arm-elf/lib/thumb/interwork\libg.a(lib_a-stdio.o)
 .debug_aranges
                0x00000d20       0x20 c:/espardino_tmp/bin/../lib/gcc/arm-elf/4.4.0/../../../../arm-elf/lib/thumb/interwork\libg.a(lib_a-strncmp.o)
 .debug_aranges
                0x00000d40       0x20 c:/espardino_tmp/bin/../lib/gcc/arm-elf/4.4.0/../../../../arm-elf/lib/thumb/interwork\libg.a(lib_a-svfprintf.o)
 .debug_aranges
                0x00000d60       0x20 c:/espardino_tmp/bin/../lib/gcc/arm-elf/4.4.0/../../../../arm-elf/lib/thumb/interwork\libg.a(lib_a-unlinkr.o)
 .debug_aranges
                0x00000d80       0x20 c:/espardino_tmp/bin/../lib/gcc/arm-elf/4.4.0/../../../../arm-elf/lib/thumb/interwork\libg.a(lib_a-writer.o)
 .debug_aranges
                0x00000da0       0x20 c:/espardino_tmp/bin/../lib/gcc/arm-elf/4.4.0/../../../../arm-elf/lib/thumb/interwork\libg.a(lib_a-callocr.o)
 .debug_aranges
                0x00000dc0       0x20 c:/espardino_tmp/bin/../lib/gcc/arm-elf/4.4.0/../../../../arm-elf/lib/thumb/interwork\libg.a(lib_a-dtoa.o)
 .debug_aranges
                0x00000de0       0x20 c:/espardino_tmp/bin/../lib/gcc/arm-elf/4.4.0/../../../../arm-elf/lib/thumb/interwork\libg.a(lib_a-envlock.o)
 .debug_aranges
                0x00000e00       0x20 c:/espardino_tmp/bin/../lib/gcc/arm-elf/4.4.0/../../../../arm-elf/lib/thumb/interwork\libg.a(lib_a-fclose.o)
 .debug_aranges
                0x00000e20       0x20 c:/espardino_tmp/bin/../lib/gcc/arm-elf/4.4.0/../../../../arm-elf/lib/thumb/interwork\libg.a(lib_a-fflush.o)
 .debug_aranges
                0x00000e40       0x20 c:/espardino_tmp/bin/../lib/gcc/arm-elf/4.4.0/../../../../arm-elf/lib/thumb/interwork\libg.a(lib_a-lseekr.o)
 .debug_aranges
                0x00000e60       0x20 c:/espardino_tmp/bin/../lib/gcc/arm-elf/4.4.0/../../../../arm-elf/lib/thumb/interwork\libg.a(lib_a-readr.o)
 .debug_aranges
                0x00000e80       0x20 c:/espardino_tmp/bin/../lib/gcc/arm-elf/4.4.0/../../../../arm-elf/lib/thumb/interwork\libg.a(lib_a-s_isinfd.o)
 .debug_aranges
                0x00000ea0       0x20 c:/espardino_tmp/bin/../lib/gcc/arm-elf/4.4.0/thumb/interwork\libgcc.a(_arm_truncdfsf2.o)
 .debug_aranges
                0x00000ec0       0x20 c:/espardino_tmp/bin/../lib/gcc/arm-elf/4.4.0/thumb/interwork\libgcc.a(_muldi3.o)

.debug_pubnames
                0x00000000     0x13b9
 *(.debug_pubnames)
 .debug_pubnames
                0x00000000       0x57 main.o
 .debug_pubnames
                0x00000057       0x1b c:/espardino_tmp/bin/../lib/gcc/arm-elf/4.4.0/../../../../arm-elf/lib/thumb/interwork\libm.a(lib_a-s_atan.o)
 .debug_pubnames
                0x00000072       0x1b c:/espardino_tmp/bin/../lib/gcc/arm-elf/4.4.0/../../../../arm-elf/lib/thumb/interwork\libm.a(lib_a-s_ceil.o)
 .debug_pubnames
                0x0000008d       0x1a c:/espardino_tmp/bin/../lib/gcc/arm-elf/4.4.0/../../../../arm-elf/lib/thumb/interwork\libm.a(lib_a-s_cos.o)
 .debug_pubnames
                0x000000a7       0x1b c:/espardino_tmp/bin/../lib/gcc/arm-elf/4.4.0/../../../../arm-elf/lib/thumb/interwork\libm.a(lib_a-s_fabs.o)
 .debug_pubnames
                0x000000c2       0x1c c:/espardino_tmp/bin/../lib/gcc/arm-elf/4.4.0/../../../../arm-elf/lib/thumb/interwork\libm.a(lib_a-s_floor.o)
 .debug_pubnames
                0x000000de       0x1c c:/espardino_tmp/bin/../lib/gcc/arm-elf/4.4.0/../../../../arm-elf/lib/thumb/interwork\libm.a(lib_a-s_frexp.o)
 .debug_pubnames
                0x000000fa       0x1c c:/espardino_tmp/bin/../lib/gcc/arm-elf/4.4.0/../../../../arm-elf/lib/thumb/interwork\libm.a(lib_a-s_ldexp.o)
 .debug_pubnames
                0x00000116       0x1b c:/espardino_tmp/bin/../lib/gcc/arm-elf/4.4.0/../../../../arm-elf/lib/thumb/interwork\libm.a(lib_a-s_modf.o)
 .debug_pubnames
                0x00000131       0x1d c:/espardino_tmp/bin/../lib/gcc/arm-elf/4.4.0/../../../../arm-elf/lib/thumb/interwork\libm.a(lib_a-s_scalbn.o)
 .debug_pubnames
                0x0000014e       0x1a c:/espardino_tmp/bin/../lib/gcc/arm-elf/4.4.0/../../../../arm-elf/lib/thumb/interwork\libm.a(lib_a-s_sin.o)
 .debug_pubnames
                0x00000168       0x1a c:/espardino_tmp/bin/../lib/gcc/arm-elf/4.4.0/../../../../arm-elf/lib/thumb/interwork\libm.a(lib_a-s_tan.o)
 .debug_pubnames
                0x00000182       0x1b c:/espardino_tmp/bin/../lib/gcc/arm-elf/4.4.0/../../../../arm-elf/lib/thumb/interwork\libm.a(lib_a-s_tanh.o)
 .debug_pubnames
                0x0000019d       0x1b c:/espardino_tmp/bin/../lib/gcc/arm-elf/4.4.0/../../../../arm-elf/lib/thumb/interwork\libm.a(lib_a-w_acos.o)
 .debug_pubnames
                0x000001b8       0x1b c:/espardino_tmp/bin/../lib/gcc/arm-elf/4.4.0/../../../../arm-elf/lib/thumb/interwork\libm.a(lib_a-w_asin.o)
 .debug_pubnames
                0x000001d3       0x1c c:/espardino_tmp/bin/../lib/gcc/arm-elf/4.4.0/../../../../arm-elf/lib/thumb/interwork\libm.a(lib_a-w_atan2.o)
 .debug_pubnames
                0x000001ef       0x1b c:/espardino_tmp/bin/../lib/gcc/arm-elf/4.4.0/../../../../arm-elf/lib/thumb/interwork\libm.a(lib_a-w_cosh.o)
 .debug_pubnames
                0x0000020a       0x1a c:/espardino_tmp/bin/../lib/gcc/arm-elf/4.4.0/../../../../arm-elf/lib/thumb/interwork\libm.a(lib_a-w_exp.o)
 .debug_pubnames
                0x00000224       0x1b c:/espardino_tmp/bin/../lib/gcc/arm-elf/4.4.0/../../../../arm-elf/lib/thumb/interwork\libm.a(lib_a-w_fmod.o)
 .debug_pubnames
                0x0000023f       0x1a c:/espardino_tmp/bin/../lib/gcc/arm-elf/4.4.0/../../../../arm-elf/lib/thumb/interwork\libm.a(lib_a-w_log.o)
 .debug_pubnames
                0x00000259       0x1c c:/espardino_tmp/bin/../lib/gcc/arm-elf/4.4.0/../../../../arm-elf/lib/thumb/interwork\libm.a(lib_a-w_log10.o)
 .debug_pubnames
                0x00000275       0x1a c:/espardino_tmp/bin/../lib/gcc/arm-elf/4.4.0/../../../../arm-elf/lib/thumb/interwork\libm.a(lib_a-w_pow.o)
 .debug_pubnames
                0x0000028f       0x1b c:/espardino_tmp/bin/../lib/gcc/arm-elf/4.4.0/../../../../arm-elf/lib/thumb/interwork\libm.a(lib_a-w_sinh.o)
 .debug_pubnames
                0x000002aa       0x1b c:/espardino_tmp/bin/../lib/gcc/arm-elf/4.4.0/../../../../arm-elf/lib/thumb/interwork\libm.a(lib_a-w_sqrt.o)
 .debug_pubnames
                0x000002c5       0x25 c:/espardino_tmp/bin/../lib/gcc/arm-elf/4.4.0/../../../../arm-elf/lib/thumb/interwork\libm.a(lib_a-e_acos.o)
 .debug_pubnames
                0x000002ea       0x25 c:/espardino_tmp/bin/../lib/gcc/arm-elf/4.4.0/../../../../arm-elf/lib/thumb/interwork\libm.a(lib_a-e_asin.o)
 .debug_pubnames
                0x0000030f       0x26 c:/espardino_tmp/bin/../lib/gcc/arm-elf/4.4.0/../../../../arm-elf/lib/thumb/interwork\libm.a(lib_a-e_atan2.o)
 .debug_pubnames
                0x00000335       0x25 c:/espardino_tmp/bin/../lib/gcc/arm-elf/4.4.0/../../../../arm-elf/lib/thumb/interwork\libm.a(lib_a-e_cosh.o)
 .debug_pubnames
                0x0000035a       0x24 c:/espardino_tmp/bin/../lib/gcc/arm-elf/4.4.0/../../../../arm-elf/lib/thumb/interwork\libm.a(lib_a-e_exp.o)
 .debug_pubnames
                0x0000037e       0x25 c:/espardino_tmp/bin/../lib/gcc/arm-elf/4.4.0/../../../../arm-elf/lib/thumb/interwork\libm.a(lib_a-e_fmod.o)
 .debug_pubnames
                0x000003a3       0x24 c:/espardino_tmp/bin/../lib/gcc/arm-elf/4.4.0/../../../../arm-elf/lib/thumb/interwork\libm.a(lib_a-e_log.o)
 .debug_pubnames
                0x000003c7       0x26 c:/espardino_tmp/bin/../lib/gcc/arm-elf/4.4.0/../../../../arm-elf/lib/thumb/interwork\libm.a(lib_a-e_log10.o)
 .debug_pubnames
                0x000003ed       0x24 c:/espardino_tmp/bin/../lib/gcc/arm-elf/4.4.0/../../../../arm-elf/lib/thumb/interwork\libm.a(lib_a-e_pow.o)
 .debug_pubnames
                0x00000411       0x29 c:/espardino_tmp/bin/../lib/gcc/arm-elf/4.4.0/../../../../arm-elf/lib/thumb/interwork\libm.a(lib_a-e_rem_pio2.o)
 .debug_pubnames
                0x0000043a       0x25 c:/espardino_tmp/bin/../lib/gcc/arm-elf/4.4.0/../../../../arm-elf/lib/thumb/interwork\libm.a(lib_a-e_sinh.o)
 .debug_pubnames
                0x0000045f       0x25 c:/espardino_tmp/bin/../lib/gcc/arm-elf/4.4.0/../../../../arm-elf/lib/thumb/interwork\libm.a(lib_a-e_sqrt.o)
 .debug_pubnames
                0x00000484       0x23 c:/espardino_tmp/bin/../lib/gcc/arm-elf/4.4.0/../../../../arm-elf/lib/thumb/interwork\libm.a(lib_a-k_cos.o)
 .debug_pubnames
                0x000004a7       0x28 c:/espardino_tmp/bin/../lib/gcc/arm-elf/4.4.0/../../../../arm-elf/lib/thumb/interwork\libm.a(lib_a-k_rem_pio2.o)
 .debug_pubnames
                0x000004cf       0x23 c:/espardino_tmp/bin/../lib/gcc/arm-elf/4.4.0/../../../../arm-elf/lib/thumb/interwork\libm.a(lib_a-k_sin.o)
 .debug_pubnames
                0x000004f2       0x23 c:/espardino_tmp/bin/../lib/gcc/arm-elf/4.4.0/../../../../arm-elf/lib/thumb/interwork\libm.a(lib_a-k_tan.o)
 .debug_pubnames
                0x00000515       0x1f c:/espardino_tmp/bin/../lib/gcc/arm-elf/4.4.0/../../../../arm-elf/lib/thumb/interwork\libm.a(lib_a-s_copysign.o)
 .debug_pubnames
                0x00000534       0x1c c:/espardino_tmp/bin/../lib/gcc/arm-elf/4.4.0/../../../../arm-elf/lib/thumb/interwork\libm.a(lib_a-s_expm1.o)
 .debug_pubnames
                0x00000550       0x1d c:/espardino_tmp/bin/../lib/gcc/arm-elf/4.4.0/../../../../arm-elf/lib/thumb/interwork\libm.a(lib_a-s_finite.o)
 .debug_pubnames
                0x0000056d       0x1f c:/espardino_tmp/bin/../lib/gcc/arm-elf/4.4.0/../../../../arm-elf/lib/thumb/interwork\libm.a(lib_a-s_isnand.o)
 .debug_pubnames
                0x0000058c       0x26 c:/espardino_tmp/bin/../lib/gcc/arm-elf/4.4.0/../../../../arm-elf/lib/thumb/interwork\libm.a(lib_a-s_lib_ver.o)
 .debug_pubnames
                0x000005b2       0x1e c:/espardino_tmp/bin/../lib/gcc/arm-elf/4.4.0/../../../../arm-elf/lib/thumb/interwork\libm.a(lib_a-s_matherr.o)
 .debug_pubnames
                0x000005d0       0x1a c:/espardino_tmp/bin/../lib/gcc/arm-elf/4.4.0/../../../../arm-elf/lib/thumb/interwork\libm.a(lib_a-s_nan.o)
 .debug_pubnames
                0x000005ea       0x1b c:/espardino_tmp/bin/../lib/gcc/arm-elf/4.4.0/../../../../arm-elf/lib/thumb/interwork\libm.a(lib_a-s_rint.o)
 .debug_pubnames
                0x00000605       0x40 c:/espardino_tmp/bin/../lib/gcc/arm-elf/4.4.0/../../../../arm-elf/lib/thumb/interwork\libg.a(lib_a-ctype_.o)
 .debug_pubnames
                0x00000645       0x1e c:/espardino_tmp/bin/../lib/gcc/arm-elf/4.4.0/../../../../arm-elf/lib/thumb/interwork\libg.a(lib_a-errno.o)
 .debug_pubnames
                0x00000663       0x39 c:/espardino_tmp/bin/../lib/gcc/arm-elf/4.4.0/../../../../arm-elf/lib/thumb/interwork\libg.a(lib_a-impure.o)
 .debug_pubnames
                0x0000069c       0xc3 c:/espardino_tmp/bin/../lib/gcc/arm-elf/4.4.0/../../../../arm-elf/lib/thumb/interwork\libg.a(lib_a-locale.o)
 .debug_pubnames
                0x0000075f       0x26 c:/espardino_tmp/bin/../lib/gcc/arm-elf/4.4.0/../../../../arm-elf/lib/thumb/interwork\libg.a(lib_a-malloc.o)
 .debug_pubnames
                0x00000785       0xce c:/espardino_tmp/bin/../lib/gcc/arm-elf/4.4.0/../../../../arm-elf/lib/thumb/interwork\libg.a(lib_a-mallocr.o)
 .debug_pubnames
                0x00000853       0x1d c:/espardino_tmp/bin/../lib/gcc/arm-elf/4.4.0/../../../../arm-elf/lib/thumb/interwork\libg.a(lib_a-memcmp.o)
 .debug_pubnames
                0x00000870       0x1d c:/espardino_tmp/bin/../lib/gcc/arm-elf/4.4.0/../../../../arm-elf/lib/thumb/interwork\libg.a(lib_a-memcpy.o)
 .debug_pubnames
                0x0000088d       0x38 c:/espardino_tmp/bin/../lib/gcc/arm-elf/4.4.0/../../../../arm-elf/lib/thumb/interwork\libg.a(lib_a-mlock.o)
 .debug_pubnames
                0x000008c5       0x25 c:/espardino_tmp/bin/../lib/gcc/arm-elf/4.4.0/../../../../arm-elf/lib/thumb/interwork\libg.a(lib_a-rand.o)
 .debug_pubnames
                0x000008ea       0x1e c:/espardino_tmp/bin/../lib/gcc/arm-elf/4.4.0/../../../../arm-elf/lib/thumb/interwork\libg.a(lib_a-realloc.o)
 .debug_pubnames
                0x00000908       0x21 c:/espardino_tmp/bin/../lib/gcc/arm-elf/4.4.0/../../../../arm-elf/lib/thumb/interwork\libg.a(lib_a-reallocr.o)
 .debug_pubnames
                0x00000929       0x1e c:/espardino_tmp/bin/../lib/gcc/arm-elf/4.4.0/../../../../arm-elf/lib/thumb/interwork\libg.a(lib_a-sbrkr.o)
 .debug_pubnames
                0x00000947       0x1d c:/espardino_tmp/bin/../lib/gcc/arm-elf/4.4.0/../../../../arm-elf/lib/thumb/interwork\libg.a(lib_a-strcat.o)
 .debug_pubnames
                0x00000964       0x1d c:/espardino_tmp/bin/../lib/gcc/arm-elf/4.4.0/../../../../arm-elf/lib/thumb/interwork\libg.a(lib_a-strchr.o)
 .debug_pubnames
                0x00000981       0x1d c:/espardino_tmp/bin/../lib/gcc/arm-elf/4.4.0/../../../../arm-elf/lib/thumb/interwork\libg.a(lib_a-strcmp.o)
 .debug_pubnames
                0x0000099e       0x1e c:/espardino_tmp/bin/../lib/gcc/arm-elf/4.4.0/../../../../arm-elf/lib/thumb/interwork\libg.a(lib_a-strcoll.o)
 .debug_pubnames
                0x000009bc       0x1d c:/espardino_tmp/bin/../lib/gcc/arm-elf/4.4.0/../../../../arm-elf/lib/thumb/interwork\libg.a(lib_a-strcpy.o)
 .debug_pubnames
                0x000009d9       0x1e c:/espardino_tmp/bin/../lib/gcc/arm-elf/4.4.0/../../../../arm-elf/lib/thumb/interwork\libg.a(lib_a-strcspn.o)
 .debug_pubnames
                0x000009f7       0x1d c:/espardino_tmp/bin/../lib/gcc/arm-elf/4.4.0/../../../../arm-elf/lib/thumb/interwork\libg.a(lib_a-strlen.o)
 .debug_pubnames
                0x00000a14       0x1e c:/espardino_tmp/bin/../lib/gcc/arm-elf/4.4.0/../../../../arm-elf/lib/thumb/interwork\libg.a(lib_a-strncat.o)
 .debug_pubnames
                0x00000a32       0x1e c:/espardino_tmp/bin/../lib/gcc/arm-elf/4.4.0/../../../../arm-elf/lib/thumb/interwork\libg.a(lib_a-strncpy.o)
 .debug_pubnames
                0x00000a50       0x1d c:/espardino_tmp/bin/../lib/gcc/arm-elf/4.4.0/../../../../arm-elf/lib/thumb/interwork\libg.a(lib_a-strstr.o)
 .debug_pubnames
                0x00000a6d       0x36 c:/espardino_tmp/bin/../lib/gcc/arm-elf/4.4.0/../../../../arm-elf/lib/thumb/interwork\libg.a(lib_a-strtod.o)
 .debug_pubnames
                0x00000aa3       0x2d c:/espardino_tmp/bin/../lib/gcc/arm-elf/4.4.0/../../../../arm-elf/lib/thumb/interwork\libg.a(lib_a-strtoul.o)
 .debug_pubnames
                0x00000ad0      0x159 c:/espardino_tmp/bin/../lib/gcc/arm-elf/4.4.0/../../../../arm-elf/lib/thumb/interwork\libg.a(lib_a-syscalls.o)
 .debug_pubnames
                0x00000c29       0x2d c:/espardino_tmp/bin/../lib/gcc/arm-elf/4.4.0/../../../../arm-elf/lib/thumb/interwork\libg.a(lib_a-tmpfile.o)
 .debug_pubnames
                0x00000c56       0x46 c:/espardino_tmp/bin/../lib/gcc/arm-elf/4.4.0/../../../../arm-elf/lib/thumb/interwork\libg.a(lib_a-tmpnam.o)
 .debug_pubnames
                0x00000c9c       0x1f c:/espardino_tmp/bin/../lib/gcc/arm-elf/4.4.0/../../../../arm-elf/lib/thumb/interwork\libg.a(lib_a-closer.o)
 .debug_pubnames
                0x00000cbb       0x2b c:/espardino_tmp/bin/../lib/gcc/arm-elf/4.4.0/../../../../arm-elf/lib/thumb/interwork\libg.a(lib_a-fdopen.o)
 .debug_pubnames
                0x00000ce6       0xdb c:/espardino_tmp/bin/../lib/gcc/arm-elf/4.4.0/../../../../arm-elf/lib/thumb/interwork\libg.a(lib_a-findfp.o)
 .debug_pubnames
                0x00000dc1       0x1f c:/espardino_tmp/bin/../lib/gcc/arm-elf/4.4.0/../../../../arm-elf/lib/thumb/interwork\libg.a(lib_a-flags.o)
 .debug_pubnames
                0x00000de0       0x31 c:/espardino_tmp/bin/../lib/gcc/arm-elf/4.4.0/../../../../arm-elf/lib/thumb/interwork\libg.a(lib_a-freer.o)
 .debug_pubnames
                0x00000e11       0x2e c:/espardino_tmp/bin/../lib/gcc/arm-elf/4.4.0/../../../../arm-elf/lib/thumb/interwork\libg.a(lib_a-fwalk.o)
 .debug_pubnames
                0x00000e3f       0x3e c:/espardino_tmp/bin/../lib/gcc/arm-elf/4.4.0/../../../../arm-elf/lib/thumb/interwork\libg.a(lib_a-gdtoa-gethex.o)
 .debug_pubnames
                0x00000e7d       0x1f c:/espardino_tmp/bin/../lib/gcc/arm-elf/4.4.0/../../../../arm-elf/lib/thumb/interwork\libg.a(lib_a-gdtoa-hexnan.o)
 .debug_pubnames
                0x00000e9c       0x2a c:/espardino_tmp/bin/../lib/gcc/arm-elf/4.4.0/../../../../arm-elf/lib/thumb/interwork\libg.a(lib_a-getenv.o)
 .debug_pubnames
                0x00000ec6       0x2f c:/espardino_tmp/bin/../lib/gcc/arm-elf/4.4.0/../../../../arm-elf/lib/thumb/interwork\libg.a(lib_a-getenv_r.o)
 .debug_pubnames
                0x00000ef5       0x1d c:/espardino_tmp/bin/../lib/gcc/arm-elf/4.4.0/../../../../arm-elf/lib/thumb/interwork\libg.a(lib_a-memchr.o)
 .debug_pubnames
                0x00000f12       0x1e c:/espardino_tmp/bin/../lib/gcc/arm-elf/4.4.0/../../../../arm-elf/lib/thumb/interwork\libg.a(lib_a-memmove.o)
 .debug_pubnames
                0x00000f30       0x1d c:/espardino_tmp/bin/../lib/gcc/arm-elf/4.4.0/../../../../arm-elf/lib/thumb/interwork\libg.a(lib_a-memset.o)
 .debug_pubnames
                0x00000f4d      0x13a c:/espardino_tmp/bin/../lib/gcc/arm-elf/4.4.0/../../../../arm-elf/lib/thumb/interwork\libg.a(lib_a-mprec.o)
 .debug_pubnames
                0x00001087       0x1e c:/espardino_tmp/bin/../lib/gcc/arm-elf/4.4.0/../../../../arm-elf/lib/thumb/interwork\libg.a(lib_a-openr.o)
 .debug_pubnames
                0x000010a5       0x52 c:/espardino_tmp/bin/../lib/gcc/arm-elf/4.4.0/../../../../arm-elf/lib/thumb/interwork\libg.a(lib_a-reent.o)
 .debug_pubnames
                0x000010f7       0x2b c:/espardino_tmp/bin/../lib/gcc/arm-elf/4.4.0/../../../../arm-elf/lib/thumb/interwork\libg.a(lib_a-remove.o)
 .debug_pubnames
                0x00001122       0x1b c:/espardino_tmp/bin/../lib/gcc/arm-elf/4.4.0/../../../../arm-elf/lib/thumb/interwork\libg.a(lib_a-sf_nan.o)
 .debug_pubnames
                0x0000113d       0x2c c:/espardino_tmp/bin/../lib/gcc/arm-elf/4.4.0/../../../../arm-elf/lib/thumb/interwork\libg.a(lib_a-signalr.o)
 .debug_pubnames
                0x00001169       0x2d c:/espardino_tmp/bin/../lib/gcc/arm-elf/4.4.0/../../../../arm-elf/lib/thumb/interwork\libg.a(lib_a-sprintf.o)
 .debug_pubnames
                0x00001196       0x44 c:/espardino_tmp/bin/../lib/gcc/arm-elf/4.4.0/../../../../arm-elf/lib/thumb/interwork\libg.a(lib_a-stdio.o)
 .debug_pubnames
                0x000011da       0x1e c:/espardino_tmp/bin/../lib/gcc/arm-elf/4.4.0/../../../../arm-elf/lib/thumb/interwork\libg.a(lib_a-strncmp.o)
 .debug_pubnames
                0x000011f8       0x23 c:/espardino_tmp/bin/../lib/gcc/arm-elf/4.4.0/../../../../arm-elf/lib/thumb/interwork\libg.a(lib_a-svfprintf.o)
 .debug_pubnames
                0x0000121b       0x20 c:/espardino_tmp/bin/../lib/gcc/arm-elf/4.4.0/../../../../arm-elf/lib/thumb/interwork\libg.a(lib_a-unlinkr.o)
 .debug_pubnames
                0x0000123b       0x1f c:/espardino_tmp/bin/../lib/gcc/arm-elf/4.4.0/../../../../arm-elf/lib/thumb/interwork\libg.a(lib_a-writer.o)
 .debug_pubnames
                0x0000125a       0x20 c:/espardino_tmp/bin/../lib/gcc/arm-elf/4.4.0/../../../../arm-elf/lib/thumb/interwork\libg.a(lib_a-callocr.o)
 .debug_pubnames
                0x0000127a       0x1e c:/espardino_tmp/bin/../lib/gcc/arm-elf/4.4.0/../../../../arm-elf/lib/thumb/interwork\libg.a(lib_a-dtoa.o)
 .debug_pubnames
                0x00001298       0x1e c:/espardino_tmp/bin/../lib/gcc/arm-elf/4.4.0/../../../../arm-elf/lib/thumb/interwork\libg.a(lib_a-environ.o)
 .debug_pubnames
                0x000012b6       0x32 c:/espardino_tmp/bin/../lib/gcc/arm-elf/4.4.0/../../../../arm-elf/lib/thumb/interwork\libg.a(lib_a-envlock.o)
 .debug_pubnames
                0x000012e8       0x2b c:/espardino_tmp/bin/../lib/gcc/arm-elf/4.4.0/../../../../arm-elf/lib/thumb/interwork\libg.a(lib_a-fclose.o)
 .debug_pubnames
                0x00001313       0x2b c:/espardino_tmp/bin/../lib/gcc/arm-elf/4.4.0/../../../../arm-elf/lib/thumb/interwork\libg.a(lib_a-fflush.o)
 .debug_pubnames
                0x0000133e       0x1f c:/espardino_tmp/bin/../lib/gcc/arm-elf/4.4.0/../../../../arm-elf/lib/thumb/interwork\libg.a(lib_a-lseekr.o)
 .debug_pubnames
                0x0000135d       0x1e c:/espardino_tmp/bin/../lib/gcc/arm-elf/4.4.0/../../../../arm-elf/lib/thumb/interwork\libg.a(lib_a-readr.o)
 .debug_pubnames
                0x0000137b       0x1f c:/espardino_tmp/bin/../lib/gcc/arm-elf/4.4.0/../../../../arm-elf/lib/thumb/interwork\libg.a(lib_a-s_isinfd.o)
 .debug_pubnames
                0x0000139a       0x1f c:/espardino_tmp/bin/../lib/gcc/arm-elf/4.4.0/thumb/interwork\libgcc.a(_muldi3.o)

.debug_info     0x00000000    0x24ec2
 *(.debug_info .gnu.linkonce.wi.*)
 .debug_info    0x00000000       0x57 startup.o
 .debug_info    0x00000057      0x2f5 main.o
 .debug_info    0x0000034c       0x97 c:/espardino_tmp/bin/../lib/gcc/arm-elf/4.4.0/thumb/interwork\libgcc.a(_arm_addsubdf3.o)
 .debug_info    0x000003e3      0x28c c:/espardino_tmp/bin/../lib/gcc/arm-elf/4.4.0/../../../../arm-elf/lib/thumb/interwork\libm.a(lib_a-s_atan.o)
 .debug_info    0x0000066f      0x1b1 c:/espardino_tmp/bin/../lib/gcc/arm-elf/4.4.0/../../../../arm-elf/lib/thumb/interwork\libm.a(lib_a-s_ceil.o)
 .debug_info    0x00000820       0xfb c:/espardino_tmp/bin/../lib/gcc/arm-elf/4.4.0/../../../../arm-elf/lib/thumb/interwork\libm.a(lib_a-s_cos.o)
 .debug_info    0x0000091b      0x156 c:/espardino_tmp/bin/../lib/gcc/arm-elf/4.4.0/../../../../arm-elf/lib/thumb/interwork\libm.a(lib_a-s_fabs.o)
 .debug_info    0x00000a71      0x1b1 c:/espardino_tmp/bin/../lib/gcc/arm-elf/4.4.0/../../../../arm-elf/lib/thumb/interwork\libm.a(lib_a-s_floor.o)
 .debug_info    0x00000c22      0x1d2 c:/espardino_tmp/bin/../lib/gcc/arm-elf/4.4.0/../../../../arm-elf/lib/thumb/interwork\libm.a(lib_a-s_frexp.o)
 .debug_info    0x00000df4       0xc3 c:/espardino_tmp/bin/../lib/gcc/arm-elf/4.4.0/../../../../arm-elf/lib/thumb/interwork\libm.a(lib_a-s_ldexp.o)
 .debug_info    0x00000eb7      0x21e c:/espardino_tmp/bin/../lib/gcc/arm-elf/4.4.0/../../../../arm-elf/lib/thumb/interwork\libm.a(lib_a-s_modf.o)
 .debug_info    0x000010d5      0x222 c:/espardino_tmp/bin/../lib/gcc/arm-elf/4.4.0/../../../../arm-elf/lib/thumb/interwork\libm.a(lib_a-s_scalbn.o)
 .debug_info    0x000012f7       0xfb c:/espardino_tmp/bin/../lib/gcc/arm-elf/4.4.0/../../../../arm-elf/lib/thumb/interwork\libm.a(lib_a-s_sin.o)
 .debug_info    0x000013f2       0xfb c:/espardino_tmp/bin/../lib/gcc/arm-elf/4.4.0/../../../../arm-elf/lib/thumb/interwork\libm.a(lib_a-s_tan.o)
 .debug_info    0x000014ed      0x1b5 c:/espardino_tmp/bin/../lib/gcc/arm-elf/4.4.0/../../../../arm-elf/lib/thumb/interwork\libm.a(lib_a-s_tanh.o)
 .debug_info    0x000016a2      0x187 c:/espardino_tmp/bin/../lib/gcc/arm-elf/4.4.0/../../../../arm-elf/lib/thumb/interwork\libm.a(lib_a-w_acos.o)
 .debug_info    0x00001829      0x187 c:/espardino_tmp/bin/../lib/gcc/arm-elf/4.4.0/../../../../arm-elf/lib/thumb/interwork\libm.a(lib_a-w_asin.o)
 .debug_info    0x000019b0       0xbf c:/espardino_tmp/bin/../lib/gcc/arm-elf/4.4.0/../../../../arm-elf/lib/thumb/interwork\libm.a(lib_a-w_atan2.o)
 .debug_info    0x00001a6f      0x187 c:/espardino_tmp/bin/../lib/gcc/arm-elf/4.4.0/../../../../arm-elf/lib/thumb/interwork\libm.a(lib_a-w_cosh.o)
 .debug_info    0x00001bf6      0x19f c:/espardino_tmp/bin/../lib/gcc/arm-elf/4.4.0/../../../../arm-elf/lib/thumb/interwork\libm.a(lib_a-w_exp.o)
 .debug_info    0x00001d95      0x1ad c:/espardino_tmp/bin/../lib/gcc/arm-elf/4.4.0/../../../../arm-elf/lib/thumb/interwork\libm.a(lib_a-w_fmod.o)
 .debug_info    0x00001f42      0x187 c:/espardino_tmp/bin/../lib/gcc/arm-elf/4.4.0/../../../../arm-elf/lib/thumb/interwork\libm.a(lib_a-w_log.o)
 .debug_info    0x000020c9      0x187 c:/espardino_tmp/bin/../lib/gcc/arm-elf/4.4.0/../../../../arm-elf/lib/thumb/interwork\libm.a(lib_a-w_log10.o)
 .debug_info    0x00002250      0x1c6 c:/espardino_tmp/bin/../lib/gcc/arm-elf/4.4.0/../../../../arm-elf/lib/thumb/interwork\libm.a(lib_a-w_pow.o)
 .debug_info    0x00002416      0x173 c:/espardino_tmp/bin/../lib/gcc/arm-elf/4.4.0/../../../../arm-elf/lib/thumb/interwork\libm.a(lib_a-w_sinh.o)
 .debug_info    0x00002589      0x187 c:/espardino_tmp/bin/../lib/gcc/arm-elf/4.4.0/../../../../arm-elf/lib/thumb/interwork\libm.a(lib_a-w_sqrt.o)
 .debug_info    0x00002710      0x2d4 c:/espardino_tmp/bin/../lib/gcc/arm-elf/4.4.0/../../../../arm-elf/lib/thumb/interwork\libm.a(lib_a-e_acos.o)
 .debug_info    0x000029e4      0x2fe c:/espardino_tmp/bin/../lib/gcc/arm-elf/4.4.0/../../../../arm-elf/lib/thumb/interwork\libm.a(lib_a-e_asin.o)
 .debug_info    0x00002ce2      0x28e c:/espardino_tmp/bin/../lib/gcc/arm-elf/4.4.0/../../../../arm-elf/lib/thumb/interwork\libm.a(lib_a-e_atan2.o)
 .debug_info    0x00002f70      0x143 c:/espardino_tmp/bin/../lib/gcc/arm-elf/4.4.0/../../../../arm-elf/lib/thumb/interwork\libm.a(lib_a-e_cosh.o)
 .debug_info    0x000030b3      0x364 c:/espardino_tmp/bin/../lib/gcc/arm-elf/4.4.0/../../../../arm-elf/lib/thumb/interwork\libm.a(lib_a-e_exp.o)
 .debug_info    0x00003417      0x26e c:/espardino_tmp/bin/../lib/gcc/arm-elf/4.4.0/../../../../arm-elf/lib/thumb/interwork\libm.a(lib_a-e_fmod.o)
 .debug_info    0x00003685      0x2e6 c:/espardino_tmp/bin/../lib/gcc/arm-elf/4.4.0/../../../../arm-elf/lib/thumb/interwork\libm.a(lib_a-e_log.o)
 .debug_info    0x0000396b      0x227 c:/espardino_tmp/bin/../lib/gcc/arm-elf/4.4.0/../../../../arm-elf/lib/thumb/interwork\libm.a(lib_a-e_log10.o)
 .debug_info    0x00003b92      0x6b2 c:/espardino_tmp/bin/../lib/gcc/arm-elf/4.4.0/../../../../arm-elf/lib/thumb/interwork\libm.a(lib_a-e_pow.o)
 .debug_info    0x00004244      0x38f c:/espardino_tmp/bin/../lib/gcc/arm-elf/4.4.0/../../../../arm-elf/lib/thumb/interwork\libm.a(lib_a-e_rem_pio2.o)
 .debug_info    0x000045d3      0x149 c:/espardino_tmp/bin/../lib/gcc/arm-elf/4.4.0/../../../../arm-elf/lib/thumb/interwork\libm.a(lib_a-e_sinh.o)
 .debug_info    0x0000471c      0x227 c:/espardino_tmp/bin/../lib/gcc/arm-elf/4.4.0/../../../../arm-elf/lib/thumb/interwork\libm.a(lib_a-e_sqrt.o)
 .debug_info    0x00004943      0x21a c:/espardino_tmp/bin/../lib/gcc/arm-elf/4.4.0/../../../../arm-elf/lib/thumb/interwork\libm.a(lib_a-k_cos.o)
 .debug_info    0x00004b5d      0x2da c:/espardino_tmp/bin/../lib/gcc/arm-elf/4.4.0/../../../../arm-elf/lib/thumb/interwork\libm.a(lib_a-k_rem_pio2.o)
 .debug_info    0x00004e37      0x209 c:/espardino_tmp/bin/../lib/gcc/arm-elf/4.4.0/../../../../arm-elf/lib/thumb/interwork\libm.a(lib_a-k_sin.o)
 .debug_info    0x00005040      0x2d8 c:/espardino_tmp/bin/../lib/gcc/arm-elf/4.4.0/../../../../arm-elf/lib/thumb/interwork\libm.a(lib_a-k_tan.o)
 .debug_info    0x00005318      0x16c c:/espardino_tmp/bin/../lib/gcc/arm-elf/4.4.0/../../../../arm-elf/lib/thumb/interwork\libm.a(lib_a-s_copysign.o)
 .debug_info    0x00005484      0x37f c:/espardino_tmp/bin/../lib/gcc/arm-elf/4.4.0/../../../../arm-elf/lib/thumb/interwork\libm.a(lib_a-s_expm1.o)
 .debug_info    0x00005803      0x142 c:/espardino_tmp/bin/../lib/gcc/arm-elf/4.4.0/../../../../arm-elf/lib/thumb/interwork\libm.a(lib_a-s_finite.o)
 .debug_info    0x00005945       0xcf c:/espardino_tmp/bin/../lib/gcc/arm-elf/4.4.0/../../../../arm-elf/lib/thumb/interwork\libm.a(lib_a-s_isnand.o)
 .debug_info    0x00005a14       0xc4 c:/espardino_tmp/bin/../lib/gcc/arm-elf/4.4.0/../../../../arm-elf/lib/thumb/interwork\libm.a(lib_a-s_lib_ver.o)
 .debug_info    0x00005ad8      0x132 c:/espardino_tmp/bin/../lib/gcc/arm-elf/4.4.0/../../../../arm-elf/lib/thumb/interwork\libm.a(lib_a-s_matherr.o)
 .debug_info    0x00005c0a       0xc6 c:/espardino_tmp/bin/../lib/gcc/arm-elf/4.4.0/../../../../arm-elf/lib/thumb/interwork\libm.a(lib_a-s_nan.o)
 .debug_info    0x00005cd0      0x20e c:/espardino_tmp/bin/../lib/gcc/arm-elf/4.4.0/../../../../arm-elf/lib/thumb/interwork\libm.a(lib_a-s_rint.o)
 .debug_info    0x00005ede       0x98 c:/espardino_tmp/bin/../lib/gcc/arm-elf/4.4.0/thumb/interwork\libgcc.a(_udivsi3.o)
 .debug_info    0x00005f76       0x98 c:/espardino_tmp/bin/../lib/gcc/arm-elf/4.4.0/thumb/interwork\libgcc.a(_divsi3.o)
 .debug_info    0x0000600e       0x98 c:/espardino_tmp/bin/../lib/gcc/arm-elf/4.4.0/thumb/interwork\libgcc.a(_umodsi3.o)
 .debug_info    0x000060a6       0x98 c:/espardino_tmp/bin/../lib/gcc/arm-elf/4.4.0/thumb/interwork\libgcc.a(_modsi3.o)
 .debug_info    0x0000613e       0x98 c:/espardino_tmp/bin/../lib/gcc/arm-elf/4.4.0/thumb/interwork\libgcc.a(_dvmd_tls.o)
 .debug_info    0x000061d6       0x97 c:/espardino_tmp/bin/../lib/gcc/arm-elf/4.4.0/thumb/interwork\libgcc.a(_arm_muldivdf3.o)
 .debug_info    0x0000626d       0x97 c:/espardino_tmp/bin/../lib/gcc/arm-elf/4.4.0/thumb/interwork\libgcc.a(_arm_cmpdf2.o)
 .debug_info    0x00006304       0x97 c:/espardino_tmp/bin/../lib/gcc/arm-elf/4.4.0/thumb/interwork\libgcc.a(_arm_fixdfsi.o)
 .debug_info    0x0000639b       0x97 c:/espardino_tmp/bin/../lib/gcc/arm-elf/4.4.0/thumb/interwork\libgcc.a(_arm_fixunsdfsi.o)
 .debug_info    0x00006432       0x87 c:/espardino_tmp/bin/../lib/gcc/arm-elf/4.4.0/../../../../arm-elf/lib/thumb/interwork\libg.a(lib_a-ctype_.o)
 .debug_info    0x000064b9      0x956 c:/espardino_tmp/bin/../lib/gcc/arm-elf/4.4.0/../../../../arm-elf/lib/thumb/interwork\libg.a(lib_a-errno.o)
 .debug_info    0x00006e0f      0x967 c:/espardino_tmp/bin/../lib/gcc/arm-elf/4.4.0/../../../../arm-elf/lib/thumb/interwork\libg.a(lib_a-impure.o)
 .debug_info    0x00007776      0xbd4 c:/espardino_tmp/bin/../lib/gcc/arm-elf/4.4.0/../../../../arm-elf/lib/thumb/interwork\libg.a(lib_a-locale.o)
 .debug_info    0x0000834a      0x99a c:/espardino_tmp/bin/../lib/gcc/arm-elf/4.4.0/../../../../arm-elf/lib/thumb/interwork\libg.a(lib_a-malloc.o)
 .debug_info    0x00008ce4      0xcfb c:/espardino_tmp/bin/../lib/gcc/arm-elf/4.4.0/../../../../arm-elf/lib/thumb/interwork\libg.a(lib_a-mallocr.o)
 .debug_info    0x000099df      0x113 c:/espardino_tmp/bin/../lib/gcc/arm-elf/4.4.0/../../../../arm-elf/lib/thumb/interwork\libg.a(lib_a-memcmp.o)
 .debug_info    0x00009af2      0x142 c:/espardino_tmp/bin/../lib/gcc/arm-elf/4.4.0/../../../../arm-elf/lib/thumb/interwork\libg.a(lib_a-memcpy.o)
 .debug_info    0x00009c34      0x97f c:/espardino_tmp/bin/../lib/gcc/arm-elf/4.4.0/../../../../arm-elf/lib/thumb/interwork\libg.a(lib_a-mlock.o)
 .debug_info    0x0000a5b3      0x977 c:/espardino_tmp/bin/../lib/gcc/arm-elf/4.4.0/../../../../arm-elf/lib/thumb/interwork\libg.a(lib_a-rand.o)
 .debug_info    0x0000af2a      0x97f c:/espardino_tmp/bin/../lib/gcc/arm-elf/4.4.0/../../../../arm-elf/lib/thumb/interwork\libg.a(lib_a-realloc.o)
 .debug_info    0x0000b8a9      0xbdf c:/espardino_tmp/bin/../lib/gcc/arm-elf/4.4.0/../../../../arm-elf/lib/thumb/interwork\libg.a(lib_a-reallocr.o)
 .debug_info    0x0000c488      0x98e c:/espardino_tmp/bin/../lib/gcc/arm-elf/4.4.0/../../../../arm-elf/lib/thumb/interwork\libg.a(lib_a-sbrkr.o)
 .debug_info    0x0000ce16       0xe9 c:/espardino_tmp/bin/../lib/gcc/arm-elf/4.4.0/../../../../arm-elf/lib/thumb/interwork\libg.a(lib_a-strcat.o)
 .debug_info    0x0000ceff      0x112 c:/espardino_tmp/bin/../lib/gcc/arm-elf/4.4.0/../../../../arm-elf/lib/thumb/interwork\libg.a(lib_a-strchr.o)
 .debug_info    0x0000d011       0xdd c:/espardino_tmp/bin/../lib/gcc/arm-elf/4.4.0/../../../../arm-elf/lib/thumb/interwork\libg.a(lib_a-strcmp.o)
 .debug_info    0x0000d0ee       0xb5 c:/espardino_tmp/bin/../lib/gcc/arm-elf/4.4.0/../../../../arm-elf/lib/thumb/interwork\libg.a(lib_a-strcoll.o)
 .debug_info    0x0000d1a3      0x10e c:/espardino_tmp/bin/../lib/gcc/arm-elf/4.4.0/../../../../arm-elf/lib/thumb/interwork\libg.a(lib_a-strcpy.o)
 .debug_info    0x0000d2b1       0xd6 c:/espardino_tmp/bin/../lib/gcc/arm-elf/4.4.0/../../../../arm-elf/lib/thumb/interwork\libg.a(lib_a-strcspn.o)
 .debug_info    0x0000d387       0xd9 c:/espardino_tmp/bin/../lib/gcc/arm-elf/4.4.0/../../../../arm-elf/lib/thumb/interwork\libg.a(lib_a-strlen.o)
 .debug_info    0x0000d460       0xfd c:/espardino_tmp/bin/../lib/gcc/arm-elf/4.4.0/../../../../arm-elf/lib/thumb/interwork\libg.a(lib_a-strncat.o)
 .debug_info    0x0000d55d      0x128 c:/espardino_tmp/bin/../lib/gcc/arm-elf/4.4.0/../../../../arm-elf/lib/thumb/interwork\libg.a(lib_a-strncpy.o)
 .debug_info    0x0000d685      0x392 c:/espardino_tmp/bin/../lib/gcc/arm-elf/4.4.0/../../../../arm-elf/lib/thumb/interwork\libg.a(lib_a-strstr.o)
 .debug_info    0x0000da17     0x1026 c:/espardino_tmp/bin/../lib/gcc/arm-elf/4.4.0/../../../../arm-elf/lib/thumb/interwork\libg.a(lib_a-strtod.o)
 .debug_info    0x0000ea3d      0xa4f c:/espardino_tmp/bin/../lib/gcc/arm-elf/4.4.0/../../../../arm-elf/lib/thumb/interwork\libg.a(lib_a-strtoul.o)
 .debug_info    0x0000f48c     0x1991 c:/espardino_tmp/bin/../lib/gcc/arm-elf/4.4.0/../../../../arm-elf/lib/thumb/interwork\libg.a(lib_a-syscalls.o)
 .debug_info    0x00010e1d      0x9e7 c:/espardino_tmp/bin/../lib/gcc/arm-elf/4.4.0/../../../../arm-elf/lib/thumb/interwork\libg.a(lib_a-tmpfile.o)
 .debug_info    0x00011804      0xafb c:/espardino_tmp/bin/../lib/gcc/arm-elf/4.4.0/../../../../arm-elf/lib/thumb/interwork\libg.a(lib_a-tmpnam.o)
 .debug_info    0x000122ff      0x982 c:/espardino_tmp/bin/../lib/gcc/arm-elf/4.4.0/../../../../arm-elf/lib/thumb/interwork\libg.a(lib_a-closer.o)
 .debug_info    0x00012c81      0x9fc c:/espardino_tmp/bin/../lib/gcc/arm-elf/4.4.0/../../../../arm-elf/lib/thumb/interwork\libg.a(lib_a-fdopen.o)
 .debug_info    0x0001367d      0xbc7 c:/espardino_tmp/bin/../lib/gcc/arm-elf/4.4.0/../../../../arm-elf/lib/thumb/interwork\libg.a(lib_a-findfp.o)
 .debug_info    0x00014244      0x9a3 c:/espardino_tmp/bin/../lib/gcc/arm-elf/4.4.0/../../../../arm-elf/lib/thumb/interwork\libg.a(lib_a-flags.o)
 .debug_info    0x00014be7      0xbf1 c:/espardino_tmp/bin/../lib/gcc/arm-elf/4.4.0/../../../../arm-elf/lib/thumb/interwork\libg.a(lib_a-freer.o)
 .debug_info    0x000157d8      0xb1d c:/espardino_tmp/bin/../lib/gcc/arm-elf/4.4.0/../../../../arm-elf/lib/thumb/interwork\libg.a(lib_a-fwalk.o)
 .debug_info    0x000162f5      0xe13 c:/espardino_tmp/bin/../lib/gcc/arm-elf/4.4.0/../../../../arm-elf/lib/thumb/interwork\libg.a(lib_a-gdtoa-gethex.o)
 .debug_info    0x00017108      0x2fb c:/espardino_tmp/bin/../lib/gcc/arm-elf/4.4.0/../../../../arm-elf/lib/thumb/interwork\libg.a(lib_a-gdtoa-hexnan.o)
 .debug_info    0x00017403      0x9b6 c:/espardino_tmp/bin/../lib/gcc/arm-elf/4.4.0/../../../../arm-elf/lib/thumb/interwork\libg.a(lib_a-getenv.o)
 .debug_info    0x00017db9      0xa18 c:/espardino_tmp/bin/../lib/gcc/arm-elf/4.4.0/../../../../arm-elf/lib/thumb/interwork\libg.a(lib_a-getenv_r.o)
 .debug_info    0x000187d1      0x125 c:/espardino_tmp/bin/../lib/gcc/arm-elf/4.4.0/../../../../arm-elf/lib/thumb/interwork\libg.a(lib_a-memchr.o)
 .debug_info    0x000188f6      0x142 c:/espardino_tmp/bin/../lib/gcc/arm-elf/4.4.0/../../../../arm-elf/lib/thumb/interwork\libg.a(lib_a-memmove.o)
 .debug_info    0x00018a38      0x115 c:/espardino_tmp/bin/../lib/gcc/arm-elf/4.4.0/../../../../arm-elf/lib/thumb/interwork\libg.a(lib_a-memset.o)
 .debug_info    0x00018b4d     0x1545 c:/espardino_tmp/bin/../lib/gcc/arm-elf/4.4.0/../../../../arm-elf/lib/thumb/interwork\libg.a(lib_a-mprec.o)
 .debug_info    0x0001a092      0x9a1 c:/espardino_tmp/bin/../lib/gcc/arm-elf/4.4.0/../../../../arm-elf/lib/thumb/interwork\libg.a(lib_a-openr.o)
 .debug_info    0x0001aa33      0xa4b c:/espardino_tmp/bin/../lib/gcc/arm-elf/4.4.0/../../../../arm-elf/lib/thumb/interwork\libg.a(lib_a-reent.o)
 .debug_info    0x0001b47e      0x9a3 c:/espardino_tmp/bin/../lib/gcc/arm-elf/4.4.0/../../../../arm-elf/lib/thumb/interwork\libg.a(lib_a-remove.o)
 .debug_info    0x0001be21       0xc7 c:/espardino_tmp/bin/../lib/gcc/arm-elf/4.4.0/../../../../arm-elf/lib/thumb/interwork\libg.a(lib_a-sf_nan.o)
 .debug_info    0x0001bee8      0x9cc c:/espardino_tmp/bin/../lib/gcc/arm-elf/4.4.0/../../../../arm-elf/lib/thumb/interwork\libg.a(lib_a-signalr.o)
 .debug_info    0x0001c8b4      0xa43 c:/espardino_tmp/bin/../lib/gcc/arm-elf/4.4.0/../../../../arm-elf/lib/thumb/interwork\libg.a(lib_a-sprintf.o)
 .debug_info    0x0001d2f7      0xada c:/espardino_tmp/bin/../lib/gcc/arm-elf/4.4.0/../../../../arm-elf/lib/thumb/interwork\libg.a(lib_a-stdio.o)
 .debug_info    0x0001ddd1       0xf3 c:/espardino_tmp/bin/../lib/gcc/arm-elf/4.4.0/../../../../arm-elf/lib/thumb/interwork\libg.a(lib_a-strncmp.o)
 .debug_info    0x0001dec4     0x103b c:/espardino_tmp/bin/../lib/gcc/arm-elf/4.4.0/../../../../arm-elf/lib/thumb/interwork\libg.a(lib_a-svfprintf.o)
 .debug_info    0x0001eeff      0x983 c:/espardino_tmp/bin/../lib/gcc/arm-elf/4.4.0/../../../../arm-elf/lib/thumb/interwork\libg.a(lib_a-unlinkr.o)
 .debug_info    0x0001f882      0x9bd c:/espardino_tmp/bin/../lib/gcc/arm-elf/4.4.0/../../../../arm-elf/lib/thumb/interwork\libg.a(lib_a-writer.o)
 .debug_info    0x0002023f      0xa43 c:/espardino_tmp/bin/../lib/gcc/arm-elf/4.4.0/../../../../arm-elf/lib/thumb/interwork\libg.a(lib_a-callocr.o)
 .debug_info    0x00020c82      0xd93 c:/espardino_tmp/bin/../lib/gcc/arm-elf/4.4.0/../../../../arm-elf/lib/thumb/interwork\libg.a(lib_a-dtoa.o)
 .debug_info    0x00021a15       0x6f c:/espardino_tmp/bin/../lib/gcc/arm-elf/4.4.0/../../../../arm-elf/lib/thumb/interwork\libg.a(lib_a-environ.o)
 .debug_info    0x00021a84      0x981 c:/espardino_tmp/bin/../lib/gcc/arm-elf/4.4.0/../../../../arm-elf/lib/thumb/interwork\libg.a(lib_a-envlock.o)
 .debug_info    0x00022405      0x9bf c:/espardino_tmp/bin/../lib/gcc/arm-elf/4.4.0/../../../../arm-elf/lib/thumb/interwork\libg.a(lib_a-fclose.o)
 .debug_info    0x00022dc4      0xa25 c:/espardino_tmp/bin/../lib/gcc/arm-elf/4.4.0/../../../../arm-elf/lib/thumb/interwork\libg.a(lib_a-fflush.o)
 .debug_info    0x000237e9      0x9ab c:/espardino_tmp/bin/../lib/gcc/arm-elf/4.4.0/../../../../arm-elf/lib/thumb/interwork\libg.a(lib_a-lseekr.o)
 .debug_info    0x00024194      0x9b6 c:/espardino_tmp/bin/../lib/gcc/arm-elf/4.4.0/../../../../arm-elf/lib/thumb/interwork\libg.a(lib_a-readr.o)
 .debug_info    0x00024b4a       0xd3 c:/espardino_tmp/bin/../lib/gcc/arm-elf/4.4.0/../../../../arm-elf/lib/thumb/interwork\libg.a(lib_a-s_isinfd.o)
 .debug_info    0x00024c1d       0x97 c:/espardino_tmp/bin/../lib/gcc/arm-elf/4.4.0/thumb/interwork\libgcc.a(_arm_truncdfsf2.o)
 .debug_info    0x00024cb4      0x20e c:/espardino_tmp/bin/../lib/gcc/arm-elf/4.4.0/thumb/interwork\libgcc.a(_muldi3.o)

.debug_abbrev   0x00000000     0x89e1
 *(.debug_abbrev)
 .debug_abbrev  0x00000000       0x14 startup.o
 .debug_abbrev  0x00000014      0x12e main.o
 .debug_abbrev  0x00000142       0x14 c:/espardino_tmp/bin/../lib/gcc/arm-elf/4.4.0/thumb/interwork\libgcc.a(_arm_addsubdf3.o)
 .debug_abbrev  0x00000156      0x11f c:/espardino_tmp/bin/../lib/gcc/arm-elf/4.4.0/../../../../arm-elf/lib/thumb/interwork\libm.a(lib_a-s_atan.o)
 .debug_abbrev  0x00000275       0xf1 c:/espardino_tmp/bin/../lib/gcc/arm-elf/4.4.0/../../../../arm-elf/lib/thumb/interwork\libm.a(lib_a-s_ceil.o)
 .debug_abbrev  0x00000366       0xa3 c:/espardino_tmp/bin/../lib/gcc/arm-elf/4.4.0/../../../../arm-elf/lib/thumb/interwork\libm.a(lib_a-s_cos.o)
 .debug_abbrev  0x00000409       0xd7 c:/espardino_tmp/bin/../lib/gcc/arm-elf/4.4.0/../../../../arm-elf/lib/thumb/interwork\libm.a(lib_a-s_fabs.o)
 .debug_abbrev  0x000004e0       0xf1 c:/espardino_tmp/bin/../lib/gcc/arm-elf/4.4.0/../../../../arm-elf/lib/thumb/interwork\libm.a(lib_a-s_floor.o)
 .debug_abbrev  0x000005d1      0x118 c:/espardino_tmp/bin/../lib/gcc/arm-elf/4.4.0/../../../../arm-elf/lib/thumb/interwork\libm.a(lib_a-s_frexp.o)
 .debug_abbrev  0x000006e9       0x68 c:/espardino_tmp/bin/../lib/gcc/arm-elf/4.4.0/../../../../arm-elf/lib/thumb/interwork\libm.a(lib_a-s_ldexp.o)
 .debug_abbrev  0x00000751      0x13d c:/espardino_tmp/bin/../lib/gcc/arm-elf/4.4.0/../../../../arm-elf/lib/thumb/interwork\libm.a(lib_a-s_modf.o)
 .debug_abbrev  0x0000088e      0x10f c:/espardino_tmp/bin/../lib/gcc/arm-elf/4.4.0/../../../../arm-elf/lib/thumb/interwork\libm.a(lib_a-s_scalbn.o)
 .debug_abbrev  0x0000099d       0xa3 c:/espardino_tmp/bin/../lib/gcc/arm-elf/4.4.0/../../../../arm-elf/lib/thumb/interwork\libm.a(lib_a-s_sin.o)
 .debug_abbrev  0x00000a40       0xa3 c:/espardino_tmp/bin/../lib/gcc/arm-elf/4.4.0/../../../../arm-elf/lib/thumb/interwork\libm.a(lib_a-s_tan.o)
 .debug_abbrev  0x00000ae3       0xf7 c:/espardino_tmp/bin/../lib/gcc/arm-elf/4.4.0/../../../../arm-elf/lib/thumb/interwork\libm.a(lib_a-s_tanh.o)
 .debug_abbrev  0x00000bda       0xdf c:/espardino_tmp/bin/../lib/gcc/arm-elf/4.4.0/../../../../arm-elf/lib/thumb/interwork\libm.a(lib_a-w_acos.o)
 .debug_abbrev  0x00000cb9       0xdf c:/espardino_tmp/bin/../lib/gcc/arm-elf/4.4.0/../../../../arm-elf/lib/thumb/interwork\libm.a(lib_a-w_asin.o)
 .debug_abbrev  0x00000d98       0x59 c:/espardino_tmp/bin/../lib/gcc/arm-elf/4.4.0/../../../../arm-elf/lib/thumb/interwork\libm.a(lib_a-w_atan2.o)
 .debug_abbrev  0x00000df1       0xdf c:/espardino_tmp/bin/../lib/gcc/arm-elf/4.4.0/../../../../arm-elf/lib/thumb/interwork\libm.a(lib_a-w_cosh.o)
 .debug_abbrev  0x00000ed0       0xdf c:/espardino_tmp/bin/../lib/gcc/arm-elf/4.4.0/../../../../arm-elf/lib/thumb/interwork\libm.a(lib_a-w_exp.o)
 .debug_abbrev  0x00000faf       0xea c:/espardino_tmp/bin/../lib/gcc/arm-elf/4.4.0/../../../../arm-elf/lib/thumb/interwork\libm.a(lib_a-w_fmod.o)
 .debug_abbrev  0x00001099       0xdf c:/espardino_tmp/bin/../lib/gcc/arm-elf/4.4.0/../../../../arm-elf/lib/thumb/interwork\libm.a(lib_a-w_log.o)
 .debug_abbrev  0x00001178       0xdf c:/espardino_tmp/bin/../lib/gcc/arm-elf/4.4.0/../../../../arm-elf/lib/thumb/interwork\libm.a(lib_a-w_log10.o)
 .debug_abbrev  0x00001257       0xea c:/espardino_tmp/bin/../lib/gcc/arm-elf/4.4.0/../../../../arm-elf/lib/thumb/interwork\libm.a(lib_a-w_pow.o)
 .debug_abbrev  0x00001341       0xd8 c:/espardino_tmp/bin/../lib/gcc/arm-elf/4.4.0/../../../../arm-elf/lib/thumb/interwork\libm.a(lib_a-w_sinh.o)
 .debug_abbrev  0x00001419       0xdf c:/espardino_tmp/bin/../lib/gcc/arm-elf/4.4.0/../../../../arm-elf/lib/thumb/interwork\libm.a(lib_a-w_sqrt.o)
 .debug_abbrev  0x000014f8      0x10b c:/espardino_tmp/bin/../lib/gcc/arm-elf/4.4.0/../../../../arm-elf/lib/thumb/interwork\libm.a(lib_a-e_acos.o)
 .debug_abbrev  0x00001603      0x134 c:/espardino_tmp/bin/../lib/gcc/arm-elf/4.4.0/../../../../arm-elf/lib/thumb/interwork\libm.a(lib_a-e_asin.o)
 .debug_abbrev  0x00001737      0x12d c:/espardino_tmp/bin/../lib/gcc/arm-elf/4.4.0/../../../../arm-elf/lib/thumb/interwork\libm.a(lib_a-e_atan2.o)
 .debug_abbrev  0x00001864       0x9c c:/espardino_tmp/bin/../lib/gcc/arm-elf/4.4.0/../../../../arm-elf/lib/thumb/interwork\libm.a(lib_a-e_cosh.o)
 .debug_abbrev  0x00001900      0x148 c:/espardino_tmp/bin/../lib/gcc/arm-elf/4.4.0/../../../../arm-elf/lib/thumb/interwork\libm.a(lib_a-e_exp.o)
 .debug_abbrev  0x00001a48      0x103 c:/espardino_tmp/bin/../lib/gcc/arm-elf/4.4.0/../../../../arm-elf/lib/thumb/interwork\libm.a(lib_a-e_fmod.o)
 .debug_abbrev  0x00001b4b      0x132 c:/espardino_tmp/bin/../lib/gcc/arm-elf/4.4.0/../../../../arm-elf/lib/thumb/interwork\libm.a(lib_a-e_log.o)
 .debug_abbrev  0x00001c7d      0x107 c:/espardino_tmp/bin/../lib/gcc/arm-elf/4.4.0/../../../../arm-elf/lib/thumb/interwork\libm.a(lib_a-e_log10.o)
 .debug_abbrev  0x00001d84      0x16d c:/espardino_tmp/bin/../lib/gcc/arm-elf/4.4.0/../../../../arm-elf/lib/thumb/interwork\libm.a(lib_a-e_pow.o)
 .debug_abbrev  0x00001ef1      0x14d c:/espardino_tmp/bin/../lib/gcc/arm-elf/4.4.0/../../../../arm-elf/lib/thumb/interwork\libm.a(lib_a-e_rem_pio2.o)
 .debug_abbrev  0x0000203e       0xab c:/espardino_tmp/bin/../lib/gcc/arm-elf/4.4.0/../../../../arm-elf/lib/thumb/interwork\libm.a(lib_a-e_sinh.o)
 .debug_abbrev  0x000020e9      0x127 c:/espardino_tmp/bin/../lib/gcc/arm-elf/4.4.0/../../../../arm-elf/lib/thumb/interwork\libm.a(lib_a-e_sqrt.o)
 .debug_abbrev  0x00002210      0x104 c:/espardino_tmp/bin/../lib/gcc/arm-elf/4.4.0/../../../../arm-elf/lib/thumb/interwork\libm.a(lib_a-k_cos.o)
 .debug_abbrev  0x00002314      0x10b c:/espardino_tmp/bin/../lib/gcc/arm-elf/4.4.0/../../../../arm-elf/lib/thumb/interwork\libm.a(lib_a-k_rem_pio2.o)
 .debug_abbrev  0x0000241f       0xf5 c:/espardino_tmp/bin/../lib/gcc/arm-elf/4.4.0/../../../../arm-elf/lib/thumb/interwork\libm.a(lib_a-k_sin.o)
 .debug_abbrev  0x00002514      0x148 c:/espardino_tmp/bin/../lib/gcc/arm-elf/4.4.0/../../../../arm-elf/lib/thumb/interwork\libm.a(lib_a-k_tan.o)
 .debug_abbrev  0x0000265c       0xd7 c:/espardino_tmp/bin/../lib/gcc/arm-elf/4.4.0/../../../../arm-elf/lib/thumb/interwork\libm.a(lib_a-s_copysign.o)
 .debug_abbrev  0x00002733      0x166 c:/espardino_tmp/bin/../lib/gcc/arm-elf/4.4.0/../../../../arm-elf/lib/thumb/interwork\libm.a(lib_a-s_expm1.o)
 .debug_abbrev  0x00002899       0xce c:/espardino_tmp/bin/../lib/gcc/arm-elf/4.4.0/../../../../arm-elf/lib/thumb/interwork\libm.a(lib_a-s_finite.o)
 .debug_abbrev  0x00002967       0x73 c:/espardino_tmp/bin/../lib/gcc/arm-elf/4.4.0/../../../../arm-elf/lib/thumb/interwork\libm.a(lib_a-s_isnand.o)
 .debug_abbrev  0x000029da       0x5c c:/espardino_tmp/bin/../lib/gcc/arm-elf/4.4.0/../../../../arm-elf/lib/thumb/interwork\libm.a(lib_a-s_lib_ver.o)
 .debug_abbrev  0x00002a36       0x9e c:/espardino_tmp/bin/../lib/gcc/arm-elf/4.4.0/../../../../arm-elf/lib/thumb/interwork\libm.a(lib_a-s_matherr.o)
 .debug_abbrev  0x00002ad4       0x76 c:/espardino_tmp/bin/../lib/gcc/arm-elf/4.4.0/../../../../arm-elf/lib/thumb/interwork\libm.a(lib_a-s_nan.o)
 .debug_abbrev  0x00002b4a      0x115 c:/espardino_tmp/bin/../lib/gcc/arm-elf/4.4.0/../../../../arm-elf/lib/thumb/interwork\libm.a(lib_a-s_rint.o)
 .debug_abbrev  0x00002c5f       0x14 c:/espardino_tmp/bin/../lib/gcc/arm-elf/4.4.0/thumb/interwork\libgcc.a(_udivsi3.o)
 .debug_abbrev  0x00002c73       0x14 c:/espardino_tmp/bin/../lib/gcc/arm-elf/4.4.0/thumb/interwork\libgcc.a(_divsi3.o)
 .debug_abbrev  0x00002c87       0x14 c:/espardino_tmp/bin/../lib/gcc/arm-elf/4.4.0/thumb/interwork\libgcc.a(_umodsi3.o)
 .debug_abbrev  0x00002c9b       0x14 c:/espardino_tmp/bin/../lib/gcc/arm-elf/4.4.0/thumb/interwork\libgcc.a(_modsi3.o)
 .debug_abbrev  0x00002caf       0x14 c:/espardino_tmp/bin/../lib/gcc/arm-elf/4.4.0/thumb/interwork\libgcc.a(_dvmd_tls.o)
 .debug_abbrev  0x00002cc3       0x14 c:/espardino_tmp/bin/../lib/gcc/arm-elf/4.4.0/thumb/interwork\libgcc.a(_arm_muldivdf3.o)
 .debug_abbrev  0x00002cd7       0x14 c:/espardino_tmp/bin/../lib/gcc/arm-elf/4.4.0/thumb/interwork\libgcc.a(_arm_cmpdf2.o)
 .debug_abbrev  0x00002ceb       0x14 c:/espardino_tmp/bin/../lib/gcc/arm-elf/4.4.0/thumb/interwork\libgcc.a(_arm_fixdfsi.o)
 .debug_abbrev  0x00002cff       0x14 c:/espardino_tmp/bin/../lib/gcc/arm-elf/4.4.0/thumb/interwork\libgcc.a(_arm_fixunsdfsi.o)
 .debug_abbrev  0x00002d13       0x5b c:/espardino_tmp/bin/../lib/gcc/arm-elf/4.4.0/../../../../arm-elf/lib/thumb/interwork\libg.a(lib_a-ctype_.o)
 .debug_abbrev  0x00002d6e      0x168 c:/espardino_tmp/bin/../lib/gcc/arm-elf/4.4.0/../../../../arm-elf/lib/thumb/interwork\libg.a(lib_a-errno.o)
 .debug_abbrev  0x00002ed6      0x160 c:/espardino_tmp/bin/../lib/gcc/arm-elf/4.4.0/../../../../arm-elf/lib/thumb/interwork\libg.a(lib_a-impure.o)
 .debug_abbrev  0x00003036      0x228 c:/espardino_tmp/bin/../lib/gcc/arm-elf/4.4.0/../../../../arm-elf/lib/thumb/interwork\libg.a(lib_a-locale.o)
 .debug_abbrev  0x0000325e      0x190 c:/espardino_tmp/bin/../lib/gcc/arm-elf/4.4.0/../../../../arm-elf/lib/thumb/interwork\libg.a(lib_a-malloc.o)
 .debug_abbrev  0x000033ee      0x22a c:/espardino_tmp/bin/../lib/gcc/arm-elf/4.4.0/../../../../arm-elf/lib/thumb/interwork\libg.a(lib_a-mallocr.o)
 .debug_abbrev  0x00003618       0x85 c:/espardino_tmp/bin/../lib/gcc/arm-elf/4.4.0/../../../../arm-elf/lib/thumb/interwork\libg.a(lib_a-memcmp.o)
 .debug_abbrev  0x0000369d       0xa2 c:/espardino_tmp/bin/../lib/gcc/arm-elf/4.4.0/../../../../arm-elf/lib/thumb/interwork\libg.a(lib_a-memcpy.o)
 .debug_abbrev  0x0000373f      0x173 c:/espardino_tmp/bin/../lib/gcc/arm-elf/4.4.0/../../../../arm-elf/lib/thumb/interwork\libg.a(lib_a-mlock.o)
 .debug_abbrev  0x000038b2      0x18e c:/espardino_tmp/bin/../lib/gcc/arm-elf/4.4.0/../../../../arm-elf/lib/thumb/interwork\libg.a(lib_a-rand.o)
 .debug_abbrev  0x00003a40      0x188 c:/espardino_tmp/bin/../lib/gcc/arm-elf/4.4.0/../../../../arm-elf/lib/thumb/interwork\libg.a(lib_a-realloc.o)
 .debug_abbrev  0x00003bc8      0x1ef c:/espardino_tmp/bin/../lib/gcc/arm-elf/4.4.0/../../../../arm-elf/lib/thumb/interwork\libg.a(lib_a-reallocr.o)
 .debug_abbrev  0x00003db7      0x197 c:/espardino_tmp/bin/../lib/gcc/arm-elf/4.4.0/../../../../arm-elf/lib/thumb/interwork\libg.a(lib_a-sbrkr.o)
 .debug_abbrev  0x00003f4e       0x90 c:/espardino_tmp/bin/../lib/gcc/arm-elf/4.4.0/../../../../arm-elf/lib/thumb/interwork\libg.a(lib_a-strcat.o)
 .debug_abbrev  0x00003fde       0x96 c:/espardino_tmp/bin/../lib/gcc/arm-elf/4.4.0/../../../../arm-elf/lib/thumb/interwork\libg.a(lib_a-strchr.o)
 .debug_abbrev  0x00004074       0x7a c:/espardino_tmp/bin/../lib/gcc/arm-elf/4.4.0/../../../../arm-elf/lib/thumb/interwork\libg.a(lib_a-strcmp.o)
 .debug_abbrev  0x000040ee       0x69 c:/espardino_tmp/bin/../lib/gcc/arm-elf/4.4.0/../../../../arm-elf/lib/thumb/interwork\libg.a(lib_a-strcoll.o)
 .debug_abbrev  0x00004157       0x98 c:/espardino_tmp/bin/../lib/gcc/arm-elf/4.4.0/../../../../arm-elf/lib/thumb/interwork\libg.a(lib_a-strcpy.o)
 .debug_abbrev  0x000041ef       0xa1 c:/espardino_tmp/bin/../lib/gcc/arm-elf/4.4.0/../../../../arm-elf/lib/thumb/interwork\libg.a(lib_a-strcspn.o)
 .debug_abbrev  0x00004290       0x94 c:/espardino_tmp/bin/../lib/gcc/arm-elf/4.4.0/../../../../arm-elf/lib/thumb/interwork\libg.a(lib_a-strlen.o)
 .debug_abbrev  0x00004324       0xac c:/espardino_tmp/bin/../lib/gcc/arm-elf/4.4.0/../../../../arm-elf/lib/thumb/interwork\libg.a(lib_a-strncat.o)
 .debug_abbrev  0x000043d0       0xa5 c:/espardino_tmp/bin/../lib/gcc/arm-elf/4.4.0/../../../../arm-elf/lib/thumb/interwork\libg.a(lib_a-strncpy.o)
 .debug_abbrev  0x00004475      0x194 c:/espardino_tmp/bin/../lib/gcc/arm-elf/4.4.0/../../../../arm-elf/lib/thumb/interwork\libg.a(lib_a-strstr.o)
 .debug_abbrev  0x00004609      0x30f c:/espardino_tmp/bin/../lib/gcc/arm-elf/4.4.0/../../../../arm-elf/lib/thumb/interwork\libg.a(lib_a-strtod.o)
 .debug_abbrev  0x00004918      0x1d3 c:/espardino_tmp/bin/../lib/gcc/arm-elf/4.4.0/../../../../arm-elf/lib/thumb/interwork\libg.a(lib_a-strtoul.o)
 .debug_abbrev  0x00004aeb      0x3fc c:/espardino_tmp/bin/../lib/gcc/arm-elf/4.4.0/../../../../arm-elf/lib/thumb/interwork\libg.a(lib_a-syscalls.o)
 .debug_abbrev  0x00004ee7      0x1b7 c:/espardino_tmp/bin/../lib/gcc/arm-elf/4.4.0/../../../../arm-elf/lib/thumb/interwork\libg.a(lib_a-tmpfile.o)
 .debug_abbrev  0x0000509e      0x1ea c:/espardino_tmp/bin/../lib/gcc/arm-elf/4.4.0/../../../../arm-elf/lib/thumb/interwork\libg.a(lib_a-tmpnam.o)
 .debug_abbrev  0x00005288      0x188 c:/espardino_tmp/bin/../lib/gcc/arm-elf/4.4.0/../../../../arm-elf/lib/thumb/interwork\libg.a(lib_a-closer.o)
 .debug_abbrev  0x00005410      0x1b5 c:/espardino_tmp/bin/../lib/gcc/arm-elf/4.4.0/../../../../arm-elf/lib/thumb/interwork\libg.a(lib_a-fdopen.o)
 .debug_abbrev  0x000055c5      0x24d c:/espardino_tmp/bin/../lib/gcc/arm-elf/4.4.0/../../../../arm-elf/lib/thumb/interwork\libg.a(lib_a-findfp.o)
 .debug_abbrev  0x00005812      0x195 c:/espardino_tmp/bin/../lib/gcc/arm-elf/4.4.0/../../../../arm-elf/lib/thumb/interwork\libg.a(lib_a-flags.o)
 .debug_abbrev  0x000059a7      0x1e2 c:/espardino_tmp/bin/../lib/gcc/arm-elf/4.4.0/../../../../arm-elf/lib/thumb/interwork\libg.a(lib_a-freer.o)
 .debug_abbrev  0x00005b89      0x1ee c:/espardino_tmp/bin/../lib/gcc/arm-elf/4.4.0/../../../../arm-elf/lib/thumb/interwork\libg.a(lib_a-fwalk.o)
 .debug_abbrev  0x00005d77      0x2e8 c:/espardino_tmp/bin/../lib/gcc/arm-elf/4.4.0/../../../../arm-elf/lib/thumb/interwork\libg.a(lib_a-gdtoa-gethex.o)
 .debug_abbrev  0x0000605f      0x172 c:/espardino_tmp/bin/../lib/gcc/arm-elf/4.4.0/../../../../arm-elf/lib/thumb/interwork\libg.a(lib_a-gdtoa-hexnan.o)
 .debug_abbrev  0x000061d1      0x188 c:/espardino_tmp/bin/../lib/gcc/arm-elf/4.4.0/../../../../arm-elf/lib/thumb/interwork\libg.a(lib_a-getenv.o)
 .debug_abbrev  0x00006359      0x1b3 c:/espardino_tmp/bin/../lib/gcc/arm-elf/4.4.0/../../../../arm-elf/lib/thumb/interwork\libg.a(lib_a-getenv_r.o)
 .debug_abbrev  0x0000650c       0xcd c:/espardino_tmp/bin/../lib/gcc/arm-elf/4.4.0/../../../../arm-elf/lib/thumb/interwork\libg.a(lib_a-memchr.o)
 .debug_abbrev  0x000065d9       0xa2 c:/espardino_tmp/bin/../lib/gcc/arm-elf/4.4.0/../../../../arm-elf/lib/thumb/interwork\libg.a(lib_a-memmove.o)
 .debug_abbrev  0x0000667b       0xa3 c:/espardino_tmp/bin/../lib/gcc/arm-elf/4.4.0/../../../../arm-elf/lib/thumb/interwork\libg.a(lib_a-memset.o)
 .debug_abbrev  0x0000671e      0x331 c:/espardino_tmp/bin/../lib/gcc/arm-elf/4.4.0/../../../../arm-elf/lib/thumb/interwork\libg.a(lib_a-mprec.o)
 .debug_abbrev  0x00006a4f      0x197 c:/espardino_tmp/bin/../lib/gcc/arm-elf/4.4.0/../../../../arm-elf/lib/thumb/interwork\libg.a(lib_a-openr.o)
 .debug_abbrev  0x00006be6      0x1fa c:/espardino_tmp/bin/../lib/gcc/arm-elf/4.4.0/../../../../arm-elf/lib/thumb/interwork\libg.a(lib_a-reent.o)
 .debug_abbrev  0x00006de0      0x1a1 c:/espardino_tmp/bin/../lib/gcc/arm-elf/4.4.0/../../../../arm-elf/lib/thumb/interwork\libg.a(lib_a-remove.o)
 .debug_abbrev  0x00006f81       0x76 c:/espardino_tmp/bin/../lib/gcc/arm-elf/4.4.0/../../../../arm-elf/lib/thumb/interwork\libg.a(lib_a-sf_nan.o)
 .debug_abbrev  0x00006ff7      0x197 c:/espardino_tmp/bin/../lib/gcc/arm-elf/4.4.0/../../../../arm-elf/lib/thumb/interwork\libg.a(lib_a-signalr.o)
 .debug_abbrev  0x0000718e      0x1be c:/espardino_tmp/bin/../lib/gcc/arm-elf/4.4.0/../../../../arm-elf/lib/thumb/interwork\libg.a(lib_a-sprintf.o)
 .debug_abbrev  0x0000734c      0x1b9 c:/espardino_tmp/bin/../lib/gcc/arm-elf/4.4.0/../../../../arm-elf/lib/thumb/interwork\libg.a(lib_a-stdio.o)
 .debug_abbrev  0x00007505       0x96 c:/espardino_tmp/bin/../lib/gcc/arm-elf/4.4.0/../../../../arm-elf/lib/thumb/interwork\libg.a(lib_a-strncmp.o)
 .debug_abbrev  0x0000759b      0x327 c:/espardino_tmp/bin/../lib/gcc/arm-elf/4.4.0/../../../../arm-elf/lib/thumb/interwork\libg.a(lib_a-svfprintf.o)
 .debug_abbrev  0x000078c2      0x197 c:/espardino_tmp/bin/../lib/gcc/arm-elf/4.4.0/../../../../arm-elf/lib/thumb/interwork\libg.a(lib_a-unlinkr.o)
 .debug_abbrev  0x00007a59      0x18d c:/espardino_tmp/bin/../lib/gcc/arm-elf/4.4.0/../../../../arm-elf/lib/thumb/interwork\libg.a(lib_a-writer.o)
 .debug_abbrev  0x00007be6      0x1c1 c:/espardino_tmp/bin/../lib/gcc/arm-elf/4.4.0/../../../../arm-elf/lib/thumb/interwork\libg.a(lib_a-callocr.o)
 .debug_abbrev  0x00007da7      0x23b c:/espardino_tmp/bin/../lib/gcc/arm-elf/4.4.0/../../../../arm-elf/lib/thumb/interwork\libg.a(lib_a-dtoa.o)
 .debug_abbrev  0x00007fe2       0x63 c:/espardino_tmp/bin/../lib/gcc/arm-elf/4.4.0/../../../../arm-elf/lib/thumb/interwork\libg.a(lib_a-environ.o)
 .debug_abbrev  0x00008045      0x175 c:/espardino_tmp/bin/../lib/gcc/arm-elf/4.4.0/../../../../arm-elf/lib/thumb/interwork\libg.a(lib_a-envlock.o)
 .debug_abbrev  0x000081ba      0x1b0 c:/espardino_tmp/bin/../lib/gcc/arm-elf/4.4.0/../../../../arm-elf/lib/thumb/interwork\libg.a(lib_a-fclose.o)
 .debug_abbrev  0x0000836a      0x1cd c:/espardino_tmp/bin/../lib/gcc/arm-elf/4.4.0/../../../../arm-elf/lib/thumb/interwork\libg.a(lib_a-fflush.o)
 .debug_abbrev  0x00008537      0x197 c:/espardino_tmp/bin/../lib/gcc/arm-elf/4.4.0/../../../../arm-elf/lib/thumb/interwork\libg.a(lib_a-lseekr.o)
 .debug_abbrev  0x000086ce      0x188 c:/espardino_tmp/bin/../lib/gcc/arm-elf/4.4.0/../../../../arm-elf/lib/thumb/interwork\libg.a(lib_a-readr.o)
 .debug_abbrev  0x00008856       0x82 c:/espardino_tmp/bin/../lib/gcc/arm-elf/4.4.0/../../../../arm-elf/lib/thumb/interwork\libg.a(lib_a-s_isinfd.o)
 .debug_abbrev  0x000088d8       0x14 c:/espardino_tmp/bin/../lib/gcc/arm-elf/4.4.0/thumb/interwork\libgcc.a(_arm_truncdfsf2.o)
 .debug_abbrev  0x000088ec       0xf5 c:/espardino_tmp/bin/../lib/gcc/arm-elf/4.4.0/thumb/interwork\libgcc.a(_muldi3.o)

.debug_line     0x00000000     0x98d3
 *(.debug_line)
 .debug_line    0x00000000       0x95 startup.o
 .debug_line    0x00000095      0x12e main.o
 .debug_line    0x000001c3      0x178 c:/espardino_tmp/bin/../lib/gcc/arm-elf/4.4.0/thumb/interwork\libgcc.a(_arm_addsubdf3.o)
 .debug_line    0x0000033b      0x177 c:/espardino_tmp/bin/../lib/gcc/arm-elf/4.4.0/../../../../arm-elf/lib/thumb/interwork\libm.a(lib_a-s_atan.o)
 .debug_line    0x000004b2      0x164 c:/espardino_tmp/bin/../lib/gcc/arm-elf/4.4.0/../../../../arm-elf/lib/thumb/interwork\libm.a(lib_a-s_ceil.o)
 .debug_line    0x00000616      0x108 c:/espardino_tmp/bin/../lib/gcc/arm-elf/4.4.0/../../../../arm-elf/lib/thumb/interwork\libm.a(lib_a-s_cos.o)
 .debug_line    0x0000071e      0x137 c:/espardino_tmp/bin/../lib/gcc/arm-elf/4.4.0/../../../../arm-elf/lib/thumb/interwork\libm.a(lib_a-s_fabs.o)
 .debug_line    0x00000855      0x168 c:/espardino_tmp/bin/../lib/gcc/arm-elf/4.4.0/../../../../arm-elf/lib/thumb/interwork\libm.a(lib_a-s_floor.o)
 .debug_line    0x000009bd      0x148 c:/espardino_tmp/bin/../lib/gcc/arm-elf/4.4.0/../../../../arm-elf/lib/thumb/interwork\libm.a(lib_a-s_frexp.o)
 .debug_line    0x00000b05       0xa8 c:/espardino_tmp/bin/../lib/gcc/arm-elf/4.4.0/../../../../arm-elf/lib/thumb/interwork\libm.a(lib_a-s_ldexp.o)
 .debug_line    0x00000bad      0x114 c:/espardino_tmp/bin/../lib/gcc/arm-elf/4.4.0/../../../../arm-elf/lib/thumb/interwork\libm.a(lib_a-s_modf.o)
 .debug_line    0x00000cc1      0x11f c:/espardino_tmp/bin/../lib/gcc/arm-elf/4.4.0/../../../../arm-elf/lib/thumb/interwork\libm.a(lib_a-s_scalbn.o)
 .debug_line    0x00000de0      0x109 c:/espardino_tmp/bin/../lib/gcc/arm-elf/4.4.0/../../../../arm-elf/lib/thumb/interwork\libm.a(lib_a-s_sin.o)
 .debug_line    0x00000ee9       0xff c:/espardino_tmp/bin/../lib/gcc/arm-elf/4.4.0/../../../../arm-elf/lib/thumb/interwork\libm.a(lib_a-s_tan.o)
 .debug_line    0x00000fe8      0x153 c:/espardino_tmp/bin/../lib/gcc/arm-elf/4.4.0/../../../../arm-elf/lib/thumb/interwork\libm.a(lib_a-s_tanh.o)
 .debug_line    0x0000113b       0xbc c:/espardino_tmp/bin/../lib/gcc/arm-elf/4.4.0/../../../../arm-elf/lib/thumb/interwork\libm.a(lib_a-w_acos.o)
 .debug_line    0x000011f7       0xbc c:/espardino_tmp/bin/../lib/gcc/arm-elf/4.4.0/../../../../arm-elf/lib/thumb/interwork\libm.a(lib_a-w_asin.o)
 .debug_line    0x000012b3       0xa5 c:/espardino_tmp/bin/../lib/gcc/arm-elf/4.4.0/../../../../arm-elf/lib/thumb/interwork\libm.a(lib_a-w_atan2.o)
 .debug_line    0x00001358       0xbf c:/espardino_tmp/bin/../lib/gcc/arm-elf/4.4.0/../../../../arm-elf/lib/thumb/interwork\libm.a(lib_a-w_cosh.o)
 .debug_line    0x00001417       0xc9 c:/espardino_tmp/bin/../lib/gcc/arm-elf/4.4.0/../../../../arm-elf/lib/thumb/interwork\libm.a(lib_a-w_exp.o)
 .debug_line    0x000014e0       0xc2 c:/espardino_tmp/bin/../lib/gcc/arm-elf/4.4.0/../../../../arm-elf/lib/thumb/interwork\libm.a(lib_a-w_fmod.o)
 .debug_line    0x000015a2       0xc6 c:/espardino_tmp/bin/../lib/gcc/arm-elf/4.4.0/../../../../arm-elf/lib/thumb/interwork\libm.a(lib_a-w_log.o)
 .debug_line    0x00001668       0xc8 c:/espardino_tmp/bin/../lib/gcc/arm-elf/4.4.0/../../../../arm-elf/lib/thumb/interwork\libm.a(lib_a-w_log10.o)
 .debug_line    0x00001730      0x141 c:/espardino_tmp/bin/../lib/gcc/arm-elf/4.4.0/../../../../arm-elf/lib/thumb/interwork\libm.a(lib_a-w_pow.o)
 .debug_line    0x00001871       0xc5 c:/espardino_tmp/bin/../lib/gcc/arm-elf/4.4.0/../../../../arm-elf/lib/thumb/interwork\libm.a(lib_a-w_sinh.o)
 .debug_line    0x00001936       0xb9 c:/espardino_tmp/bin/../lib/gcc/arm-elf/4.4.0/../../../../arm-elf/lib/thumb/interwork\libm.a(lib_a-w_sqrt.o)
 .debug_line    0x000019ef      0x136 c:/espardino_tmp/bin/../lib/gcc/arm-elf/4.4.0/../../../../arm-elf/lib/thumb/interwork\libm.a(lib_a-e_acos.o)
 .debug_line    0x00001b25      0x13f c:/espardino_tmp/bin/../lib/gcc/arm-elf/4.4.0/../../../../arm-elf/lib/thumb/interwork\libm.a(lib_a-e_asin.o)
 .debug_line    0x00001c64      0x14f c:/espardino_tmp/bin/../lib/gcc/arm-elf/4.4.0/../../../../arm-elf/lib/thumb/interwork\libm.a(lib_a-e_atan2.o)
 .debug_line    0x00001db3       0xe8 c:/espardino_tmp/bin/../lib/gcc/arm-elf/4.4.0/../../../../arm-elf/lib/thumb/interwork\libm.a(lib_a-e_cosh.o)
 .debug_line    0x00001e9b      0x146 c:/espardino_tmp/bin/../lib/gcc/arm-elf/4.4.0/../../../../arm-elf/lib/thumb/interwork\libm.a(lib_a-e_exp.o)
 .debug_line    0x00001fe1      0x177 c:/espardino_tmp/bin/../lib/gcc/arm-elf/4.4.0/../../../../arm-elf/lib/thumb/interwork\libm.a(lib_a-e_fmod.o)
 .debug_line    0x00002158      0x15e c:/espardino_tmp/bin/../lib/gcc/arm-elf/4.4.0/../../../../arm-elf/lib/thumb/interwork\libm.a(lib_a-e_log.o)
 .debug_line    0x000022b6      0x12a c:/espardino_tmp/bin/../lib/gcc/arm-elf/4.4.0/../../../../arm-elf/lib/thumb/interwork\libm.a(lib_a-e_log10.o)
 .debug_line    0x000023e0      0x245 c:/espardino_tmp/bin/../lib/gcc/arm-elf/4.4.0/../../../../arm-elf/lib/thumb/interwork\libm.a(lib_a-e_pow.o)
 .debug_line    0x00002625      0x17d c:/espardino_tmp/bin/../lib/gcc/arm-elf/4.4.0/../../../../arm-elf/lib/thumb/interwork\libm.a(lib_a-e_rem_pio2.o)
 .debug_line    0x000027a2       0xe1 c:/espardino_tmp/bin/../lib/gcc/arm-elf/4.4.0/../../../../arm-elf/lib/thumb/interwork\libm.a(lib_a-e_sinh.o)
 .debug_line    0x00002883      0x181 c:/espardino_tmp/bin/../lib/gcc/arm-elf/4.4.0/../../../../arm-elf/lib/thumb/interwork\libm.a(lib_a-e_sqrt.o)
 .debug_line    0x00002a04      0x121 c:/espardino_tmp/bin/../lib/gcc/arm-elf/4.4.0/../../../../arm-elf/lib/thumb/interwork\libm.a(lib_a-k_cos.o)
 .debug_line    0x00002b25      0x280 c:/espardino_tmp/bin/../lib/gcc/arm-elf/4.4.0/../../../../arm-elf/lib/thumb/interwork\libm.a(lib_a-k_rem_pio2.o)
 .debug_line    0x00002da5      0x115 c:/espardino_tmp/bin/../lib/gcc/arm-elf/4.4.0/../../../../arm-elf/lib/thumb/interwork\libm.a(lib_a-k_sin.o)
 .debug_line    0x00002eba      0x13f c:/espardino_tmp/bin/../lib/gcc/arm-elf/4.4.0/../../../../arm-elf/lib/thumb/interwork\libm.a(lib_a-k_tan.o)
 .debug_line    0x00002ff9       0xff c:/espardino_tmp/bin/../lib/gcc/arm-elf/4.4.0/../../../../arm-elf/lib/thumb/interwork\libm.a(lib_a-s_copysign.o)
 .debug_line    0x000030f8      0x171 c:/espardino_tmp/bin/../lib/gcc/arm-elf/4.4.0/../../../../arm-elf/lib/thumb/interwork\libm.a(lib_a-s_expm1.o)
 .debug_line    0x00003269       0xf9 c:/espardino_tmp/bin/../lib/gcc/arm-elf/4.4.0/../../../../arm-elf/lib/thumb/interwork\libm.a(lib_a-s_finite.o)
 .debug_line    0x00003362       0xee c:/espardino_tmp/bin/../lib/gcc/arm-elf/4.4.0/../../../../arm-elf/lib/thumb/interwork\libm.a(lib_a-s_isnand.o)
 .debug_line    0x00003450       0x52 c:/espardino_tmp/bin/../lib/gcc/arm-elf/4.4.0/../../../../arm-elf/lib/thumb/interwork\libm.a(lib_a-s_lib_ver.o)
 .debug_line    0x000034a2       0xa7 c:/espardino_tmp/bin/../lib/gcc/arm-elf/4.4.0/../../../../arm-elf/lib/thumb/interwork\libm.a(lib_a-s_matherr.o)
 .debug_line    0x00003549       0xa2 c:/espardino_tmp/bin/../lib/gcc/arm-elf/4.4.0/../../../../arm-elf/lib/thumb/interwork\libm.a(lib_a-s_nan.o)
 .debug_line    0x000035eb      0x133 c:/espardino_tmp/bin/../lib/gcc/arm-elf/4.4.0/../../../../arm-elf/lib/thumb/interwork\libm.a(lib_a-s_rint.o)
 .debug_line    0x0000371e       0x86 c:/espardino_tmp/bin/../lib/gcc/arm-elf/4.4.0/thumb/interwork\libgcc.a(_udivsi3.o)
 .debug_line    0x000037a4       0x92 c:/espardino_tmp/bin/../lib/gcc/arm-elf/4.4.0/thumb/interwork\libgcc.a(_divsi3.o)
 .debug_line    0x00003836       0x7e c:/espardino_tmp/bin/../lib/gcc/arm-elf/4.4.0/thumb/interwork\libgcc.a(_umodsi3.o)
 .debug_line    0x000038b4       0x87 c:/espardino_tmp/bin/../lib/gcc/arm-elf/4.4.0/thumb/interwork\libgcc.a(_modsi3.o)
 .debug_line    0x0000393b       0x70 c:/espardino_tmp/bin/../lib/gcc/arm-elf/4.4.0/thumb/interwork\libgcc.a(_dvmd_tls.o)
 .debug_line    0x000039ab      0x18d c:/espardino_tmp/bin/../lib/gcc/arm-elf/4.4.0/thumb/interwork\libgcc.a(_arm_muldivdf3.o)
 .debug_line    0x00003b38       0xba c:/espardino_tmp/bin/../lib/gcc/arm-elf/4.4.0/thumb/interwork\libgcc.a(_arm_cmpdf2.o)
 .debug_line    0x00003bf2       0x85 c:/espardino_tmp/bin/../lib/gcc/arm-elf/4.4.0/thumb/interwork\libgcc.a(_arm_fixdfsi.o)
 .debug_line    0x00003c77       0x83 c:/espardino_tmp/bin/../lib/gcc/arm-elf/4.4.0/thumb/interwork\libgcc.a(_arm_fixunsdfsi.o)
 .debug_line    0x00003cfa       0x94 c:/espardino_tmp/bin/../lib/gcc/arm-elf/4.4.0/../../../../arm-elf/lib/thumb/interwork\libg.a(lib_a-ctype_.o)
 .debug_line    0x00003d8e      0x102 c:/espardino_tmp/bin/../lib/gcc/arm-elf/4.4.0/../../../../arm-elf/lib/thumb/interwork\libg.a(lib_a-errno.o)
 .debug_line    0x00003e90       0xe7 c:/espardino_tmp/bin/../lib/gcc/arm-elf/4.4.0/../../../../arm-elf/lib/thumb/interwork\libg.a(lib_a-impure.o)
 .debug_line    0x00003f77      0x152 c:/espardino_tmp/bin/../lib/gcc/arm-elf/4.4.0/../../../../arm-elf/lib/thumb/interwork\libg.a(lib_a-locale.o)
 .debug_line    0x000040c9      0x13a c:/espardino_tmp/bin/../lib/gcc/arm-elf/4.4.0/../../../../arm-elf/lib/thumb/interwork\libg.a(lib_a-malloc.o)
 .debug_line    0x00004203      0x258 c:/espardino_tmp/bin/../lib/gcc/arm-elf/4.4.0/../../../../arm-elf/lib/thumb/interwork\libg.a(lib_a-mallocr.o)
 .debug_line    0x0000445b       0xfb c:/espardino_tmp/bin/../lib/gcc/arm-elf/4.4.0/../../../../arm-elf/lib/thumb/interwork\libg.a(lib_a-memcmp.o)
 .debug_line    0x00004556      0x126 c:/espardino_tmp/bin/../lib/gcc/arm-elf/4.4.0/../../../../arm-elf/lib/thumb/interwork\libg.a(lib_a-memcpy.o)
 .debug_line    0x0000467c       0xf9 c:/espardino_tmp/bin/../lib/gcc/arm-elf/4.4.0/../../../../arm-elf/lib/thumb/interwork\libg.a(lib_a-mlock.o)
 .debug_line    0x00004775      0x132 c:/espardino_tmp/bin/../lib/gcc/arm-elf/4.4.0/../../../../arm-elf/lib/thumb/interwork\libg.a(lib_a-rand.o)
 .debug_line    0x000048a7      0x134 c:/espardino_tmp/bin/../lib/gcc/arm-elf/4.4.0/../../../../arm-elf/lib/thumb/interwork\libg.a(lib_a-realloc.o)
 .debug_line    0x000049db      0x193 c:/espardino_tmp/bin/../lib/gcc/arm-elf/4.4.0/../../../../arm-elf/lib/thumb/interwork\libg.a(lib_a-reallocr.o)
 .debug_line    0x00004b6e      0x132 c:/espardino_tmp/bin/../lib/gcc/arm-elf/4.4.0/../../../../arm-elf/lib/thumb/interwork\libg.a(lib_a-sbrkr.o)
 .debug_line    0x00004ca0       0xb5 c:/espardino_tmp/bin/../lib/gcc/arm-elf/4.4.0/../../../../arm-elf/lib/thumb/interwork\libg.a(lib_a-strcat.o)
 .debug_line    0x00004d55       0xd3 c:/espardino_tmp/bin/../lib/gcc/arm-elf/4.4.0/../../../../arm-elf/lib/thumb/interwork\libg.a(lib_a-strchr.o)
 .debug_line    0x00004e28       0xb9 c:/espardino_tmp/bin/../lib/gcc/arm-elf/4.4.0/../../../../arm-elf/lib/thumb/interwork\libg.a(lib_a-strcmp.o)
 .debug_line    0x00004ee1       0xa8 c:/espardino_tmp/bin/../lib/gcc/arm-elf/4.4.0/../../../../arm-elf/lib/thumb/interwork\libg.a(lib_a-strcoll.o)
 .debug_line    0x00004f89       0xb5 c:/espardino_tmp/bin/../lib/gcc/arm-elf/4.4.0/../../../../arm-elf/lib/thumb/interwork\libg.a(lib_a-strcpy.o)
 .debug_line    0x0000503e       0xee c:/espardino_tmp/bin/../lib/gcc/arm-elf/4.4.0/../../../../arm-elf/lib/thumb/interwork\libg.a(lib_a-strcspn.o)
 .debug_line    0x0000512c       0xf5 c:/espardino_tmp/bin/../lib/gcc/arm-elf/4.4.0/../../../../arm-elf/lib/thumb/interwork\libg.a(lib_a-strlen.o)
 .debug_line    0x00005221       0xf8 c:/espardino_tmp/bin/../lib/gcc/arm-elf/4.4.0/../../../../arm-elf/lib/thumb/interwork\libg.a(lib_a-strncat.o)
 .debug_line    0x00005319       0xfb c:/espardino_tmp/bin/../lib/gcc/arm-elf/4.4.0/../../../../arm-elf/lib/thumb/interwork\libg.a(lib_a-strncpy.o)
 .debug_line    0x00005414      0x32c c:/espardino_tmp/bin/../lib/gcc/arm-elf/4.4.0/../../../../arm-elf/lib/thumb/interwork\libg.a(lib_a-strstr.o)
 .debug_line    0x00005740      0x485 c:/espardino_tmp/bin/../lib/gcc/arm-elf/4.4.0/../../../../arm-elf/lib/thumb/interwork\libg.a(lib_a-strtod.o)
 .debug_line    0x00005bc5      0x189 c:/espardino_tmp/bin/../lib/gcc/arm-elf/4.4.0/../../../../arm-elf/lib/thumb/interwork\libg.a(lib_a-strtoul.o)
 .debug_line    0x00005d4e      0x38c c:/espardino_tmp/bin/../lib/gcc/arm-elf/4.4.0/../../../../arm-elf/lib/thumb/interwork\libg.a(lib_a-syscalls.o)
 .debug_line    0x000060da      0x147 c:/espardino_tmp/bin/../lib/gcc/arm-elf/4.4.0/../../../../arm-elf/lib/thumb/interwork\libg.a(lib_a-tmpfile.o)
 .debug_line    0x00006221      0x16e c:/espardino_tmp/bin/../lib/gcc/arm-elf/4.4.0/../../../../arm-elf/lib/thumb/interwork\libg.a(lib_a-tmpnam.o)
 .debug_line    0x0000638f      0x133 c:/espardino_tmp/bin/../lib/gcc/arm-elf/4.4.0/../../../../arm-elf/lib/thumb/interwork\libg.a(lib_a-closer.o)
 .debug_line    0x000064c2      0x154 c:/espardino_tmp/bin/../lib/gcc/arm-elf/4.4.0/../../../../arm-elf/lib/thumb/interwork\libg.a(lib_a-fdopen.o)
 .debug_line    0x00006616      0x1b8 c:/espardino_tmp/bin/../lib/gcc/arm-elf/4.4.0/../../../../arm-elf/lib/thumb/interwork\libg.a(lib_a-findfp.o)
 .debug_line    0x000067ce      0x116 c:/espardino_tmp/bin/../lib/gcc/arm-elf/4.4.0/../../../../arm-elf/lib/thumb/interwork\libg.a(lib_a-flags.o)
 .debug_line    0x000068e4      0x16c c:/espardino_tmp/bin/../lib/gcc/arm-elf/4.4.0/../../../../arm-elf/lib/thumb/interwork\libg.a(lib_a-freer.o)
 .debug_line    0x00006a50      0x153 c:/espardino_tmp/bin/../lib/gcc/arm-elf/4.4.0/../../../../arm-elf/lib/thumb/interwork\libg.a(lib_a-fwalk.o)
 .debug_line    0x00006ba3      0x2c8 c:/espardino_tmp/bin/../lib/gcc/arm-elf/4.4.0/../../../../arm-elf/lib/thumb/interwork\libg.a(lib_a-gdtoa-gethex.o)
 .debug_line    0x00006e6b      0x129 c:/espardino_tmp/bin/../lib/gcc/arm-elf/4.4.0/../../../../arm-elf/lib/thumb/interwork\libg.a(lib_a-gdtoa-hexnan.o)
 .debug_line    0x00006f94      0x13c c:/espardino_tmp/bin/../lib/gcc/arm-elf/4.4.0/../../../../arm-elf/lib/thumb/interwork\libg.a(lib_a-getenv.o)
 .debug_line    0x000070d0      0x14f c:/espardino_tmp/bin/../lib/gcc/arm-elf/4.4.0/../../../../arm-elf/lib/thumb/interwork\libg.a(lib_a-getenv_r.o)
 .debug_line    0x0000721f      0x105 c:/espardino_tmp/bin/../lib/gcc/arm-elf/4.4.0/../../../../arm-elf/lib/thumb/interwork\libg.a(lib_a-memchr.o)
 .debug_line    0x00007324      0x134 c:/espardino_tmp/bin/../lib/gcc/arm-elf/4.4.0/../../../../arm-elf/lib/thumb/interwork\libg.a(lib_a-memmove.o)
 .debug_line    0x00007458      0x121 c:/espardino_tmp/bin/../lib/gcc/arm-elf/4.4.0/../../../../arm-elf/lib/thumb/interwork\libg.a(lib_a-memset.o)
 .debug_line    0x00007579      0x425 c:/espardino_tmp/bin/../lib/gcc/arm-elf/4.4.0/../../../../arm-elf/lib/thumb/interwork\libg.a(lib_a-mprec.o)
 .debug_line    0x0000799e      0x132 c:/espardino_tmp/bin/../lib/gcc/arm-elf/4.4.0/../../../../arm-elf/lib/thumb/interwork\libg.a(lib_a-openr.o)
 .debug_line    0x00007ad0      0x132 c:/espardino_tmp/bin/../lib/gcc/arm-elf/4.4.0/../../../../arm-elf/lib/thumb/interwork\libg.a(lib_a-reent.o)
 .debug_line    0x00007c02      0x134 c:/espardino_tmp/bin/../lib/gcc/arm-elf/4.4.0/../../../../arm-elf/lib/thumb/interwork\libg.a(lib_a-remove.o)
 .debug_line    0x00007d36       0xa3 c:/espardino_tmp/bin/../lib/gcc/arm-elf/4.4.0/../../../../arm-elf/lib/thumb/interwork\libg.a(lib_a-sf_nan.o)
 .debug_line    0x00007dd9      0x13a c:/espardino_tmp/bin/../lib/gcc/arm-elf/4.4.0/../../../../arm-elf/lib/thumb/interwork\libg.a(lib_a-signalr.o)
 .debug_line    0x00007f13      0x16b c:/espardino_tmp/bin/../lib/gcc/arm-elf/4.4.0/../../../../arm-elf/lib/thumb/interwork\libg.a(lib_a-sprintf.o)
 .debug_line    0x0000807e      0x154 c:/espardino_tmp/bin/../lib/gcc/arm-elf/4.4.0/../../../../arm-elf/lib/thumb/interwork\libg.a(lib_a-stdio.o)
 .debug_line    0x000081d2      0x10a c:/espardino_tmp/bin/../lib/gcc/arm-elf/4.4.0/../../../../arm-elf/lib/thumb/interwork\libg.a(lib_a-strncmp.o)
 .debug_line    0x000082dc      0x52b c:/espardino_tmp/bin/../lib/gcc/arm-elf/4.4.0/../../../../arm-elf/lib/thumb/interwork\libg.a(lib_a-svfprintf.o)
 .debug_line    0x00008807      0x134 c:/espardino_tmp/bin/../lib/gcc/arm-elf/4.4.0/../../../../arm-elf/lib/thumb/interwork\libg.a(lib_a-unlinkr.o)
 .debug_line    0x0000893b      0x133 c:/espardino_tmp/bin/../lib/gcc/arm-elf/4.4.0/../../../../arm-elf/lib/thumb/interwork\libg.a(lib_a-writer.o)
 .debug_line    0x00008a6e      0x103 c:/espardino_tmp/bin/../lib/gcc/arm-elf/4.4.0/../../../../arm-elf/lib/thumb/interwork\libg.a(lib_a-callocr.o)
 .debug_line    0x00008b71      0x487 c:/espardino_tmp/bin/../lib/gcc/arm-elf/4.4.0/../../../../arm-elf/lib/thumb/interwork\libg.a(lib_a-dtoa.o)
 .debug_line    0x00008ff8       0x60 c:/espardino_tmp/bin/../lib/gcc/arm-elf/4.4.0/../../../../arm-elf/lib/thumb/interwork\libg.a(lib_a-environ.o)
 .debug_line    0x00009058      0x133 c:/espardino_tmp/bin/../lib/gcc/arm-elf/4.4.0/../../../../arm-elf/lib/thumb/interwork\libg.a(lib_a-envlock.o)
 .debug_line    0x0000918b      0x155 c:/espardino_tmp/bin/../lib/gcc/arm-elf/4.4.0/../../../../arm-elf/lib/thumb/interwork\libg.a(lib_a-fclose.o)
 .debug_line    0x000092e0      0x18f c:/espardino_tmp/bin/../lib/gcc/arm-elf/4.4.0/../../../../arm-elf/lib/thumb/interwork\libg.a(lib_a-fflush.o)
 .debug_line    0x0000946f      0x133 c:/espardino_tmp/bin/../lib/gcc/arm-elf/4.4.0/../../../../arm-elf/lib/thumb/interwork\libg.a(lib_a-lseekr.o)
 .debug_line    0x000095a2      0x132 c:/espardino_tmp/bin/../lib/gcc/arm-elf/4.4.0/../../../../arm-elf/lib/thumb/interwork\libg.a(lib_a-readr.o)
 .debug_line    0x000096d4       0xee c:/espardino_tmp/bin/../lib/gcc/arm-elf/4.4.0/../../../../arm-elf/lib/thumb/interwork\libg.a(lib_a-s_isinfd.o)
 .debug_line    0x000097c2       0x96 c:/espardino_tmp/bin/../lib/gcc/arm-elf/4.4.0/thumb/interwork\libgcc.a(_arm_truncdfsf2.o)
 .debug_line    0x00009858       0x7b c:/espardino_tmp/bin/../lib/gcc/arm-elf/4.4.0/thumb/interwork\libgcc.a(_muldi3.o)

.debug_frame    0x00000000     0x215c
 *(.debug_frame)
 .debug_frame   0x00000000       0x40 c:/espardino_tmp/bin/../lib/gcc/arm-elf/4.4.0/../../../../arm-elf/lib/thumb/interwork\libm.a(lib_a-s_atan.o)
 .debug_frame   0x00000040       0x40 c:/espardino_tmp/bin/../lib/gcc/arm-elf/4.4.0/../../../../arm-elf/lib/thumb/interwork\libm.a(lib_a-s_ceil.o)
 .debug_frame   0x00000080       0x2c c:/espardino_tmp/bin/../lib/gcc/arm-elf/4.4.0/../../../../arm-elf/lib/thumb/interwork\libm.a(lib_a-s_cos.o)
 .debug_frame   0x000000ac       0x2c c:/espardino_tmp/bin/../lib/gcc/arm-elf/4.4.0/../../../../arm-elf/lib/thumb/interwork\libm.a(lib_a-s_fabs.o)
 .debug_frame   0x000000d8       0x40 c:/espardino_tmp/bin/../lib/gcc/arm-elf/4.4.0/../../../../arm-elf/lib/thumb/interwork\libm.a(lib_a-s_floor.o)
 .debug_frame   0x00000118       0x30 c:/espardino_tmp/bin/../lib/gcc/arm-elf/4.4.0/../../../../arm-elf/lib/thumb/interwork\libm.a(lib_a-s_frexp.o)
 .debug_frame   0x00000148       0x30 c:/espardino_tmp/bin/../lib/gcc/arm-elf/4.4.0/../../../../arm-elf/lib/thumb/interwork\libm.a(lib_a-s_ldexp.o)
 .debug_frame   0x00000178       0x3c c:/espardino_tmp/bin/../lib/gcc/arm-elf/4.4.0/../../../../arm-elf/lib/thumb/interwork\libm.a(lib_a-s_modf.o)
 .debug_frame   0x000001b4       0x30 c:/espardino_tmp/bin/../lib/gcc/arm-elf/4.4.0/../../../../arm-elf/lib/thumb/interwork\libm.a(lib_a-s_scalbn.o)
 .debug_frame   0x000001e4       0x2c c:/espardino_tmp/bin/../lib/gcc/arm-elf/4.4.0/../../../../arm-elf/lib/thumb/interwork\libm.a(lib_a-s_sin.o)
 .debug_frame   0x00000210       0x2c c:/espardino_tmp/bin/../lib/gcc/arm-elf/4.4.0/../../../../arm-elf/lib/thumb/interwork\libm.a(lib_a-s_tan.o)
 .debug_frame   0x0000023c       0x30 c:/espardino_tmp/bin/../lib/gcc/arm-elf/4.4.0/../../../../arm-elf/lib/thumb/interwork\libm.a(lib_a-s_tanh.o)
 .debug_frame   0x0000026c       0x3c c:/espardino_tmp/bin/../lib/gcc/arm-elf/4.4.0/../../../../arm-elf/lib/thumb/interwork\libm.a(lib_a-w_acos.o)
 .debug_frame   0x000002a8       0x3c c:/espardino_tmp/bin/../lib/gcc/arm-elf/4.4.0/../../../../arm-elf/lib/thumb/interwork\libm.a(lib_a-w_asin.o)
 .debug_frame   0x000002e4       0x28 c:/espardino_tmp/bin/../lib/gcc/arm-elf/4.4.0/../../../../arm-elf/lib/thumb/interwork\libm.a(lib_a-w_atan2.o)
 .debug_frame   0x0000030c       0x3c c:/espardino_tmp/bin/../lib/gcc/arm-elf/4.4.0/../../../../arm-elf/lib/thumb/interwork\libm.a(lib_a-w_cosh.o)
 .debug_frame   0x00000348       0x38 c:/espardino_tmp/bin/../lib/gcc/arm-elf/4.4.0/../../../../arm-elf/lib/thumb/interwork\libm.a(lib_a-w_exp.o)
 .debug_frame   0x00000380       0x3c c:/espardino_tmp/bin/../lib/gcc/arm-elf/4.4.0/../../../../arm-elf/lib/thumb/interwork\libm.a(lib_a-w_fmod.o)
 .debug_frame   0x000003bc       0x3c c:/espardino_tmp/bin/../lib/gcc/arm-elf/4.4.0/../../../../arm-elf/lib/thumb/interwork\libm.a(lib_a-w_log.o)
 .debug_frame   0x000003f8       0x3c c:/espardino_tmp/bin/../lib/gcc/arm-elf/4.4.0/../../../../arm-elf/lib/thumb/interwork\libm.a(lib_a-w_log10.o)
 .debug_frame   0x00000434       0x40 c:/espardino_tmp/bin/../lib/gcc/arm-elf/4.4.0/../../../../arm-elf/lib/thumb/interwork\libm.a(lib_a-w_pow.o)
 .debug_frame   0x00000474       0x38 c:/espardino_tmp/bin/../lib/gcc/arm-elf/4.4.0/../../../../arm-elf/lib/thumb/interwork\libm.a(lib_a-w_sinh.o)
 .debug_frame   0x000004ac       0x3c c:/espardino_tmp/bin/../lib/gcc/arm-elf/4.4.0/../../../../arm-elf/lib/thumb/interwork\libm.a(lib_a-w_sqrt.o)
 .debug_frame   0x000004e8       0x38 c:/espardino_tmp/bin/../lib/gcc/arm-elf/4.4.0/../../../../arm-elf/lib/thumb/interwork\libm.a(lib_a-e_acos.o)
 .debug_frame   0x00000520       0x38 c:/espardino_tmp/bin/../lib/gcc/arm-elf/4.4.0/../../../../arm-elf/lib/thumb/interwork\libm.a(lib_a-e_asin.o)
 .debug_frame   0x00000558       0x44 c:/espardino_tmp/bin/../lib/gcc/arm-elf/4.4.0/../../../../arm-elf/lib/thumb/interwork\libm.a(lib_a-e_atan2.o)
 .debug_frame   0x0000059c       0x38 c:/espardino_tmp/bin/../lib/gcc/arm-elf/4.4.0/../../../../arm-elf/lib/thumb/interwork\libm.a(lib_a-e_cosh.o)
 .debug_frame   0x000005d4       0x3c c:/espardino_tmp/bin/../lib/gcc/arm-elf/4.4.0/../../../../arm-elf/lib/thumb/interwork\libm.a(lib_a-e_exp.o)
 .debug_frame   0x00000610       0x44 c:/espardino_tmp/bin/../lib/gcc/arm-elf/4.4.0/../../../../arm-elf/lib/thumb/interwork\libm.a(lib_a-e_fmod.o)
 .debug_frame   0x00000654       0x3c c:/espardino_tmp/bin/../lib/gcc/arm-elf/4.4.0/../../../../arm-elf/lib/thumb/interwork\libm.a(lib_a-e_log.o)
 .debug_frame   0x00000690       0x40 c:/espardino_tmp/bin/../lib/gcc/arm-elf/4.4.0/../../../../arm-elf/lib/thumb/interwork\libm.a(lib_a-e_log10.o)
 .debug_frame   0x000006d0       0x44 c:/espardino_tmp/bin/../lib/gcc/arm-elf/4.4.0/../../../../arm-elf/lib/thumb/interwork\libm.a(lib_a-e_pow.o)
 .debug_frame   0x00000714       0x40 c:/espardino_tmp/bin/../lib/gcc/arm-elf/4.4.0/../../../../arm-elf/lib/thumb/interwork\libm.a(lib_a-e_rem_pio2.o)
 .debug_frame   0x00000754       0x38 c:/espardino_tmp/bin/../lib/gcc/arm-elf/4.4.0/../../../../arm-elf/lib/thumb/interwork\libm.a(lib_a-e_sinh.o)
 .debug_frame   0x0000078c       0x44 c:/espardino_tmp/bin/../lib/gcc/arm-elf/4.4.0/../../../../arm-elf/lib/thumb/interwork\libm.a(lib_a-e_sqrt.o)
 .debug_frame   0x000007d0       0x3c c:/espardino_tmp/bin/../lib/gcc/arm-elf/4.4.0/../../../../arm-elf/lib/thumb/interwork\libm.a(lib_a-k_cos.o)
 .debug_frame   0x0000080c       0x48 c:/espardino_tmp/bin/../lib/gcc/arm-elf/4.4.0/../../../../arm-elf/lib/thumb/interwork\libm.a(lib_a-k_rem_pio2.o)
 .debug_frame   0x00000854       0x38 c:/espardino_tmp/bin/../lib/gcc/arm-elf/4.4.0/../../../../arm-elf/lib/thumb/interwork\libm.a(lib_a-k_sin.o)
 .debug_frame   0x0000088c       0x44 c:/espardino_tmp/bin/../lib/gcc/arm-elf/4.4.0/../../../../arm-elf/lib/thumb/interwork\libm.a(lib_a-k_tan.o)
 .debug_frame   0x000008d0       0x34 c:/espardino_tmp/bin/../lib/gcc/arm-elf/4.4.0/../../../../arm-elf/lib/thumb/interwork\libm.a(lib_a-s_copysign.o)
 .debug_frame   0x00000904       0x3c c:/espardino_tmp/bin/../lib/gcc/arm-elf/4.4.0/../../../../arm-elf/lib/thumb/interwork\libm.a(lib_a-s_expm1.o)
 .debug_frame   0x00000940       0x20 c:/espardino_tmp/bin/../lib/gcc/arm-elf/4.4.0/../../../../arm-elf/lib/thumb/interwork\libm.a(lib_a-s_finite.o)
 .debug_frame   0x00000960       0x20 c:/espardino_tmp/bin/../lib/gcc/arm-elf/4.4.0/../../../../arm-elf/lib/thumb/interwork\libm.a(lib_a-s_isnand.o)
 .debug_frame   0x00000980       0x20 c:/espardino_tmp/bin/../lib/gcc/arm-elf/4.4.0/../../../../arm-elf/lib/thumb/interwork\libm.a(lib_a-s_matherr.o)
 .debug_frame   0x000009a0       0x20 c:/espardino_tmp/bin/../lib/gcc/arm-elf/4.4.0/../../../../arm-elf/lib/thumb/interwork\libm.a(lib_a-s_nan.o)
 .debug_frame   0x000009c0       0x3c c:/espardino_tmp/bin/../lib/gcc/arm-elf/4.4.0/../../../../arm-elf/lib/thumb/interwork\libm.a(lib_a-s_rint.o)
 .debug_frame   0x000009fc       0x28 c:/espardino_tmp/bin/../lib/gcc/arm-elf/4.4.0/thumb/interwork\libgcc.a(_udivsi3.o)
 .debug_frame   0x00000a24       0x28 c:/espardino_tmp/bin/../lib/gcc/arm-elf/4.4.0/thumb/interwork\libgcc.a(_divsi3.o)
 .debug_frame   0x00000a4c       0x28 c:/espardino_tmp/bin/../lib/gcc/arm-elf/4.4.0/thumb/interwork\libgcc.a(_umodsi3.o)
 .debug_frame   0x00000a74       0x28 c:/espardino_tmp/bin/../lib/gcc/arm-elf/4.4.0/thumb/interwork\libgcc.a(_modsi3.o)
 .debug_frame   0x00000a9c       0x20 c:/espardino_tmp/bin/../lib/gcc/arm-elf/4.4.0/../../../../arm-elf/lib/thumb/interwork\libg.a(lib_a-errno.o)
 .debug_frame   0x00000abc       0x7c c:/espardino_tmp/bin/../lib/gcc/arm-elf/4.4.0/../../../../arm-elf/lib/thumb/interwork\libg.a(lib_a-locale.o)
 .debug_frame   0x00000b38       0x40 c:/espardino_tmp/bin/../lib/gcc/arm-elf/4.4.0/../../../../arm-elf/lib/thumb/interwork\libg.a(lib_a-malloc.o)
 .debug_frame   0x00000b78       0x44 c:/espardino_tmp/bin/../lib/gcc/arm-elf/4.4.0/../../../../arm-elf/lib/thumb/interwork\libg.a(lib_a-mallocr.o)
 .debug_frame   0x00000bbc       0x30 c:/espardino_tmp/bin/../lib/gcc/arm-elf/4.4.0/../../../../arm-elf/lib/thumb/interwork\libg.a(lib_a-memcmp.o)
 .debug_frame   0x00000bec       0x34 c:/espardino_tmp/bin/../lib/gcc/arm-elf/4.4.0/../../../../arm-elf/lib/thumb/interwork\libg.a(lib_a-memcpy.o)
 .debug_frame   0x00000c20       0x30 c:/espardino_tmp/bin/../lib/gcc/arm-elf/4.4.0/../../../../arm-elf/lib/thumb/interwork\libg.a(lib_a-mlock.o)
 .debug_frame   0x00000c50       0x3c c:/espardino_tmp/bin/../lib/gcc/arm-elf/4.4.0/../../../../arm-elf/lib/thumb/interwork\libg.a(lib_a-rand.o)
 .debug_frame   0x00000c8c       0x28 c:/espardino_tmp/bin/../lib/gcc/arm-elf/4.4.0/../../../../arm-elf/lib/thumb/interwork\libg.a(lib_a-realloc.o)
 .debug_frame   0x00000cb4       0x44 c:/espardino_tmp/bin/../lib/gcc/arm-elf/4.4.0/../../../../arm-elf/lib/thumb/interwork\libg.a(lib_a-reallocr.o)
 .debug_frame   0x00000cf8       0x2c c:/espardino_tmp/bin/../lib/gcc/arm-elf/4.4.0/../../../../arm-elf/lib/thumb/interwork\libg.a(lib_a-sbrkr.o)
 .debug_frame   0x00000d24       0x30 c:/espardino_tmp/bin/../lib/gcc/arm-elf/4.4.0/../../../../arm-elf/lib/thumb/interwork\libg.a(lib_a-strcat.o)
 .debug_frame   0x00000d54       0x30 c:/espardino_tmp/bin/../lib/gcc/arm-elf/4.4.0/../../../../arm-elf/lib/thumb/interwork\libg.a(lib_a-strchr.o)
 .debug_frame   0x00000d84       0x2c c:/espardino_tmp/bin/../lib/gcc/arm-elf/4.4.0/../../../../arm-elf/lib/thumb/interwork\libg.a(lib_a-strcmp.o)
 .debug_frame   0x00000db0       0x28 c:/espardino_tmp/bin/../lib/gcc/arm-elf/4.4.0/../../../../arm-elf/lib/thumb/interwork\libg.a(lib_a-strcoll.o)
 .debug_frame   0x00000dd8       0x30 c:/espardino_tmp/bin/../lib/gcc/arm-elf/4.4.0/../../../../arm-elf/lib/thumb/interwork\libg.a(lib_a-strcpy.o)
 .debug_frame   0x00000e08       0x30 c:/espardino_tmp/bin/../lib/gcc/arm-elf/4.4.0/../../../../arm-elf/lib/thumb/interwork\libg.a(lib_a-strcspn.o)
 .debug_frame   0x00000e38       0x2c c:/espardino_tmp/bin/../lib/gcc/arm-elf/4.4.0/../../../../arm-elf/lib/thumb/interwork\libg.a(lib_a-strlen.o)
 .debug_frame   0x00000e64       0x34 c:/espardino_tmp/bin/../lib/gcc/arm-elf/4.4.0/../../../../arm-elf/lib/thumb/interwork\libg.a(lib_a-strncat.o)
 .debug_frame   0x00000e98       0x34 c:/espardino_tmp/bin/../lib/gcc/arm-elf/4.4.0/../../../../arm-elf/lib/thumb/interwork\libg.a(lib_a-strncpy.o)
 .debug_frame   0x00000ecc       0xb0 c:/espardino_tmp/bin/../lib/gcc/arm-elf/4.4.0/../../../../arm-elf/lib/thumb/interwork\libg.a(lib_a-strstr.o)
 .debug_frame   0x00000f7c       0x7c c:/espardino_tmp/bin/../lib/gcc/arm-elf/4.4.0/../../../../arm-elf/lib/thumb/interwork\libg.a(lib_a-strtod.o)
 .debug_frame   0x00000ff8       0x60 c:/espardino_tmp/bin/../lib/gcc/arm-elf/4.4.0/../../../../arm-elf/lib/thumb/interwork\libg.a(lib_a-strtoul.o)
 .debug_frame   0x00001058      0x358 c:/espardino_tmp/bin/../lib/gcc/arm-elf/4.4.0/../../../../arm-elf/lib/thumb/interwork\libg.a(lib_a-syscalls.o)
 .debug_frame   0x000013b0       0x54 c:/espardino_tmp/bin/../lib/gcc/arm-elf/4.4.0/../../../../arm-elf/lib/thumb/interwork\libg.a(lib_a-tmpfile.o)
 .debug_frame   0x00001404       0xbc c:/espardino_tmp/bin/../lib/gcc/arm-elf/4.4.0/../../../../arm-elf/lib/thumb/interwork\libg.a(lib_a-tmpnam.o)
 .debug_frame   0x000014c0       0x2c c:/espardino_tmp/bin/../lib/gcc/arm-elf/4.4.0/../../../../arm-elf/lib/thumb/interwork\libg.a(lib_a-closer.o)
 .debug_frame   0x000014ec       0x4c c:/espardino_tmp/bin/../lib/gcc/arm-elf/4.4.0/../../../../arm-elf/lib/thumb/interwork\libg.a(lib_a-fdopen.o)
 .debug_frame   0x00001538      0x148 c:/espardino_tmp/bin/../lib/gcc/arm-elf/4.4.0/../../../../arm-elf/lib/thumb/interwork\libg.a(lib_a-findfp.o)
 .debug_frame   0x00001680       0x30 c:/espardino_tmp/bin/../lib/gcc/arm-elf/4.4.0/../../../../arm-elf/lib/thumb/interwork\libg.a(lib_a-flags.o)
 .debug_frame   0x000016b0       0x60 c:/espardino_tmp/bin/../lib/gcc/arm-elf/4.4.0/../../../../arm-elf/lib/thumb/interwork\libg.a(lib_a-freer.o)
 .debug_frame   0x00001710       0x64 c:/espardino_tmp/bin/../lib/gcc/arm-elf/4.4.0/../../../../arm-elf/lib/thumb/interwork\libg.a(lib_a-fwalk.o)
 .debug_frame   0x00001774       0x80 c:/espardino_tmp/bin/../lib/gcc/arm-elf/4.4.0/../../../../arm-elf/lib/thumb/interwork\libg.a(lib_a-gdtoa-gethex.o)
 .debug_frame   0x000017f4       0x44 c:/espardino_tmp/bin/../lib/gcc/arm-elf/4.4.0/../../../../arm-elf/lib/thumb/interwork\libg.a(lib_a-gdtoa-hexnan.o)
 .debug_frame   0x00001838       0x44 c:/espardino_tmp/bin/../lib/gcc/arm-elf/4.4.0/../../../../arm-elf/lib/thumb/interwork\libg.a(lib_a-getenv.o)
 .debug_frame   0x0000187c       0x5c c:/espardino_tmp/bin/../lib/gcc/arm-elf/4.4.0/../../../../arm-elf/lib/thumb/interwork\libg.a(lib_a-getenv_r.o)
 .debug_frame   0x000018d8       0x34 c:/espardino_tmp/bin/../lib/gcc/arm-elf/4.4.0/../../../../arm-elf/lib/thumb/interwork\libg.a(lib_a-memchr.o)
 .debug_frame   0x0000190c       0x34 c:/espardino_tmp/bin/../lib/gcc/arm-elf/4.4.0/../../../../arm-elf/lib/thumb/interwork\libg.a(lib_a-memmove.o)
 .debug_frame   0x00001940       0x30 c:/espardino_tmp/bin/../lib/gcc/arm-elf/4.4.0/../../../../arm-elf/lib/thumb/interwork\libg.a(lib_a-memset.o)
 .debug_frame   0x00001970      0x2b0 c:/espardino_tmp/bin/../lib/gcc/arm-elf/4.4.0/../../../../arm-elf/lib/thumb/interwork\libg.a(lib_a-mprec.o)
 .debug_frame   0x00001c20       0x2c c:/espardino_tmp/bin/../lib/gcc/arm-elf/4.4.0/../../../../arm-elf/lib/thumb/interwork\libg.a(lib_a-openr.o)
 .debug_frame   0x00001c4c       0x70 c:/espardino_tmp/bin/../lib/gcc/arm-elf/4.4.0/../../../../arm-elf/lib/thumb/interwork\libg.a(lib_a-reent.o)
 .debug_frame   0x00001cbc       0x40 c:/espardino_tmp/bin/../lib/gcc/arm-elf/4.4.0/../../../../arm-elf/lib/thumb/interwork\libg.a(lib_a-remove.o)
 .debug_frame   0x00001cfc       0x20 c:/espardino_tmp/bin/../lib/gcc/arm-elf/4.4.0/../../../../arm-elf/lib/thumb/interwork\libg.a(lib_a-sf_nan.o)
 .debug_frame   0x00001d1c       0x44 c:/espardino_tmp/bin/../lib/gcc/arm-elf/4.4.0/../../../../arm-elf/lib/thumb/interwork\libg.a(lib_a-signalr.o)
 .debug_frame   0x00001d60       0x54 c:/espardino_tmp/bin/../lib/gcc/arm-elf/4.4.0/../../../../arm-elf/lib/thumb/interwork\libg.a(lib_a-sprintf.o)
 .debug_frame   0x00001db4       0x84 c:/espardino_tmp/bin/../lib/gcc/arm-elf/4.4.0/../../../../arm-elf/lib/thumb/interwork\libg.a(lib_a-stdio.o)
 .debug_frame   0x00001e38       0x30 c:/espardino_tmp/bin/../lib/gcc/arm-elf/4.4.0/../../../../arm-elf/lib/thumb/interwork\libg.a(lib_a-strncmp.o)
 .debug_frame   0x00001e68       0x7c c:/espardino_tmp/bin/../lib/gcc/arm-elf/4.4.0/../../../../arm-elf/lib/thumb/interwork\libg.a(lib_a-svfprintf.o)
 .debug_frame   0x00001ee4       0x2c c:/espardino_tmp/bin/../lib/gcc/arm-elf/4.4.0/../../../../arm-elf/lib/thumb/interwork\libg.a(lib_a-unlinkr.o)
 .debug_frame   0x00001f10       0x2c c:/espardino_tmp/bin/../lib/gcc/arm-elf/4.4.0/../../../../arm-elf/lib/thumb/interwork\libg.a(lib_a-writer.o)
 .debug_frame   0x00001f3c       0x2c c:/espardino_tmp/bin/../lib/gcc/arm-elf/4.4.0/../../../../arm-elf/lib/thumb/interwork\libg.a(lib_a-callocr.o)
 .debug_frame   0x00001f68       0x7c c:/espardino_tmp/bin/../lib/gcc/arm-elf/4.4.0/../../../../arm-elf/lib/thumb/interwork\libg.a(lib_a-dtoa.o)
 .debug_frame   0x00001fe4       0x30 c:/espardino_tmp/bin/../lib/gcc/arm-elf/4.4.0/../../../../arm-elf/lib/thumb/interwork\libg.a(lib_a-envlock.o)
 .debug_frame   0x00002014       0x48 c:/espardino_tmp/bin/../lib/gcc/arm-elf/4.4.0/../../../../arm-elf/lib/thumb/interwork\libg.a(lib_a-fclose.o)
 .debug_frame   0x0000205c       0x4c c:/espardino_tmp/bin/../lib/gcc/arm-elf/4.4.0/../../../../arm-elf/lib/thumb/interwork\libg.a(lib_a-fflush.o)
 .debug_frame   0x000020a8       0x2c c:/espardino_tmp/bin/../lib/gcc/arm-elf/4.4.0/../../../../arm-elf/lib/thumb/interwork\libg.a(lib_a-lseekr.o)
 .debug_frame   0x000020d4       0x2c c:/espardino_tmp/bin/../lib/gcc/arm-elf/4.4.0/../../../../arm-elf/lib/thumb/interwork\libg.a(lib_a-readr.o)
 .debug_frame   0x00002100       0x20 c:/espardino_tmp/bin/../lib/gcc/arm-elf/4.4.0/../../../../arm-elf/lib/thumb/interwork\libg.a(lib_a-s_isinfd.o)
 .debug_frame   0x00002120       0x3c c:/espardino_tmp/bin/../lib/gcc/arm-elf/4.4.0/thumb/interwork\libgcc.a(_muldi3.o)

.debug_str      0x00000000     0x36ca
 *(.debug_str)
 .debug_str     0x00000000      0x192 main.o
                                0x1d7 (size before relaxing)
 .debug_str     0x00000192       0xd2 c:/espardino_tmp/bin/../lib/gcc/arm-elf/4.4.0/../../../../arm-elf/lib/thumb/interwork\libm.a(lib_a-s_atan.o)
                                0x17f (size before relaxing)
 .debug_str     0x00000264       0x4c c:/espardino_tmp/bin/../lib/gcc/arm-elf/4.4.0/../../../../arm-elf/lib/thumb/interwork\libm.a(lib_a-s_ceil.o)
                                0x176 (size before relaxing)
 .debug_str     0x000002b0       0x3c c:/espardino_tmp/bin/../lib/gcc/arm-elf/4.4.0/../../../../arm-elf/lib/thumb/interwork\libm.a(lib_a-s_cos.o)
                                0x133 (size before relaxing)
 .debug_str     0x000002ec       0x4c c:/espardino_tmp/bin/../lib/gcc/arm-elf/4.4.0/../../../../arm-elf/lib/thumb/interwork\libm.a(lib_a-s_fabs.o)
                                0x16c (size before relaxing)
 .debug_str     0x00000338       0x44 c:/espardino_tmp/bin/../lib/gcc/arm-elf/4.4.0/../../../../arm-elf/lib/thumb/interwork\libm.a(lib_a-s_floor.o)
                                0x178 (size before relaxing)
 .debug_str     0x0000037c       0x4f c:/espardino_tmp/bin/../lib/gcc/arm-elf/4.4.0/../../../../arm-elf/lib/thumb/interwork\libm.a(lib_a-s_frexp.o)
                                0x183 (size before relaxing)
 .debug_str     0x000003cb       0x44 c:/espardino_tmp/bin/../lib/gcc/arm-elf/4.4.0/../../../../arm-elf/lib/thumb/interwork\libm.a(lib_a-s_ldexp.o)
                                0x137 (size before relaxing)
 .debug_str     0x0000040f       0x8a c:/espardino_tmp/bin/../lib/gcc/arm-elf/4.4.0/../../../../arm-elf/lib/thumb/interwork\libm.a(lib_a-s_modf.o)
                                0x17f (size before relaxing)
 .debug_str     0x00000499       0x54 c:/espardino_tmp/bin/../lib/gcc/arm-elf/4.4.0/../../../../arm-elf/lib/thumb/interwork\libm.a(lib_a-s_scalbn.o)
                                0x195 (size before relaxing)
 .debug_str     0x000004ed       0x3c c:/espardino_tmp/bin/../lib/gcc/arm-elf/4.4.0/../../../../arm-elf/lib/thumb/interwork\libm.a(lib_a-s_sin.o)
                                0x133 (size before relaxing)
 .debug_str     0x00000529       0x3c c:/espardino_tmp/bin/../lib/gcc/arm-elf/4.4.0/../../../../arm-elf/lib/thumb/interwork\libm.a(lib_a-s_tan.o)
                                0x133 (size before relaxing)
 .debug_str     0x00000565       0x42 c:/espardino_tmp/bin/../lib/gcc/arm-elf/4.4.0/../../../../arm-elf/lib/thumb/interwork\libm.a(lib_a-s_tanh.o)
                                0x171 (size before relaxing)
 .debug_str     0x000005a7       0xb3 c:/espardino_tmp/bin/../lib/gcc/arm-elf/4.4.0/../../../../arm-elf/lib/thumb/interwork\libm.a(lib_a-w_acos.o)
                                0x1af (size before relaxing)
 .debug_str     0x0000065a       0x3d c:/espardino_tmp/bin/../lib/gcc/arm-elf/4.4.0/../../../../arm-elf/lib/thumb/interwork\libm.a(lib_a-w_asin.o)
                                0x1af (size before relaxing)
 .debug_str     0x00000697       0x3e c:/espardino_tmp/bin/../lib/gcc/arm-elf/4.4.0/../../../../arm-elf/lib/thumb/interwork\libm.a(lib_a-w_atan2.o)
                                0x131 (size before relaxing)
 .debug_str     0x000006d5       0x3d c:/espardino_tmp/bin/../lib/gcc/arm-elf/4.4.0/../../../../arm-elf/lib/thumb/interwork\libm.a(lib_a-w_cosh.o)
                                0x1af (size before relaxing)
 .debug_str     0x00000712       0x54 c:/espardino_tmp/bin/../lib/gcc/arm-elf/4.4.0/../../../../arm-elf/lib/thumb/interwork\libm.a(lib_a-w_exp.o)
                                0x1c1 (size before relaxing)
 .debug_str     0x00000766       0x3d c:/espardino_tmp/bin/../lib/gcc/arm-elf/4.4.0/../../../../arm-elf/lib/thumb/interwork\libm.a(lib_a-w_fmod.o)
                                0x1af (size before relaxing)
 .debug_str     0x000007a3       0x3c c:/espardino_tmp/bin/../lib/gcc/arm-elf/4.4.0/../../../../arm-elf/lib/thumb/interwork\libm.a(lib_a-w_log.o)
                                0x1a9 (size before relaxing)
 .debug_str     0x000007df       0x3e c:/espardino_tmp/bin/../lib/gcc/arm-elf/4.4.0/../../../../arm-elf/lib/thumb/interwork\libm.a(lib_a-w_log10.o)
                                0x1b1 (size before relaxing)
 .debug_str     0x0000081d       0x3c c:/espardino_tmp/bin/../lib/gcc/arm-elf/4.4.0/../../../../arm-elf/lib/thumb/interwork\libm.a(lib_a-w_pow.o)
                                0x1a9 (size before relaxing)
 .debug_str     0x00000859       0x3d c:/espardino_tmp/bin/../lib/gcc/arm-elf/4.4.0/../../../../arm-elf/lib/thumb/interwork\libm.a(lib_a-w_sinh.o)
                                0x1af (size before relaxing)
 .debug_str     0x00000896       0x3d c:/espardino_tmp/bin/../lib/gcc/arm-elf/4.4.0/../../../../arm-elf/lib/thumb/interwork\libm.a(lib_a-w_sqrt.o)
                                0x1af (size before relaxing)
 .debug_str     0x000008d3       0x61 c:/espardino_tmp/bin/../lib/gcc/arm-elf/4.4.0/../../../../arm-elf/lib/thumb/interwork\libm.a(lib_a-e_acos.o)
                                0x186 (size before relaxing)
 .debug_str     0x00000934       0x54 c:/espardino_tmp/bin/../lib/gcc/arm-elf/4.4.0/../../../../arm-elf/lib/thumb/interwork\libm.a(lib_a-e_asin.o)
                                0x198 (size before relaxing)
 .debug_str     0x00000988       0x62 c:/espardino_tmp/bin/../lib/gcc/arm-elf/4.4.0/../../../../arm-elf/lib/thumb/interwork\libm.a(lib_a-e_atan2.o)
                                0x19b (size before relaxing)
 .debug_str     0x000009ea       0x51 c:/espardino_tmp/bin/../lib/gcc/arm-elf/4.4.0/../../../../arm-elf/lib/thumb/interwork\libm.a(lib_a-e_cosh.o)
                                0x158 (size before relaxing)
 .debug_str     0x00000a3b       0x6b c:/espardino_tmp/bin/../lib/gcc/arm-elf/4.4.0/../../../../arm-elf/lib/thumb/interwork\libm.a(lib_a-e_exp.o)
                                0x1b7 (size before relaxing)
 .debug_str     0x00000aa6       0x4c c:/espardino_tmp/bin/../lib/gcc/arm-elf/4.4.0/../../../../arm-elf/lib/thumb/interwork\libm.a(lib_a-e_fmod.o)
                                0x180 (size before relaxing)
 .debug_str     0x00000af2       0x5d c:/espardino_tmp/bin/../lib/gcc/arm-elf/4.4.0/../../../../arm-elf/lib/thumb/interwork\libm.a(lib_a-e_log.o)
                                0x19c (size before relaxing)
 .debug_str     0x00000b4f       0x69 c:/espardino_tmp/bin/../lib/gcc/arm-elf/4.4.0/../../../../arm-elf/lib/thumb/interwork\libm.a(lib_a-e_log10.o)
                                0x1a8 (size before relaxing)
 .debug_str     0x00000bb8       0x8d c:/espardino_tmp/bin/../lib/gcc/arm-elf/4.4.0/../../../../arm-elf/lib/thumb/interwork\libm.a(lib_a-e_pow.o)
                                0x1d5 (size before relaxing)
 .debug_str     0x00000c45       0xa9 c:/espardino_tmp/bin/../lib/gcc/arm-elf/4.4.0/../../../../arm-elf/lib/thumb/interwork\libm.a(lib_a-e_rem_pio2.o)
                                0x1ec (size before relaxing)
 .debug_str     0x00000cee       0x52 c:/espardino_tmp/bin/../lib/gcc/arm-elf/4.4.0/../../../../arm-elf/lib/thumb/interwork\libm.a(lib_a-e_sinh.o)
                                0x154 (size before relaxing)
 .debug_str     0x00000d40       0x4c c:/espardino_tmp/bin/../lib/gcc/arm-elf/4.4.0/../../../../arm-elf/lib/thumb/interwork\libm.a(lib_a-e_sqrt.o)
                                0x185 (size before relaxing)
 .debug_str     0x00000d8c       0x49 c:/espardino_tmp/bin/../lib/gcc/arm-elf/4.4.0/../../../../arm-elf/lib/thumb/interwork\libm.a(lib_a-k_cos.o)
                                0x173 (size before relaxing)
 .debug_str     0x00000dd5       0x7d c:/espardino_tmp/bin/../lib/gcc/arm-elf/4.4.0/../../../../arm-elf/lib/thumb/interwork\libm.a(lib_a-k_rem_pio2.o)
                                0x184 (size before relaxing)
 .debug_str     0x00000e52       0x49 c:/espardino_tmp/bin/../lib/gcc/arm-elf/4.4.0/../../../../arm-elf/lib/thumb/interwork\libm.a(lib_a-k_sin.o)
                                0x178 (size before relaxing)
 .debug_str     0x00000e9b       0x55 c:/espardino_tmp/bin/../lib/gcc/arm-elf/4.4.0/../../../../arm-elf/lib/thumb/interwork\libm.a(lib_a-k_tan.o)
                                0x184 (size before relaxing)
 .debug_str     0x00000ef0       0x4c c:/espardino_tmp/bin/../lib/gcc/arm-elf/4.4.0/../../../../arm-elf/lib/thumb/interwork\libm.a(lib_a-s_copysign.o)
                                0x173 (size before relaxing)
 .debug_str     0x00000f3c       0x46 c:/espardino_tmp/bin/../lib/gcc/arm-elf/4.4.0/../../../../arm-elf/lib/thumb/interwork\libm.a(lib_a-s_expm1.o)
                                0x1a7 (size before relaxing)
 .debug_str     0x00000f82       0x41 c:/espardino_tmp/bin/../lib/gcc/arm-elf/4.4.0/../../../../arm-elf/lib/thumb/interwork\libm.a(lib_a-s_finite.o)
                                0x174 (size before relaxing)
 .debug_str     0x00000fc3       0x4a c:/espardino_tmp/bin/../lib/gcc/arm-elf/4.4.0/../../../../arm-elf/lib/thumb/interwork\libm.a(lib_a-s_isnand.o)
                                0x143 (size before relaxing)
 .debug_str     0x0000100d       0x42 c:/espardino_tmp/bin/../lib/gcc/arm-elf/4.4.0/../../../../arm-elf/lib/thumb/interwork\libm.a(lib_a-s_lib_ver.o)
                                0x18c (size before relaxing)
 .debug_str     0x0000104f       0x4a c:/espardino_tmp/bin/../lib/gcc/arm-elf/4.4.0/../../../../arm-elf/lib/thumb/interwork\libm.a(lib_a-s_matherr.o)
                                0x15e (size before relaxing)
 .debug_str     0x00001099       0x3e c:/espardino_tmp/bin/../lib/gcc/arm-elf/4.4.0/../../../../arm-elf/lib/thumb/interwork\libm.a(lib_a-s_nan.o)
                                0x134 (size before relaxing)
 .debug_str     0x000010d7       0x4a c:/espardino_tmp/bin/../lib/gcc/arm-elf/4.4.0/../../../../arm-elf/lib/thumb/interwork\libm.a(lib_a-s_rint.o)
                                0x180 (size before relaxing)
 .debug_str     0x00001121       0xa0 c:/espardino_tmp/bin/../lib/gcc/arm-elf/4.4.0/../../../../arm-elf/lib/thumb/interwork\libg.a(lib_a-ctype_.o)
                                 0xb1 (size before relaxing)
 .debug_str     0x000011c1      0x3d6 c:/espardino_tmp/bin/../lib/gcc/arm-elf/4.4.0/../../../../arm-elf/lib/thumb/interwork\libg.a(lib_a-errno.o)
                                0x4d5 (size before relaxing)
 .debug_str     0x00001597       0x9d c:/espardino_tmp/bin/../lib/gcc/arm-elf/4.4.0/../../../../arm-elf/lib/thumb/interwork\libg.a(lib_a-impure.o)
                                0x4ed (size before relaxing)
 .debug_str     0x00001634      0x1de c:/espardino_tmp/bin/../lib/gcc/arm-elf/4.4.0/../../../../arm-elf/lib/thumb/interwork\libg.a(lib_a-locale.o)
                                0x67c (size before relaxing)
 .debug_str     0x00001812       0x8c c:/espardino_tmp/bin/../lib/gcc/arm-elf/4.4.0/../../../../arm-elf/lib/thumb/interwork\libg.a(lib_a-malloc.o)
                                0x4ef (size before relaxing)
 .debug_str     0x0000189e      0x20c c:/espardino_tmp/bin/../lib/gcc/arm-elf/4.4.0/../../../../arm-elf/lib/thumb/interwork\libg.a(lib_a-mallocr.o)
                                0x6c4 (size before relaxing)
 .debug_str     0x00001aaa       0x87 c:/espardino_tmp/bin/../lib/gcc/arm-elf/4.4.0/../../../../arm-elf/lib/thumb/interwork\libg.a(lib_a-memcmp.o)
                                0x123 (size before relaxing)
 .debug_str     0x00001b31       0x6d c:/espardino_tmp/bin/../lib/gcc/arm-elf/4.4.0/../../../../arm-elf/lib/thumb/interwork\libg.a(lib_a-memcpy.o)
                                0x14a (size before relaxing)
 .debug_str     0x00001b9e       0x71 c:/espardino_tmp/bin/../lib/gcc/arm-elf/4.4.0/../../../../arm-elf/lib/thumb/interwork\libg.a(lib_a-mlock.o)
                                0x4f6 (size before relaxing)
 .debug_str     0x00001c0f       0x43 c:/espardino_tmp/bin/../lib/gcc/arm-elf/4.4.0/../../../../arm-elf/lib/thumb/interwork\libg.a(lib_a-rand.o)
                                0x4de (size before relaxing)
 .debug_str     0x00001c52       0x48 c:/espardino_tmp/bin/../lib/gcc/arm-elf/4.4.0/../../../../arm-elf/lib/thumb/interwork\libg.a(lib_a-realloc.o)
                                0x4e7 (size before relaxing)
 .debug_str     0x00001c9a       0x61 c:/espardino_tmp/bin/../lib/gcc/arm-elf/4.4.0/../../../../arm-elf/lib/thumb/interwork\libg.a(lib_a-reallocr.o)
                                0x596 (size before relaxing)
 .debug_str     0x00001cfb       0x54 c:/espardino_tmp/bin/../lib/gcc/arm-elf/4.4.0/../../../../arm-elf/lib/thumb/interwork\libg.a(lib_a-sbrkr.o)
                                0x4de (size before relaxing)
 .debug_str     0x00001d4f       0x51 c:/espardino_tmp/bin/../lib/gcc/arm-elf/4.4.0/../../../../arm-elf/lib/thumb/interwork\libg.a(lib_a-strcat.o)
                                0x127 (size before relaxing)
 .debug_str     0x00001da0       0x53 c:/espardino_tmp/bin/../lib/gcc/arm-elf/4.4.0/../../../../arm-elf/lib/thumb/interwork\libg.a(lib_a-strchr.o)
                                0x12e (size before relaxing)
 .debug_str     0x00001df3       0x46 c:/espardino_tmp/bin/../lib/gcc/arm-elf/4.4.0/../../../../arm-elf/lib/thumb/interwork\libg.a(lib_a-strcmp.o)
                                0x11c (size before relaxing)
 .debug_str     0x00001e39       0x48 c:/espardino_tmp/bin/../lib/gcc/arm-elf/4.4.0/../../../../arm-elf/lib/thumb/interwork\libg.a(lib_a-strcoll.o)
                                0x11e (size before relaxing)
 .debug_str     0x00001e81       0x46 c:/espardino_tmp/bin/../lib/gcc/arm-elf/4.4.0/../../../../arm-elf/lib/thumb/interwork\libg.a(lib_a-strcpy.o)
                                0x13e (size before relaxing)
 .debug_str     0x00001ec7       0x48 c:/espardino_tmp/bin/../lib/gcc/arm-elf/4.4.0/../../../../arm-elf/lib/thumb/interwork\libg.a(lib_a-strcspn.o)
                                0x125 (size before relaxing)
 .debug_str     0x00001f0f       0x4c c:/espardino_tmp/bin/../lib/gcc/arm-elf/4.4.0/../../../../arm-elf/lib/thumb/interwork\libg.a(lib_a-strlen.o)
                                0x136 (size before relaxing)
 .debug_str     0x00001f5b       0x48 c:/espardino_tmp/bin/../lib/gcc/arm-elf/4.4.0/../../../../arm-elf/lib/thumb/interwork\libg.a(lib_a-strncat.o)
                                0x130 (size before relaxing)
 .debug_str     0x00001fa3       0x48 c:/espardino_tmp/bin/../lib/gcc/arm-elf/4.4.0/../../../../arm-elf/lib/thumb/interwork\libg.a(lib_a-strncpy.o)
                                0x14d (size before relaxing)
 .debug_str     0x00001feb       0xec c:/espardino_tmp/bin/../lib/gcc/arm-elf/4.4.0/../../../../arm-elf/lib/thumb/interwork\libg.a(lib_a-strstr.o)
                                0x1dd (size before relaxing)
 .debug_str     0x000020d7      0x1eb c:/espardino_tmp/bin/../lib/gcc/arm-elf/4.4.0/../../../../arm-elf/lib/thumb/interwork\libg.a(lib_a-strtod.o)
                                0x6be (size before relaxing)
 .debug_str     0x000022c2       0x6d c:/espardino_tmp/bin/../lib/gcc/arm-elf/4.4.0/../../../../arm-elf/lib/thumb/interwork\libg.a(lib_a-strtoul.o)
                                0x516 (size before relaxing)
 .debug_str     0x0000232f      0x369 c:/espardino_tmp/bin/../lib/gcc/arm-elf/4.4.0/../../../../arm-elf/lib/thumb/interwork\libg.a(lib_a-syscalls.o)
                                0x813 (size before relaxing)
 .debug_str     0x00002698       0x92 c:/espardino_tmp/bin/../lib/gcc/arm-elf/4.4.0/../../../../arm-elf/lib/thumb/interwork\libg.a(lib_a-tmpfile.o)
                                0x4e7 (size before relaxing)
 .debug_str     0x0000272a       0x8f c:/espardino_tmp/bin/../lib/gcc/arm-elf/4.4.0/../../../../arm-elf/lib/thumb/interwork\libg.a(lib_a-tmpnam.o)
                                0x52f (size before relaxing)
 .debug_str     0x000027b9       0x47 c:/espardino_tmp/bin/../lib/gcc/arm-elf/4.4.0/../../../../arm-elf/lib/thumb/interwork\libg.a(lib_a-closer.o)
                                0x4d1 (size before relaxing)
 .debug_str     0x00002800       0x56 c:/espardino_tmp/bin/../lib/gcc/arm-elf/4.4.0/../../../../arm-elf/lib/thumb/interwork\libg.a(lib_a-fdopen.o)
                                0x4f6 (size before relaxing)
 .debug_str     0x00002856      0x106 c:/espardino_tmp/bin/../lib/gcc/arm-elf/4.4.0/../../../../arm-elf/lib/thumb/interwork\libg.a(lib_a-findfp.o)
                                0x5c7 (size before relaxing)
 .debug_str     0x0000295c       0x4b c:/espardino_tmp/bin/../lib/gcc/arm-elf/4.4.0/../../../../arm-elf/lib/thumb/interwork\libg.a(lib_a-flags.o)
                                0x4d4 (size before relaxing)
 .debug_str     0x000029a7       0x3c c:/espardino_tmp/bin/../lib/gcc/arm-elf/4.4.0/../../../../arm-elf/lib/thumb/interwork\libg.a(lib_a-freer.o)
                                0x616 (size before relaxing)
 .debug_str     0x000029e3       0x62 c:/espardino_tmp/bin/../lib/gcc/arm-elf/4.4.0/../../../../arm-elf/lib/thumb/interwork\libg.a(lib_a-fwalk.o)
                                0x508 (size before relaxing)
 .debug_str     0x00002a45       0xdc c:/espardino_tmp/bin/../lib/gcc/arm-elf/4.4.0/../../../../arm-elf/lib/thumb/interwork\libg.a(lib_a-gdtoa-gethex.o)
                                0x693 (size before relaxing)
 .debug_str     0x00002b21       0x56 c:/espardino_tmp/bin/../lib/gcc/arm-elf/4.4.0/../../../../arm-elf/lib/thumb/interwork\libg.a(lib_a-gdtoa-hexnan.o)
                                0x252 (size before relaxing)
 .debug_str     0x00002b77       0x4f c:/espardino_tmp/bin/../lib/gcc/arm-elf/4.4.0/../../../../arm-elf/lib/thumb/interwork\libg.a(lib_a-getenv.o)
                                0x4ec (size before relaxing)
 .debug_str     0x00002bc6       0x60 c:/espardino_tmp/bin/../lib/gcc/arm-elf/4.4.0/../../../../arm-elf/lib/thumb/interwork\libg.a(lib_a-getenv_r.o)
                                0x503 (size before relaxing)
 .debug_str     0x00002c26       0x54 c:/espardino_tmp/bin/../lib/gcc/arm-elf/4.4.0/../../../../arm-elf/lib/thumb/interwork\libg.a(lib_a-memchr.o)
                                0x13d (size before relaxing)
 .debug_str     0x00002c7a       0x51 c:/espardino_tmp/bin/../lib/gcc/arm-elf/4.4.0/../../../../arm-elf/lib/thumb/interwork\libg.a(lib_a-memmove.o)
                                0x156 (size before relaxing)
 .debug_str     0x00002ccb       0x4d c:/espardino_tmp/bin/../lib/gcc/arm-elf/4.4.0/../../../../arm-elf/lib/thumb/interwork\libg.a(lib_a-memset.o)
                                0x137 (size before relaxing)
 .debug_str     0x00002d18      0x110 c:/espardino_tmp/bin/../lib/gcc/arm-elf/4.4.0/../../../../arm-elf/lib/thumb/interwork\libg.a(lib_a-mprec.o)
                                0x5e1 (size before relaxing)
 .debug_str     0x00002e28       0x45 c:/espardino_tmp/bin/../lib/gcc/arm-elf/4.4.0/../../../../arm-elf/lib/thumb/interwork\libg.a(lib_a-openr.o)
                                0x4df (size before relaxing)
 .debug_str     0x00002e6d       0x77 c:/espardino_tmp/bin/../lib/gcc/arm-elf/4.4.0/../../../../arm-elf/lib/thumb/interwork\libg.a(lib_a-reent.o)
                                0x512 (size before relaxing)
 .debug_str     0x00002ee4       0x4f c:/espardino_tmp/bin/../lib/gcc/arm-elf/4.4.0/../../../../arm-elf/lib/thumb/interwork\libg.a(lib_a-remove.o)
                                0x4e8 (size before relaxing)
 .debug_str     0x00002f33       0x44 c:/espardino_tmp/bin/../lib/gcc/arm-elf/4.4.0/../../../../arm-elf/lib/thumb/interwork\libg.a(lib_a-sf_nan.o)
                                0x13a (size before relaxing)
 .debug_str     0x00002f77       0x51 c:/espardino_tmp/bin/../lib/gcc/arm-elf/4.4.0/../../../../arm-elf/lib/thumb/interwork\libg.a(lib_a-signalr.o)
                                0x4db (size before relaxing)
 .debug_str     0x00002fc8       0x73 c:/espardino_tmp/bin/../lib/gcc/arm-elf/4.4.0/../../../../arm-elf/lib/thumb/interwork\libg.a(lib_a-sprintf.o)
                                0x510 (size before relaxing)
 .debug_str     0x0000303b       0x66 c:/espardino_tmp/bin/../lib/gcc/arm-elf/4.4.0/../../../../arm-elf/lib/thumb/interwork\libg.a(lib_a-stdio.o)
                                0x504 (size before relaxing)
 .debug_str     0x000030a1       0x48 c:/espardino_tmp/bin/../lib/gcc/arm-elf/4.4.0/../../../../arm-elf/lib/thumb/interwork\libg.a(lib_a-strncmp.o)
                                0x125 (size before relaxing)
 .debug_str     0x000030e9      0x15d c:/espardino_tmp/bin/../lib/gcc/arm-elf/4.4.0/../../../../arm-elf/lib/thumb/interwork\libg.a(lib_a-svfprintf.o)
                                0x6a6 (size before relaxing)
 .debug_str     0x00003246       0x49 c:/espardino_tmp/bin/../lib/gcc/arm-elf/4.4.0/../../../../arm-elf/lib/thumb/interwork\libg.a(lib_a-unlinkr.o)
                                0x4d8 (size before relaxing)
 .debug_str     0x0000328f       0x50 c:/espardino_tmp/bin/../lib/gcc/arm-elf/4.4.0/../../../../arm-elf/lib/thumb/interwork\libg.a(lib_a-writer.o)
                                0x4e1 (size before relaxing)
 .debug_str     0x000032df       0x19 c:/espardino_tmp/bin/../lib/gcc/arm-elf/4.4.0/../../../../arm-elf/lib/thumb/interwork\libg.a(lib_a-callocr.o)
                                0x515 (size before relaxing)
 .debug_str     0x000032f8       0xd0 c:/espardino_tmp/bin/../lib/gcc/arm-elf/4.4.0/../../../../arm-elf/lib/thumb/interwork\libg.a(lib_a-dtoa.o)
                                0x5d4 (size before relaxing)
 .debug_str     0x000033c8       0x4c c:/espardino_tmp/bin/../lib/gcc/arm-elf/4.4.0/../../../../arm-elf/lib/thumb/interwork\libg.a(lib_a-environ.o)
                                 0xa6 (size before relaxing)
 .debug_str     0x00003414       0x6a c:/espardino_tmp/bin/../lib/gcc/arm-elf/4.4.0/../../../../arm-elf/lib/thumb/interwork\libg.a(lib_a-envlock.o)
                                0x4ef (size before relaxing)
 .debug_str     0x0000347e       0x4f c:/espardino_tmp/bin/../lib/gcc/arm-elf/4.4.0/../../../../arm-elf/lib/thumb/interwork\libg.a(lib_a-fclose.o)
                                0x4e9 (size before relaxing)
 .debug_str     0x000034cd       0x56 c:/espardino_tmp/bin/../lib/gcc/arm-elf/4.4.0/../../../../arm-elf/lib/thumb/interwork\libg.a(lib_a-fflush.o)
                                0x505 (size before relaxing)
 .debug_str     0x00003523       0x47 c:/espardino_tmp/bin/../lib/gcc/arm-elf/4.4.0/../../../../arm-elf/lib/thumb/interwork\libg.a(lib_a-lseekr.o)
                                0x4df (size before relaxing)
 .debug_str     0x0000356a       0x45 c:/espardino_tmp/bin/../lib/gcc/arm-elf/4.4.0/../../../../arm-elf/lib/thumb/interwork\libg.a(lib_a-readr.o)
                                0x4df (size before relaxing)
 .debug_str     0x000035af       0x4a c:/espardino_tmp/bin/../lib/gcc/arm-elf/4.4.0/../../../../arm-elf/lib/thumb/interwork\libg.a(lib_a-s_isinfd.o)
                                0x143 (size before relaxing)
 .debug_str     0x000035f9       0xd1 c:/espardino_tmp/bin/../lib/gcc/arm-elf/4.4.0/thumb/interwork\libgcc.a(_muldi3.o)
                                0x17f (size before relaxing)

.debug_loc      0x00000000    0x11b39
 *(.debug_loc)
 .debug_loc     0x00000000      0x126 main.o
 .debug_loc     0x00000126      0x232 c:/espardino_tmp/bin/../lib/gcc/arm-elf/4.4.0/../../../../arm-elf/lib/thumb/interwork\libm.a(lib_a-s_atan.o)
 .debug_loc     0x00000358      0x242 c:/espardino_tmp/bin/../lib/gcc/arm-elf/4.4.0/../../../../arm-elf/lib/thumb/interwork\libm.a(lib_a-s_ceil.o)
 .debug_loc     0x0000059a       0x9c c:/espardino_tmp/bin/../lib/gcc/arm-elf/4.4.0/../../../../arm-elf/lib/thumb/interwork\libm.a(lib_a-s_cos.o)
 .debug_loc     0x00000636       0x37 c:/espardino_tmp/bin/../lib/gcc/arm-elf/4.4.0/../../../../arm-elf/lib/thumb/interwork\libm.a(lib_a-s_fabs.o)
 .debug_loc     0x0000066d      0x242 c:/espardino_tmp/bin/../lib/gcc/arm-elf/4.4.0/../../../../arm-elf/lib/thumb/interwork\libm.a(lib_a-s_floor.o)
 .debug_loc     0x000008af       0xf3 c:/espardino_tmp/bin/../lib/gcc/arm-elf/4.4.0/../../../../arm-elf/lib/thumb/interwork\libm.a(lib_a-s_frexp.o)
 .debug_loc     0x000009a2       0x90 c:/espardino_tmp/bin/../lib/gcc/arm-elf/4.4.0/../../../../arm-elf/lib/thumb/interwork\libm.a(lib_a-s_ldexp.o)
 .debug_loc     0x00000a32      0x12a c:/espardino_tmp/bin/../lib/gcc/arm-elf/4.4.0/../../../../arm-elf/lib/thumb/interwork\libm.a(lib_a-s_modf.o)
 .debug_loc     0x00000b5c      0x1e9 c:/espardino_tmp/bin/../lib/gcc/arm-elf/4.4.0/../../../../arm-elf/lib/thumb/interwork\libm.a(lib_a-s_scalbn.o)
 .debug_loc     0x00000d45       0x9c c:/espardino_tmp/bin/../lib/gcc/arm-elf/4.4.0/../../../../arm-elf/lib/thumb/interwork\libm.a(lib_a-s_sin.o)
 .debug_loc     0x00000de1       0x9c c:/espardino_tmp/bin/../lib/gcc/arm-elf/4.4.0/../../../../arm-elf/lib/thumb/interwork\libm.a(lib_a-s_tan.o)
 .debug_loc     0x00000e7d      0x146 c:/espardino_tmp/bin/../lib/gcc/arm-elf/4.4.0/../../../../arm-elf/lib/thumb/interwork\libm.a(lib_a-s_tanh.o)
 .debug_loc     0x00000fc3       0x80 c:/espardino_tmp/bin/../lib/gcc/arm-elf/4.4.0/../../../../arm-elf/lib/thumb/interwork\libm.a(lib_a-w_acos.o)
 .debug_loc     0x00001043       0x80 c:/espardino_tmp/bin/../lib/gcc/arm-elf/4.4.0/../../../../arm-elf/lib/thumb/interwork\libm.a(lib_a-w_asin.o)
 .debug_loc     0x000010c3       0x4f c:/espardino_tmp/bin/../lib/gcc/arm-elf/4.4.0/../../../../arm-elf/lib/thumb/interwork\libm.a(lib_a-w_atan2.o)
 .debug_loc     0x00001112       0x80 c:/espardino_tmp/bin/../lib/gcc/arm-elf/4.4.0/../../../../arm-elf/lib/thumb/interwork\libm.a(lib_a-w_cosh.o)
 .debug_loc     0x00001192       0x74 c:/espardino_tmp/bin/../lib/gcc/arm-elf/4.4.0/../../../../arm-elf/lib/thumb/interwork\libm.a(lib_a-w_exp.o)
 .debug_loc     0x00001206       0x88 c:/espardino_tmp/bin/../lib/gcc/arm-elf/4.4.0/../../../../arm-elf/lib/thumb/interwork\libm.a(lib_a-w_fmod.o)
 .debug_loc     0x0000128e       0x80 c:/espardino_tmp/bin/../lib/gcc/arm-elf/4.4.0/../../../../arm-elf/lib/thumb/interwork\libm.a(lib_a-w_log.o)
 .debug_loc     0x0000130e       0x80 c:/espardino_tmp/bin/../lib/gcc/arm-elf/4.4.0/../../../../arm-elf/lib/thumb/interwork\libm.a(lib_a-w_log10.o)
 .debug_loc     0x0000138e       0xb8 c:/espardino_tmp/bin/../lib/gcc/arm-elf/4.4.0/../../../../arm-elf/lib/thumb/interwork\libm.a(lib_a-w_pow.o)
 .debug_loc     0x00001446       0x7c c:/espardino_tmp/bin/../lib/gcc/arm-elf/4.4.0/../../../../arm-elf/lib/thumb/interwork\libm.a(lib_a-w_sinh.o)
 .debug_loc     0x000014c2       0x80 c:/espardino_tmp/bin/../lib/gcc/arm-elf/4.4.0/../../../../arm-elf/lib/thumb/interwork\libm.a(lib_a-w_sqrt.o)
 .debug_loc     0x00001542      0x175 c:/espardino_tmp/bin/../lib/gcc/arm-elf/4.4.0/../../../../arm-elf/lib/thumb/interwork\libm.a(lib_a-e_acos.o)
 .debug_loc     0x000016b7      0x14b c:/espardino_tmp/bin/../lib/gcc/arm-elf/4.4.0/../../../../arm-elf/lib/thumb/interwork\libm.a(lib_a-e_asin.o)
 .debug_loc     0x00001802      0x3aa c:/espardino_tmp/bin/../lib/gcc/arm-elf/4.4.0/../../../../arm-elf/lib/thumb/interwork\libm.a(lib_a-e_atan2.o)
 .debug_loc     0x00001bac      0x185 c:/espardino_tmp/bin/../lib/gcc/arm-elf/4.4.0/../../../../arm-elf/lib/thumb/interwork\libm.a(lib_a-e_cosh.o)
 .debug_loc     0x00001d31      0x1c6 c:/espardino_tmp/bin/../lib/gcc/arm-elf/4.4.0/../../../../arm-elf/lib/thumb/interwork\libm.a(lib_a-e_exp.o)
 .debug_loc     0x00001ef7      0x510 c:/espardino_tmp/bin/../lib/gcc/arm-elf/4.4.0/../../../../arm-elf/lib/thumb/interwork\libm.a(lib_a-e_fmod.o)
 .debug_loc     0x00002407      0x1fd c:/espardino_tmp/bin/../lib/gcc/arm-elf/4.4.0/../../../../arm-elf/lib/thumb/interwork\libm.a(lib_a-e_log.o)
 .debug_loc     0x00002604      0x128 c:/espardino_tmp/bin/../lib/gcc/arm-elf/4.4.0/../../../../arm-elf/lib/thumb/interwork\libm.a(lib_a-e_log10.o)
 .debug_loc     0x0000272c      0x8fa c:/espardino_tmp/bin/../lib/gcc/arm-elf/4.4.0/../../../../arm-elf/lib/thumb/interwork\libm.a(lib_a-e_pow.o)
 .debug_loc     0x00003026      0x267 c:/espardino_tmp/bin/../lib/gcc/arm-elf/4.4.0/../../../../arm-elf/lib/thumb/interwork\libm.a(lib_a-e_rem_pio2.o)
 .debug_loc     0x0000328d      0x174 c:/espardino_tmp/bin/../lib/gcc/arm-elf/4.4.0/../../../../arm-elf/lib/thumb/interwork\libm.a(lib_a-e_sinh.o)
 .debug_loc     0x00003401      0x3c7 c:/espardino_tmp/bin/../lib/gcc/arm-elf/4.4.0/../../../../arm-elf/lib/thumb/interwork\libm.a(lib_a-e_sqrt.o)
 .debug_loc     0x000037c8      0x115 c:/espardino_tmp/bin/../lib/gcc/arm-elf/4.4.0/../../../../arm-elf/lib/thumb/interwork\libm.a(lib_a-k_cos.o)
 .debug_loc     0x000038dd      0x831 c:/espardino_tmp/bin/../lib/gcc/arm-elf/4.4.0/../../../../arm-elf/lib/thumb/interwork\libm.a(lib_a-k_rem_pio2.o)
 .debug_loc     0x0000410e       0xc9 c:/espardino_tmp/bin/../lib/gcc/arm-elf/4.4.0/../../../../arm-elf/lib/thumb/interwork\libm.a(lib_a-k_sin.o)
 .debug_loc     0x000041d7      0x1c7 c:/espardino_tmp/bin/../lib/gcc/arm-elf/4.4.0/../../../../arm-elf/lib/thumb/interwork\libm.a(lib_a-k_tan.o)
 .debug_loc     0x0000439e       0x4f c:/espardino_tmp/bin/../lib/gcc/arm-elf/4.4.0/../../../../arm-elf/lib/thumb/interwork\libm.a(lib_a-s_copysign.o)
 .debug_loc     0x000043ed      0x244 c:/espardino_tmp/bin/../lib/gcc/arm-elf/4.4.0/../../../../arm-elf/lib/thumb/interwork\libm.a(lib_a-s_expm1.o)
 .debug_loc     0x00004631       0x18 c:/espardino_tmp/bin/../lib/gcc/arm-elf/4.4.0/../../../../arm-elf/lib/thumb/interwork\libm.a(lib_a-s_finite.o)
 .debug_loc     0x00004649       0x18 c:/espardino_tmp/bin/../lib/gcc/arm-elf/4.4.0/../../../../arm-elf/lib/thumb/interwork\libm.a(lib_a-s_isnand.o)
 .debug_loc     0x00004661       0x13 c:/espardino_tmp/bin/../lib/gcc/arm-elf/4.4.0/../../../../arm-elf/lib/thumb/interwork\libm.a(lib_a-s_matherr.o)
 .debug_loc     0x00004674       0x13 c:/espardino_tmp/bin/../lib/gcc/arm-elf/4.4.0/../../../../arm-elf/lib/thumb/interwork\libm.a(lib_a-s_nan.o)
 .debug_loc     0x00004687      0x235 c:/espardino_tmp/bin/../lib/gcc/arm-elf/4.4.0/../../../../arm-elf/lib/thumb/interwork\libm.a(lib_a-s_rint.o)
 .debug_loc     0x000048bc      0x11e c:/espardino_tmp/bin/../lib/gcc/arm-elf/4.4.0/../../../../arm-elf/lib/thumb/interwork\libg.a(lib_a-locale.o)
 .debug_loc     0x000049da       0x7a c:/espardino_tmp/bin/../lib/gcc/arm-elf/4.4.0/../../../../arm-elf/lib/thumb/interwork\libg.a(lib_a-malloc.o)
 .debug_loc     0x00004a54      0x7ee c:/espardino_tmp/bin/../lib/gcc/arm-elf/4.4.0/../../../../arm-elf/lib/thumb/interwork\libg.a(lib_a-mallocr.o)
 .debug_loc     0x00005242      0x128 c:/espardino_tmp/bin/../lib/gcc/arm-elf/4.4.0/../../../../arm-elf/lib/thumb/interwork\libg.a(lib_a-memcmp.o)
 .debug_loc     0x0000536a      0x13b c:/espardino_tmp/bin/../lib/gcc/arm-elf/4.4.0/../../../../arm-elf/lib/thumb/interwork\libg.a(lib_a-memcpy.o)
 .debug_loc     0x000054a5       0x1f c:/espardino_tmp/bin/../lib/gcc/arm-elf/4.4.0/../../../../arm-elf/lib/thumb/interwork\libg.a(lib_a-rand.o)
 .debug_loc     0x000054c4       0x5b c:/espardino_tmp/bin/../lib/gcc/arm-elf/4.4.0/../../../../arm-elf/lib/thumb/interwork\libg.a(lib_a-realloc.o)
 .debug_loc     0x0000551f      0x79a c:/espardino_tmp/bin/../lib/gcc/arm-elf/4.4.0/../../../../arm-elf/lib/thumb/interwork\libg.a(lib_a-reallocr.o)
 .debug_loc     0x00005cb9       0x79 c:/espardino_tmp/bin/../lib/gcc/arm-elf/4.4.0/../../../../arm-elf/lib/thumb/interwork\libg.a(lib_a-sbrkr.o)
 .debug_loc     0x00005d32       0x9a c:/espardino_tmp/bin/../lib/gcc/arm-elf/4.4.0/../../../../arm-elf/lib/thumb/interwork\libg.a(lib_a-strcat.o)
 .debug_loc     0x00005dcc      0x162 c:/espardino_tmp/bin/../lib/gcc/arm-elf/4.4.0/../../../../arm-elf/lib/thumb/interwork\libg.a(lib_a-strchr.o)
 .debug_loc     0x00005f2e       0xad c:/espardino_tmp/bin/../lib/gcc/arm-elf/4.4.0/../../../../arm-elf/lib/thumb/interwork\libg.a(lib_a-strcmp.o)
 .debug_loc     0x00005fdb       0x45 c:/espardino_tmp/bin/../lib/gcc/arm-elf/4.4.0/../../../../arm-elf/lib/thumb/interwork\libg.a(lib_a-strcoll.o)
 .debug_loc     0x00006020       0xaa c:/espardino_tmp/bin/../lib/gcc/arm-elf/4.4.0/../../../../arm-elf/lib/thumb/interwork\libg.a(lib_a-strcpy.o)
 .debug_loc     0x000060ca       0x5b c:/espardino_tmp/bin/../lib/gcc/arm-elf/4.4.0/../../../../arm-elf/lib/thumb/interwork\libg.a(lib_a-strcspn.o)
 .debug_loc     0x00006125       0x92 c:/espardino_tmp/bin/../lib/gcc/arm-elf/4.4.0/../../../../arm-elf/lib/thumb/interwork\libg.a(lib_a-strlen.o)
 .debug_loc     0x000061b7       0x7c c:/espardino_tmp/bin/../lib/gcc/arm-elf/4.4.0/../../../../arm-elf/lib/thumb/interwork\libg.a(lib_a-strncat.o)
 .debug_loc     0x00006233       0xff c:/espardino_tmp/bin/../lib/gcc/arm-elf/4.4.0/../../../../arm-elf/lib/thumb/interwork\libg.a(lib_a-strncpy.o)
 .debug_loc     0x00006332      0xe4d c:/espardino_tmp/bin/../lib/gcc/arm-elf/4.4.0/../../../../arm-elf/lib/thumb/interwork\libg.a(lib_a-strstr.o)
 .debug_loc     0x0000717f     0x1e5d c:/espardino_tmp/bin/../lib/gcc/arm-elf/4.4.0/../../../../arm-elf/lib/thumb/interwork\libg.a(lib_a-strtod.o)
 .debug_loc     0x00008fdc      0x24d c:/espardino_tmp/bin/../lib/gcc/arm-elf/4.4.0/../../../../arm-elf/lib/thumb/interwork\libg.a(lib_a-strtoul.o)
 .debug_loc     0x00009229      0xcc4 c:/espardino_tmp/bin/../lib/gcc/arm-elf/4.4.0/../../../../arm-elf/lib/thumb/interwork\libg.a(lib_a-syscalls.o)
 .debug_loc     0x00009eed      0x150 c:/espardino_tmp/bin/../lib/gcc/arm-elf/4.4.0/../../../../arm-elf/lib/thumb/interwork\libg.a(lib_a-tmpfile.o)
 .debug_loc     0x0000a03d      0x3d9 c:/espardino_tmp/bin/../lib/gcc/arm-elf/4.4.0/../../../../arm-elf/lib/thumb/interwork\libg.a(lib_a-tmpnam.o)
 .debug_loc     0x0000a416       0x79 c:/espardino_tmp/bin/../lib/gcc/arm-elf/4.4.0/../../../../arm-elf/lib/thumb/interwork\libg.a(lib_a-closer.o)
 .debug_loc     0x0000a48f      0x148 c:/espardino_tmp/bin/../lib/gcc/arm-elf/4.4.0/../../../../arm-elf/lib/thumb/interwork\libg.a(lib_a-fdopen.o)
 .debug_loc     0x0000a5d7      0x2f9 c:/espardino_tmp/bin/../lib/gcc/arm-elf/4.4.0/../../../../arm-elf/lib/thumb/interwork\libg.a(lib_a-findfp.o)
 .debug_loc     0x0000a8d0      0x12e c:/espardino_tmp/bin/../lib/gcc/arm-elf/4.4.0/../../../../arm-elf/lib/thumb/interwork\libg.a(lib_a-flags.o)
 .debug_loc     0x0000a9fe      0x3ab c:/espardino_tmp/bin/../lib/gcc/arm-elf/4.4.0/../../../../arm-elf/lib/thumb/interwork\libg.a(lib_a-freer.o)
 .debug_loc     0x0000ada9      0x1b3 c:/espardino_tmp/bin/../lib/gcc/arm-elf/4.4.0/../../../../arm-elf/lib/thumb/interwork\libg.a(lib_a-fwalk.o)
 .debug_loc     0x0000af5c      0xba4 c:/espardino_tmp/bin/../lib/gcc/arm-elf/4.4.0/../../../../arm-elf/lib/thumb/interwork\libg.a(lib_a-gdtoa-gethex.o)
 .debug_loc     0x0000bb00      0x4b9 c:/espardino_tmp/bin/../lib/gcc/arm-elf/4.4.0/../../../../arm-elf/lib/thumb/interwork\libg.a(lib_a-gdtoa-hexnan.o)
 .debug_loc     0x0000bfb9       0xa4 c:/espardino_tmp/bin/../lib/gcc/arm-elf/4.4.0/../../../../arm-elf/lib/thumb/interwork\libg.a(lib_a-getenv.o)
 .debug_loc     0x0000c05d      0x180 c:/espardino_tmp/bin/../lib/gcc/arm-elf/4.4.0/../../../../arm-elf/lib/thumb/interwork\libg.a(lib_a-getenv_r.o)
 .debug_loc     0x0000c1dd      0x115 c:/espardino_tmp/bin/../lib/gcc/arm-elf/4.4.0/../../../../arm-elf/lib/thumb/interwork\libg.a(lib_a-memchr.o)
 .debug_loc     0x0000c2f2      0x1ca c:/espardino_tmp/bin/../lib/gcc/arm-elf/4.4.0/../../../../arm-elf/lib/thumb/interwork\libg.a(lib_a-memmove.o)
 .debug_loc     0x0000c4bc       0xfc c:/espardino_tmp/bin/../lib/gcc/arm-elf/4.4.0/../../../../arm-elf/lib/thumb/interwork\libg.a(lib_a-memset.o)
 .debug_loc     0x0000c5b8     0x1627 c:/espardino_tmp/bin/../lib/gcc/arm-elf/4.4.0/../../../../arm-elf/lib/thumb/interwork\libg.a(lib_a-mprec.o)
 .debug_loc     0x0000dbdf       0x9f c:/espardino_tmp/bin/../lib/gcc/arm-elf/4.4.0/../../../../arm-elf/lib/thumb/interwork\libg.a(lib_a-openr.o)
 .debug_loc     0x0000dc7e      0x1fd c:/espardino_tmp/bin/../lib/gcc/arm-elf/4.4.0/../../../../arm-elf/lib/thumb/interwork\libg.a(lib_a-reent.o)
 .debug_loc     0x0000de7b       0x82 c:/espardino_tmp/bin/../lib/gcc/arm-elf/4.4.0/../../../../arm-elf/lib/thumb/interwork\libg.a(lib_a-remove.o)
 .debug_loc     0x0000defd       0x13 c:/espardino_tmp/bin/../lib/gcc/arm-elf/4.4.0/../../../../arm-elf/lib/thumb/interwork\libg.a(lib_a-sf_nan.o)
 .debug_loc     0x0000df10       0xbe c:/espardino_tmp/bin/../lib/gcc/arm-elf/4.4.0/../../../../arm-elf/lib/thumb/interwork\libg.a(lib_a-signalr.o)
 .debug_loc     0x0000dfce       0xb4 c:/espardino_tmp/bin/../lib/gcc/arm-elf/4.4.0/../../../../arm-elf/lib/thumb/interwork\libg.a(lib_a-sprintf.o)
 .debug_loc     0x0000e082      0x21a c:/espardino_tmp/bin/../lib/gcc/arm-elf/4.4.0/../../../../arm-elf/lib/thumb/interwork\libg.a(lib_a-stdio.o)
 .debug_loc     0x0000e29c       0xd9 c:/espardino_tmp/bin/../lib/gcc/arm-elf/4.4.0/../../../../arm-elf/lib/thumb/interwork\libg.a(lib_a-strncmp.o)
 .debug_loc     0x0000e375     0x1b0f c:/espardino_tmp/bin/../lib/gcc/arm-elf/4.4.0/../../../../arm-elf/lib/thumb/interwork\libg.a(lib_a-svfprintf.o)
 .debug_loc     0x0000fe84       0x79 c:/espardino_tmp/bin/../lib/gcc/arm-elf/4.4.0/../../../../arm-elf/lib/thumb/interwork\libg.a(lib_a-unlinkr.o)
 .debug_loc     0x0000fefd       0x9f c:/espardino_tmp/bin/../lib/gcc/arm-elf/4.4.0/../../../../arm-elf/lib/thumb/interwork\libg.a(lib_a-writer.o)
 .debug_loc     0x0000ff9c       0xe9 c:/espardino_tmp/bin/../lib/gcc/arm-elf/4.4.0/../../../../arm-elf/lib/thumb/interwork\libg.a(lib_a-callocr.o)
 .debug_loc     0x00010085     0x1514 c:/espardino_tmp/bin/../lib/gcc/arm-elf/4.4.0/../../../../arm-elf/lib/thumb/interwork\libg.a(lib_a-dtoa.o)
 .debug_loc     0x00011599       0xe2 c:/espardino_tmp/bin/../lib/gcc/arm-elf/4.4.0/../../../../arm-elf/lib/thumb/interwork\libg.a(lib_a-fclose.o)
 .debug_loc     0x0001167b      0x1ff c:/espardino_tmp/bin/../lib/gcc/arm-elf/4.4.0/../../../../arm-elf/lib/thumb/interwork\libg.a(lib_a-fflush.o)
 .debug_loc     0x0001187a       0x9f c:/espardino_tmp/bin/../lib/gcc/arm-elf/4.4.0/../../../../arm-elf/lib/thumb/interwork\libg.a(lib_a-lseekr.o)
 .debug_loc     0x00011919       0x9f c:/espardino_tmp/bin/../lib/gcc/arm-elf/4.4.0/../../../../arm-elf/lib/thumb/interwork\libg.a(lib_a-readr.o)
 .debug_loc     0x000119b8       0x2b c:/espardino_tmp/bin/../lib/gcc/arm-elf/4.4.0/../../../../arm-elf/lib/thumb/interwork\libg.a(lib_a-s_isinfd.o)
 .debug_loc     0x000119e3      0x156 c:/espardino_tmp/bin/../lib/gcc/arm-elf/4.4.0/thumb/interwork\libgcc.a(_muldi3.o)

.debug_macinfo
 *(.debug_macinfo)

.debug_weaknames
 *(.debug_weaknames)

.debug_funcnames
 *(.debug_funcnames)

.debug_typenames
 *(.debug_typenames)

.debug_varnames
 *(.debug_varnames)
OUTPUT(main.elf elf32-littlearm)

.ARM.attributes
                0x00000000       0x10
 .ARM.attributes
                0x00000000       0x10 startup.o
 .ARM.attributes
                0x00000010       0x10 main.o
 .ARM.attributes
                0x00000020       0x10 c:/espardino_tmp/bin/../lib/gcc/arm-elf/4.4.0/../../../../arm-elf/lib\liblua.a(lua_io_wrappers.o)
 .ARM.attributes
                0x00000030       0x10 c:/espardino_tmp/bin/../lib/gcc/arm-elf/4.4.0/../../../../arm-elf/lib\liblua.a(lualib.o)
 .ARM.attributes
                0x00000040       0x10 c:/espardino_tmp/bin/../lib/gcc/arm-elf/4.4.0/../../../../arm-elf/lib\liblua.a(lualib_console.o)
 .ARM.attributes
                0x00000050       0x10 c:/espardino_tmp/bin/../lib/gcc/arm-elf/4.4.0/../../../../arm-elf/lib\liblua.a(all.o)
 .ARM.attributes
                0x00000060       0x10 c:/espardino_tmp/bin/../lib/gcc/arm-elf/4.4.0/../../../../arm-elf/lib\liblua.a(lualib_bit.o)
 .ARM.attributes
                0x00000070       0x10 c:/espardino_tmp/bin/../lib/gcc/arm-elf/4.4.0/../../../../arm-elf/lib/thumb/interwork\libffs.a(ff.o)
 .ARM.attributes
                0x00000080       0x10 c:/espardino_tmp/bin/../lib/gcc/arm-elf/4.4.0/../../../../arm-elf/lib/thumb/interwork\libffs.a(sd_spi_lpc2000.o)
 .ARM.attributes
                0x00000090       0x10 c:/espardino_tmp/bin/../lib/gcc/arm-elf/4.4.0/../../../../arm-elf/lib/thumb/interwork\libffs.a(ccsbcs.o)
 .ARM.attributes
                0x000000a0       0x10 c:/espardino_tmp/bin/../lib/gcc/arm-elf/4.4.0/../../../../arm-elf/lib/thumb/interwork\libffs.a(fattime.o)
 .ARM.attributes
                0x000000b0       0x10 c:/espardino_tmp/bin/../lib/gcc/arm-elf/4.4.0/../../../../arm-elf/lib/thumb/interwork\libvcom.a(main_serial.o)
 .ARM.attributes
                0x000000c0       0x10 c:/espardino_tmp/bin/../lib/gcc/arm-elf/4.4.0/../../../../arm-elf/lib/thumb/interwork\libvcom.a(usbhw_lpc.o)
 .ARM.attributes
                0x000000d0       0x10 c:/espardino_tmp/bin/../lib/gcc/arm-elf/4.4.0/../../../../arm-elf/lib/thumb/interwork\libvcom.a(usbcontrol.o)
 .ARM.attributes
                0x000000e0       0x10 c:/espardino_tmp/bin/../lib/gcc/arm-elf/4.4.0/../../../../arm-elf/lib/thumb/interwork\libvcom.a(usbstdreq.o)
 .ARM.attributes
                0x000000f0       0x10 c:/espardino_tmp/bin/../lib/gcc/arm-elf/4.4.0/../../../../arm-elf/lib/thumb/interwork\libvcom.a(usbinit.o)
 .ARM.attributes
                0x00000100       0x10 c:/espardino_tmp/bin/../lib/gcc/arm-elf/4.4.0/../../../../arm-elf/lib/thumb/interwork\libvcom.a(serial_fifo.o)
 .ARM.attributes
                0x00000110       0x10 c:/espardino_tmp/bin/../lib/gcc/arm-elf/4.4.0/../../../../arm-elf/lib/thumb/interwork\libvcom.a(armVIC.o)
 .ARM.attributes
                0x00000120       0x10 c:/espardino_tmp/bin/../lib/gcc/arm-elf/4.4.0/../../../../arm-elf/lib\libmicro214x.a(leds.o)
 .ARM.attributes
                0x00000130       0x10 c:/espardino_tmp/bin/../lib/gcc/arm-elf/4.4.0/../../../../arm-elf/lib\libmicro214x.a(adc.o)
 .ARM.attributes
                0x00000140       0x10 c:/espardino_tmp/bin/../lib/gcc/arm-elf/4.4.0/../../../../arm-elf/lib\libmicro214x.a(sysclocks.o)
 .ARM.attributes
                0x00000150       0x10 c:/espardino_tmp/bin/../lib/gcc/arm-elf/4.4.0/../../../../arm-elf/lib\libmicro214x.a(iolib.o)
 .ARM.attributes
                0x00000160       0x10 c:/espardino_tmp/bin/../lib/gcc/arm-elf/4.4.0/../../../../arm-elf/lib\libmicro214x.a(rtc.o)
 .ARM.attributes
                0x00000170       0x10 c:/espardino_tmp/bin/../lib/gcc/arm-elf/4.4.0/../../../../arm-elf/lib\libmicro214x.a(miniprintf.o)

.debug_ranges   0x00000000      0xc20
 .debug_ranges  0x00000000       0x20 c:/espardino_tmp/bin/../lib/gcc/arm-elf/4.4.0/../../../../arm-elf/lib/thumb/interwork\libm.a(lib_a-s_atan.o)
 .debug_ranges  0x00000020       0x18 c:/espardino_tmp/bin/../lib/gcc/arm-elf/4.4.0/../../../../arm-elf/lib/thumb/interwork\libm.a(lib_a-s_ceil.o)
 .debug_ranges  0x00000038       0x18 c:/espardino_tmp/bin/../lib/gcc/arm-elf/4.4.0/../../../../arm-elf/lib/thumb/interwork\libm.a(lib_a-s_fabs.o)
 .debug_ranges  0x00000050       0x18 c:/espardino_tmp/bin/../lib/gcc/arm-elf/4.4.0/../../../../arm-elf/lib/thumb/interwork\libm.a(lib_a-s_floor.o)
 .debug_ranges  0x00000068       0x18 c:/espardino_tmp/bin/../lib/gcc/arm-elf/4.4.0/../../../../arm-elf/lib/thumb/interwork\libm.a(lib_a-s_modf.o)
 .debug_ranges  0x00000080       0x38 c:/espardino_tmp/bin/../lib/gcc/arm-elf/4.4.0/../../../../arm-elf/lib/thumb/interwork\libm.a(lib_a-e_acos.o)
 .debug_ranges  0x000000b8       0x30 c:/espardino_tmp/bin/../lib/gcc/arm-elf/4.4.0/../../../../arm-elf/lib/thumb/interwork\libm.a(lib_a-e_asin.o)
 .debug_ranges  0x000000e8       0x18 c:/espardino_tmp/bin/../lib/gcc/arm-elf/4.4.0/../../../../arm-elf/lib/thumb/interwork\libm.a(lib_a-e_exp.o)
 .debug_ranges  0x00000100       0x48 c:/espardino_tmp/bin/../lib/gcc/arm-elf/4.4.0/../../../../arm-elf/lib/thumb/interwork\libm.a(lib_a-e_fmod.o)
 .debug_ranges  0x00000148       0x30 c:/espardino_tmp/bin/../lib/gcc/arm-elf/4.4.0/../../../../arm-elf/lib/thumb/interwork\libm.a(lib_a-e_log.o)
 .debug_ranges  0x00000178       0x38 c:/espardino_tmp/bin/../lib/gcc/arm-elf/4.4.0/../../../../arm-elf/lib/thumb/interwork\libm.a(lib_a-e_log10.o)
 .debug_ranges  0x000001b0      0x150 c:/espardino_tmp/bin/../lib/gcc/arm-elf/4.4.0/../../../../arm-elf/lib/thumb/interwork\libm.a(lib_a-e_pow.o)
 .debug_ranges  0x00000300       0x38 c:/espardino_tmp/bin/../lib/gcc/arm-elf/4.4.0/../../../../arm-elf/lib/thumb/interwork\libm.a(lib_a-e_rem_pio2.o)
 .debug_ranges  0x00000338       0x30 c:/espardino_tmp/bin/../lib/gcc/arm-elf/4.4.0/../../../../arm-elf/lib/thumb/interwork\libm.a(lib_a-e_sqrt.o)
 .debug_ranges  0x00000368       0x18 c:/espardino_tmp/bin/../lib/gcc/arm-elf/4.4.0/../../../../arm-elf/lib/thumb/interwork\libm.a(lib_a-k_tan.o)
 .debug_ranges  0x00000380       0x18 c:/espardino_tmp/bin/../lib/gcc/arm-elf/4.4.0/../../../../arm-elf/lib/thumb/interwork\libm.a(lib_a-s_copysign.o)
 .debug_ranges  0x00000398       0x60 c:/espardino_tmp/bin/../lib/gcc/arm-elf/4.4.0/../../../../arm-elf/lib/thumb/interwork\libm.a(lib_a-s_expm1.o)
 .debug_ranges  0x000003f8       0x70 c:/espardino_tmp/bin/../lib/gcc/arm-elf/4.4.0/../../../../arm-elf/lib/thumb/interwork\libm.a(lib_a-s_rint.o)
 .debug_ranges  0x00000468       0x60 c:/espardino_tmp/bin/../lib/gcc/arm-elf/4.4.0/../../../../arm-elf/lib/thumb/interwork\libg.a(lib_a-mallocr.o)
 .debug_ranges  0x000004c8       0x68 c:/espardino_tmp/bin/../lib/gcc/arm-elf/4.4.0/../../../../arm-elf/lib/thumb/interwork\libg.a(lib_a-reallocr.o)
 .debug_ranges  0x00000530       0xb0 c:/espardino_tmp/bin/../lib/gcc/arm-elf/4.4.0/../../../../arm-elf/lib/thumb/interwork\libg.a(lib_a-strstr.o)
 .debug_ranges  0x000005e0      0x118 c:/espardino_tmp/bin/../lib/gcc/arm-elf/4.4.0/../../../../arm-elf/lib/thumb/interwork\libg.a(lib_a-strtod.o)
 .debug_ranges  0x000006f8      0x220 c:/espardino_tmp/bin/../lib/gcc/arm-elf/4.4.0/../../../../arm-elf/lib/thumb/interwork\libg.a(lib_a-syscalls.o)
 .debug_ranges  0x00000918       0x18 c:/espardino_tmp/bin/../lib/gcc/arm-elf/4.4.0/../../../../arm-elf/lib/thumb/interwork\libg.a(lib_a-tmpnam.o)
 .debug_ranges  0x00000930       0x60 c:/espardino_tmp/bin/../lib/gcc/arm-elf/4.4.0/../../../../arm-elf/lib/thumb/interwork\libg.a(lib_a-fwalk.o)
 .debug_ranges  0x00000990       0x30 c:/espardino_tmp/bin/../lib/gcc/arm-elf/4.4.0/../../../../arm-elf/lib/thumb/interwork\libg.a(lib_a-gdtoa-gethex.o)
 .debug_ranges  0x000009c0       0x80 c:/espardino_tmp/bin/../lib/gcc/arm-elf/4.4.0/../../../../arm-elf/lib/thumb/interwork\libg.a(lib_a-mprec.o)
 .debug_ranges  0x00000a40      0x170 c:/espardino_tmp/bin/../lib/gcc/arm-elf/4.4.0/../../../../arm-elf/lib/thumb/interwork\libg.a(lib_a-svfprintf.o)
 .debug_ranges  0x00000bb0       0x18 c:/espardino_tmp/bin/../lib/gcc/arm-elf/4.4.0/../../../../arm-elf/lib/thumb/interwork\libg.a(lib_a-callocr.o)
 .debug_ranges  0x00000bc8       0x18 c:/espardino_tmp/bin/../lib/gcc/arm-elf/4.4.0/../../../../arm-elf/lib/thumb/interwork\libg.a(lib_a-fflush.o)
 .debug_ranges  0x00000be0       0x40 c:/espardino_tmp/bin/../lib/gcc/arm-elf/4.4.0/thumb/interwork\libgcc.a(_muldi3.o)

Cross Reference Table

Symbol                                            File
ADC_check_port_pin                                c:/espardino_tmp/bin/../lib/gcc/arm-elf/4.4.0/../../../../arm-elf/lib\liblua.a(lualib.o)
ADC_clkdiv_calc                                   c:/espardino_tmp/bin/../lib/gcc/arm-elf/4.4.0/../../../../arm-elf/lib\libmicro214x.a(adc.o)
ADC_done                                          c:/espardino_tmp/bin/../lib/gcc/arm-elf/4.4.0/../../../../arm-elf/lib\libmicro214x.a(adc.o)
ADC_get                                           c:/espardino_tmp/bin/../lib/gcc/arm-elf/4.4.0/../../../../arm-elf/lib\libmicro214x.a(adc.o)
ADC_init                                          c:/espardino_tmp/bin/../lib/gcc/arm-elf/4.4.0/../../../../arm-elf/lib\libmicro214x.a(adc.o)
                                                  c:/espardino_tmp/bin/../lib/gcc/arm-elf/4.4.0/../../../../arm-elf/lib\liblua.a(lualib.o)
ADC_read                                          c:/espardino_tmp/bin/../lib/gcc/arm-elf/4.4.0/../../../../arm-elf/lib\libmicro214x.a(adc.o)
                                                  c:/espardino_tmp/bin/../lib/gcc/arm-elf/4.4.0/../../../../arm-elf/lib\liblua.a(lualib.o)
ADC_set_precission                                c:/espardino_tmp/bin/../lib/gcc/arm-elf/4.4.0/../../../../arm-elf/lib\libmicro214x.a(adc.o)
ADC_start                                         c:/espardino_tmp/bin/../lib/gcc/arm-elf/4.4.0/../../../../arm-elf/lib\libmicro214x.a(adc.o)
IO_check_port_pin                                 c:/espardino_tmp/bin/../lib/gcc/arm-elf/4.4.0/../../../../arm-elf/lib\liblua.a(lualib.o)
IO_get_mode                                       c:/espardino_tmp/bin/../lib/gcc/arm-elf/4.4.0/../../../../arm-elf/lib\libmicro214x.a(iolib.o)
                                                  c:/espardino_tmp/bin/../lib/gcc/arm-elf/4.4.0/../../../../arm-elf/lib/thumb/interwork\libffs.a(sd_spi_lpc2000.o)
IO_init                                           c:/espardino_tmp/bin/../lib/gcc/arm-elf/4.4.0/../../../../arm-elf/lib\libmicro214x.a(iolib.o)
IO_input                                          c:/espardino_tmp/bin/../lib/gcc/arm-elf/4.4.0/../../../../arm-elf/lib\libmicro214x.a(iolib.o)
                                                  c:/espardino_tmp/bin/../lib/gcc/arm-elf/4.4.0/../../../../arm-elf/lib/thumb/interwork\libffs.a(sd_spi_lpc2000.o)
                                                  c:/espardino_tmp/bin/../lib/gcc/arm-elf/4.4.0/../../../../arm-elf/lib\liblua.a(lualib.o)
IO_output                                         c:/espardino_tmp/bin/../lib/gcc/arm-elf/4.4.0/../../../../arm-elf/lib\libmicro214x.a(iolib.o)
IO_output_high                                    c:/espardino_tmp/bin/../lib/gcc/arm-elf/4.4.0/../../../../arm-elf/lib\libmicro214x.a(iolib.o)
                                                  c:/espardino_tmp/bin/../lib/gcc/arm-elf/4.4.0/../../../../arm-elf/lib\libmicro214x.a(leds.o)
                                                  c:/espardino_tmp/bin/../lib/gcc/arm-elf/4.4.0/../../../../arm-elf/lib\liblua.a(lualib.o)
IO_output_low                                     c:/espardino_tmp/bin/../lib/gcc/arm-elf/4.4.0/../../../../arm-elf/lib\libmicro214x.a(iolib.o)
                                                  c:/espardino_tmp/bin/../lib/gcc/arm-elf/4.4.0/../../../../arm-elf/lib\libmicro214x.a(leds.o)
                                                  c:/espardino_tmp/bin/../lib/gcc/arm-elf/4.4.0/../../../../arm-elf/lib\liblua.a(lualib.o)
LEDS_init                                         c:/espardino_tmp/bin/../lib/gcc/arm-elf/4.4.0/../../../../arm-elf/lib\libmicro214x.a(leds.o)
                                                  main.o
LEDS_off                                          c:/espardino_tmp/bin/../lib/gcc/arm-elf/4.4.0/../../../../arm-elf/lib\libmicro214x.a(leds.o)
                                                  c:/espardino_tmp/bin/../lib/gcc/arm-elf/4.4.0/../../../../arm-elf/lib\liblua.a(lualib.o)
LEDS_on                                           c:/espardino_tmp/bin/../lib/gcc/arm-elf/4.4.0/../../../../arm-elf/lib\libmicro214x.a(leds.o)
                                                  c:/espardino_tmp/bin/../lib/gcc/arm-elf/4.4.0/../../../../arm-elf/lib\liblua.a(lualib.o)
                                                  main.o
LUA_close                                         c:/espardino_tmp/bin/../lib/gcc/arm-elf/4.4.0/../../../../arm-elf/lib\liblua.a(lualib.o)
                                                  main.o
LUA_console                                       c:/espardino_tmp/bin/../lib/gcc/arm-elf/4.4.0/../../../../arm-elf/lib\liblua.a(lualib_console.o)
                                                  main.o
LUA_init                                          c:/espardino_tmp/bin/../lib/gcc/arm-elf/4.4.0/../../../../arm-elf/lib\liblua.a(lualib.o)
                                                  main.o
LUA_setup_fatfs                                   c:/espardino_tmp/bin/../lib/gcc/arm-elf/4.4.0/../../../../arm-elf/lib\liblua.a(lua_io_wrappers.o)
                                                  main.o
RAM_LENGTH                                        startup.o
RTC_get                                           c:/espardino_tmp/bin/../lib/gcc/arm-elf/4.4.0/../../../../arm-elf/lib\libmicro214x.a(rtc.o)
                                                  c:/espardino_tmp/bin/../lib/gcc/arm-elf/4.4.0/../../../../arm-elf/lib/thumb/interwork\libffs.a(fattime.o)
RTC_set                                           c:/espardino_tmp/bin/../lib/gcc/arm-elf/4.4.0/../../../../arm-elf/lib\libmicro214x.a(rtc.o)
SYSCLK_get_speed                                  c:/espardino_tmp/bin/../lib/gcc/arm-elf/4.4.0/../../../../arm-elf/lib\libmicro214x.a(sysclocks.o)
SYSCLK_set_speed                                  c:/espardino_tmp/bin/../lib/gcc/arm-elf/4.4.0/../../../../arm-elf/lib\libmicro214x.a(sysclocks.o)
SYSCLK_speed_Hz                                   c:/espardino_tmp/bin/../lib/gcc/arm-elf/4.4.0/../../../../arm-elf/lib\libmicro214x.a(sysclocks.o)
USBGetDescriptor                                  c:/espardino_tmp/bin/../lib/gcc/arm-elf/4.4.0/../../../../arm-elf/lib/thumb/interwork\libvcom.a(usbstdreq.o)
USBHandleControlTransfer                          c:/espardino_tmp/bin/../lib/gcc/arm-elf/4.4.0/../../../../arm-elf/lib/thumb/interwork\libvcom.a(usbcontrol.o)
                                                  c:/espardino_tmp/bin/../lib/gcc/arm-elf/4.4.0/../../../../arm-elf/lib/thumb/interwork\libvcom.a(usbinit.o)
USBHandleStandardRequest                          c:/espardino_tmp/bin/../lib/gcc/arm-elf/4.4.0/../../../../arm-elf/lib/thumb/interwork\libvcom.a(usbstdreq.o)
                                                  c:/espardino_tmp/bin/../lib/gcc/arm-elf/4.4.0/../../../../arm-elf/lib/thumb/interwork\libvcom.a(usbinit.o)
USBHwConfigDevice                                 c:/espardino_tmp/bin/../lib/gcc/arm-elf/4.4.0/../../../../arm-elf/lib/thumb/interwork\libvcom.a(usbhw_lpc.o)
                                                  c:/espardino_tmp/bin/../lib/gcc/arm-elf/4.4.0/../../../../arm-elf/lib/thumb/interwork\libvcom.a(usbstdreq.o)
USBHwConnect                                      c:/espardino_tmp/bin/../lib/gcc/arm-elf/4.4.0/../../../../arm-elf/lib/thumb/interwork\libvcom.a(usbhw_lpc.o)
                                                  c:/espardino_tmp/bin/../lib/gcc/arm-elf/4.4.0/../../../../arm-elf/lib/thumb/interwork\libvcom.a(main_serial.o)
USBHwEPConfig                                     c:/espardino_tmp/bin/../lib/gcc/arm-elf/4.4.0/../../../../arm-elf/lib/thumb/interwork\libvcom.a(usbhw_lpc.o)
                                                  c:/espardino_tmp/bin/../lib/gcc/arm-elf/4.4.0/../../../../arm-elf/lib/thumb/interwork\libvcom.a(usbinit.o)
                                                  c:/espardino_tmp/bin/../lib/gcc/arm-elf/4.4.0/../../../../arm-elf/lib/thumb/interwork\libvcom.a(usbstdreq.o)
USBHwEPGetStatus                                  c:/espardino_tmp/bin/../lib/gcc/arm-elf/4.4.0/../../../../arm-elf/lib/thumb/interwork\libvcom.a(usbhw_lpc.o)
                                                  c:/espardino_tmp/bin/../lib/gcc/arm-elf/4.4.0/../../../../arm-elf/lib/thumb/interwork\libvcom.a(usbstdreq.o)
USBHwEPRead                                       c:/espardino_tmp/bin/../lib/gcc/arm-elf/4.4.0/../../../../arm-elf/lib/thumb/interwork\libvcom.a(usbhw_lpc.o)
                                                  c:/espardino_tmp/bin/../lib/gcc/arm-elf/4.4.0/../../../../arm-elf/lib/thumb/interwork\libvcom.a(usbcontrol.o)
                                                  c:/espardino_tmp/bin/../lib/gcc/arm-elf/4.4.0/../../../../arm-elf/lib/thumb/interwork\libvcom.a(main_serial.o)
USBHwEPStall                                      c:/espardino_tmp/bin/../lib/gcc/arm-elf/4.4.0/../../../../arm-elf/lib/thumb/interwork\libvcom.a(usbhw_lpc.o)
                                                  c:/espardino_tmp/bin/../lib/gcc/arm-elf/4.4.0/../../../../arm-elf/lib/thumb/interwork\libvcom.a(usbstdreq.o)
                                                  c:/espardino_tmp/bin/../lib/gcc/arm-elf/4.4.0/../../../../arm-elf/lib/thumb/interwork\libvcom.a(usbcontrol.o)
USBHwEPWrite                                      c:/espardino_tmp/bin/../lib/gcc/arm-elf/4.4.0/../../../../arm-elf/lib/thumb/interwork\libvcom.a(usbhw_lpc.o)
                                                  c:/espardino_tmp/bin/../lib/gcc/arm-elf/4.4.0/../../../../arm-elf/lib/thumb/interwork\libvcom.a(usbcontrol.o)
                                                  c:/espardino_tmp/bin/../lib/gcc/arm-elf/4.4.0/../../../../arm-elf/lib/thumb/interwork\libvcom.a(main_serial.o)
USBHwISR                                          c:/espardino_tmp/bin/../lib/gcc/arm-elf/4.4.0/../../../../arm-elf/lib/thumb/interwork\libvcom.a(usbhw_lpc.o)
                                                  c:/espardino_tmp/bin/../lib/gcc/arm-elf/4.4.0/../../../../arm-elf/lib/thumb/interwork\libvcom.a(main_serial.o)
USBHwInit                                         c:/espardino_tmp/bin/../lib/gcc/arm-elf/4.4.0/../../../../arm-elf/lib/thumb/interwork\libvcom.a(usbhw_lpc.o)
                                                  c:/espardino_tmp/bin/../lib/gcc/arm-elf/4.4.0/../../../../arm-elf/lib/thumb/interwork\libvcom.a(usbinit.o)
USBHwNakIntEnable                                 c:/espardino_tmp/bin/../lib/gcc/arm-elf/4.4.0/../../../../arm-elf/lib/thumb/interwork\libvcom.a(usbhw_lpc.o)
                                                  c:/espardino_tmp/bin/../lib/gcc/arm-elf/4.4.0/../../../../arm-elf/lib/thumb/interwork\libvcom.a(main_serial.o)
USBHwRegisterDevIntHandler                        c:/espardino_tmp/bin/../lib/gcc/arm-elf/4.4.0/../../../../arm-elf/lib/thumb/interwork\libvcom.a(usbhw_lpc.o)
                                                  c:/espardino_tmp/bin/../lib/gcc/arm-elf/4.4.0/../../../../arm-elf/lib/thumb/interwork\libvcom.a(usbinit.o)
USBHwRegisterEPIntHandler                         c:/espardino_tmp/bin/../lib/gcc/arm-elf/4.4.0/../../../../arm-elf/lib/thumb/interwork\libvcom.a(usbhw_lpc.o)
                                                  c:/espardino_tmp/bin/../lib/gcc/arm-elf/4.4.0/../../../../arm-elf/lib/thumb/interwork\libvcom.a(usbinit.o)
                                                  c:/espardino_tmp/bin/../lib/gcc/arm-elf/4.4.0/../../../../arm-elf/lib/thumb/interwork\libvcom.a(main_serial.o)
USBHwRegisterFrameHandler                         c:/espardino_tmp/bin/../lib/gcc/arm-elf/4.4.0/../../../../arm-elf/lib/thumb/interwork\libvcom.a(usbhw_lpc.o)
                                                  c:/espardino_tmp/bin/../lib/gcc/arm-elf/4.4.0/../../../../arm-elf/lib/thumb/interwork\libvcom.a(main_serial.o)
USBHwSetAddress                                   c:/espardino_tmp/bin/../lib/gcc/arm-elf/4.4.0/../../../../arm-elf/lib/thumb/interwork\libvcom.a(usbhw_lpc.o)
                                                  c:/espardino_tmp/bin/../lib/gcc/arm-elf/4.4.0/../../../../arm-elf/lib/thumb/interwork\libvcom.a(usbstdreq.o)
USBInit                                           c:/espardino_tmp/bin/../lib/gcc/arm-elf/4.4.0/../../../../arm-elf/lib/thumb/interwork\libvcom.a(usbinit.o)
                                                  c:/espardino_tmp/bin/../lib/gcc/arm-elf/4.4.0/../../../../arm-elf/lib/thumb/interwork\libvcom.a(main_serial.o)
USBRegisterCustomReqHandler                       c:/espardino_tmp/bin/../lib/gcc/arm-elf/4.4.0/../../../../arm-elf/lib/thumb/interwork\libvcom.a(usbstdreq.o)
USBRegisterDescriptors                            c:/espardino_tmp/bin/../lib/gcc/arm-elf/4.4.0/../../../../arm-elf/lib/thumb/interwork\libvcom.a(usbstdreq.o)
                                                  c:/espardino_tmp/bin/../lib/gcc/arm-elf/4.4.0/../../../../arm-elf/lib/thumb/interwork\libvcom.a(main_serial.o)
USBRegisterRequestHandler                         c:/espardino_tmp/bin/../lib/gcc/arm-elf/4.4.0/../../../../arm-elf/lib/thumb/interwork\libvcom.a(usbcontrol.o)
                                                  c:/espardino_tmp/bin/../lib/gcc/arm-elf/4.4.0/../../../../arm-elf/lib/thumb/interwork\libvcom.a(usbinit.o)
                                                  c:/espardino_tmp/bin/../lib/gcc/arm-elf/4.4.0/../../../../arm-elf/lib/thumb/interwork\libvcom.a(main_serial.o)
VCOM_getchar                                      c:/espardino_tmp/bin/../lib/gcc/arm-elf/4.4.0/../../../../arm-elf/lib/thumb/interwork\libvcom.a(main_serial.o)
                                                  c:/espardino_tmp/bin/../lib/gcc/arm-elf/4.4.0/../../../../arm-elf/lib\liblua.a(lua_io_wrappers.o)
                                                  main.o
VCOM_getchar_nonblock                             c:/espardino_tmp/bin/../lib/gcc/arm-elf/4.4.0/../../../../arm-elf/lib/thumb/interwork\libvcom.a(main_serial.o)
VCOM_init                                         c:/espardino_tmp/bin/../lib/gcc/arm-elf/4.4.0/../../../../arm-elf/lib/thumb/interwork\libvcom.a(main_serial.o)
                                                  main.o
VCOM_init_internal                                c:/espardino_tmp/bin/../lib/gcc/arm-elf/4.4.0/../../../../arm-elf/lib/thumb/interwork\libvcom.a(main_serial.o)
VCOM_kbhit                                        c:/espardino_tmp/bin/../lib/gcc/arm-elf/4.4.0/../../../../arm-elf/lib/thumb/interwork\libvcom.a(main_serial.o)
VCOM_putchar                                      c:/espardino_tmp/bin/../lib/gcc/arm-elf/4.4.0/../../../../arm-elf/lib/thumb/interwork\libvcom.a(main_serial.o)
VCOM_putchar_nl                                   c:/espardino_tmp/bin/../lib/gcc/arm-elf/4.4.0/../../../../arm-elf/lib/thumb/interwork\libvcom.a(main_serial.o)
                                                  c:/espardino_tmp/bin/../lib/gcc/arm-elf/4.4.0/../../../../arm-elf/lib\liblua.a(lua_io_wrappers.o)
                                                  main.o
VCOM_putchar_nonblock                             c:/espardino_tmp/bin/../lib/gcc/arm-elf/4.4.0/../../../../arm-elf/lib/thumb/interwork\libvcom.a(main_serial.o)
VCOM_putchar_nonblock_nl                          c:/espardino_tmp/bin/../lib/gcc/arm-elf/4.4.0/../../../../arm-elf/lib/thumb/interwork\libvcom.a(main_serial.o)
VCOM_puts                                         c:/espardino_tmp/bin/../lib/gcc/arm-elf/4.4.0/../../../../arm-elf/lib/thumb/interwork\libvcom.a(main_serial.o)
VPB_get_speed                                     c:/espardino_tmp/bin/../lib/gcc/arm-elf/4.4.0/../../../../arm-elf/lib\libmicro214x.a(sysclocks.o)
                                                  c:/espardino_tmp/bin/../lib/gcc/arm-elf/4.4.0/../../../../arm-elf/lib\libmicro214x.a(adc.o)
                                                  c:/espardino_tmp/bin/../lib/gcc/arm-elf/4.4.0/../../../../arm-elf/lib\liblua.a(lualib.o)
VPB_set_speed                                     c:/espardino_tmp/bin/../lib/gcc/arm-elf/4.4.0/../../../../arm-elf/lib\libmicro214x.a(sysclocks.o)
VPB_speed_Hz                                      c:/espardino_tmp/bin/../lib/gcc/arm-elf/4.4.0/../../../../arm-elf/lib\libmicro214x.a(sysclocks.o)
_Balloc                                           c:/espardino_tmp/bin/../lib/gcc/arm-elf/4.4.0/../../../../arm-elf/lib/thumb/interwork\libg.a(lib_a-mprec.o)
                                                  c:/espardino_tmp/bin/../lib/gcc/arm-elf/4.4.0/../../../../arm-elf/lib/thumb/interwork\libg.a(lib_a-dtoa.o)
                                                  c:/espardino_tmp/bin/../lib/gcc/arm-elf/4.4.0/../../../../arm-elf/lib/thumb/interwork\libg.a(lib_a-gdtoa-gethex.o)
                                                  c:/espardino_tmp/bin/../lib/gcc/arm-elf/4.4.0/../../../../arm-elf/lib/thumb/interwork\libg.a(lib_a-strtod.o)
_Bfree                                            c:/espardino_tmp/bin/../lib/gcc/arm-elf/4.4.0/../../../../arm-elf/lib/thumb/interwork\libg.a(lib_a-mprec.o)
                                                  c:/espardino_tmp/bin/../lib/gcc/arm-elf/4.4.0/../../../../arm-elf/lib/thumb/interwork\libg.a(lib_a-dtoa.o)
                                                  c:/espardino_tmp/bin/../lib/gcc/arm-elf/4.4.0/../../../../arm-elf/lib/thumb/interwork\libg.a(lib_a-gdtoa-gethex.o)
                                                  c:/espardino_tmp/bin/../lib/gcc/arm-elf/4.4.0/../../../../arm-elf/lib/thumb/interwork\libg.a(lib_a-strtod.o)
_PathLocale                                       c:/espardino_tmp/bin/../lib/gcc/arm-elf/4.4.0/../../../../arm-elf/lib/thumb/interwork\libg.a(lib_a-locale.o)
__USBHwConnect_from_arm                           c:/espardino_tmp/bin/../lib/gcc/arm-elf/4.4.0/thumb/interwork\libgcc.a(_muldi3.o)
__USBHwEPRead_from_arm                            c:/espardino_tmp/bin/../lib/gcc/arm-elf/4.4.0/thumb/interwork\libgcc.a(_muldi3.o)
__USBHwEPWrite_from_arm                           c:/espardino_tmp/bin/../lib/gcc/arm-elf/4.4.0/thumb/interwork\libgcc.a(_muldi3.o)
__USBHwISR_from_arm                               c:/espardino_tmp/bin/../lib/gcc/arm-elf/4.4.0/thumb/interwork\libgcc.a(_muldi3.o)
__USBHwNakIntEnable_from_arm                      c:/espardino_tmp/bin/../lib/gcc/arm-elf/4.4.0/thumb/interwork\libgcc.a(_muldi3.o)
__USBHwRegisterEPIntHandler_from_arm              c:/espardino_tmp/bin/../lib/gcc/arm-elf/4.4.0/thumb/interwork\libgcc.a(_muldi3.o)
__USBHwRegisterFrameHandler_from_arm              c:/espardino_tmp/bin/../lib/gcc/arm-elf/4.4.0/thumb/interwork\libgcc.a(_muldi3.o)
__USBInit_from_arm                                c:/espardino_tmp/bin/../lib/gcc/arm-elf/4.4.0/thumb/interwork\libgcc.a(_muldi3.o)
__USBRegisterDescriptors_from_arm                 c:/espardino_tmp/bin/../lib/gcc/arm-elf/4.4.0/thumb/interwork\libgcc.a(_muldi3.o)
__USBRegisterRequestHandler_from_arm              c:/espardino_tmp/bin/../lib/gcc/arm-elf/4.4.0/thumb/interwork\libgcc.a(_muldi3.o)
__VCOM_getchar_change_to_arm                      c:/espardino_tmp/bin/../lib/gcc/arm-elf/4.4.0/thumb/interwork\libgcc.a(_muldi3.o)
__VCOM_getchar_from_thumb                         c:/espardino_tmp/bin/../lib/gcc/arm-elf/4.4.0/thumb/interwork\libgcc.a(_muldi3.o)
__VCOM_init_change_to_arm                         c:/espardino_tmp/bin/../lib/gcc/arm-elf/4.4.0/thumb/interwork\libgcc.a(_muldi3.o)
__VCOM_init_from_thumb                            c:/espardino_tmp/bin/../lib/gcc/arm-elf/4.4.0/thumb/interwork\libgcc.a(_muldi3.o)
__VCOM_putchar_nl_change_to_arm                   c:/espardino_tmp/bin/../lib/gcc/arm-elf/4.4.0/thumb/interwork\libgcc.a(_muldi3.o)
__VCOM_putchar_nl_from_thumb                      c:/espardino_tmp/bin/../lib/gcc/arm-elf/4.4.0/thumb/interwork\libgcc.a(_muldi3.o)
____adddf3_change_to_arm                          c:/espardino_tmp/bin/../lib/gcc/arm-elf/4.4.0/thumb/interwork\libgcc.a(_muldi3.o)
____adddf3_from_thumb                             c:/espardino_tmp/bin/../lib/gcc/arm-elf/4.4.0/thumb/interwork\libgcc.a(_muldi3.o)
____divdf3_change_to_arm                          c:/espardino_tmp/bin/../lib/gcc/arm-elf/4.4.0/thumb/interwork\libgcc.a(_muldi3.o)
____divdf3_from_thumb                             c:/espardino_tmp/bin/../lib/gcc/arm-elf/4.4.0/thumb/interwork\libgcc.a(_muldi3.o)
____eqdf2_change_to_arm                           c:/espardino_tmp/bin/../lib/gcc/arm-elf/4.4.0/thumb/interwork\libgcc.a(_muldi3.o)
____eqdf2_from_thumb                              c:/espardino_tmp/bin/../lib/gcc/arm-elf/4.4.0/thumb/interwork\libgcc.a(_muldi3.o)
____fixdfsi_change_to_arm                         c:/espardino_tmp/bin/../lib/gcc/arm-elf/4.4.0/thumb/interwork\libgcc.a(_muldi3.o)
____fixdfsi_from_thumb                            c:/espardino_tmp/bin/../lib/gcc/arm-elf/4.4.0/thumb/interwork\libgcc.a(_muldi3.o)
____fixunsdfsi_change_to_arm                      c:/espardino_tmp/bin/../lib/gcc/arm-elf/4.4.0/thumb/interwork\libgcc.a(_muldi3.o)
____fixunsdfsi_from_thumb                         c:/espardino_tmp/bin/../lib/gcc/arm-elf/4.4.0/thumb/interwork\libgcc.a(_muldi3.o)
____floatsidf_change_to_arm                       c:/espardino_tmp/bin/../lib/gcc/arm-elf/4.4.0/thumb/interwork\libgcc.a(_muldi3.o)
____floatsidf_from_thumb                          c:/espardino_tmp/bin/../lib/gcc/arm-elf/4.4.0/thumb/interwork\libgcc.a(_muldi3.o)
____floatunsidf_change_to_arm                     c:/espardino_tmp/bin/../lib/gcc/arm-elf/4.4.0/thumb/interwork\libgcc.a(_muldi3.o)
____floatunsidf_from_thumb                        c:/espardino_tmp/bin/../lib/gcc/arm-elf/4.4.0/thumb/interwork\libgcc.a(_muldi3.o)
____gedf2_change_to_arm                           c:/espardino_tmp/bin/../lib/gcc/arm-elf/4.4.0/thumb/interwork\libgcc.a(_muldi3.o)
____gedf2_from_thumb                              c:/espardino_tmp/bin/../lib/gcc/arm-elf/4.4.0/thumb/interwork\libgcc.a(_muldi3.o)
____gtdf2_change_to_arm                           c:/espardino_tmp/bin/../lib/gcc/arm-elf/4.4.0/thumb/interwork\libgcc.a(_muldi3.o)
____gtdf2_from_thumb                              c:/espardino_tmp/bin/../lib/gcc/arm-elf/4.4.0/thumb/interwork\libgcc.a(_muldi3.o)
____ledf2_change_to_arm                           c:/espardino_tmp/bin/../lib/gcc/arm-elf/4.4.0/thumb/interwork\libgcc.a(_muldi3.o)
____ledf2_from_thumb                              c:/espardino_tmp/bin/../lib/gcc/arm-elf/4.4.0/thumb/interwork\libgcc.a(_muldi3.o)
____ltdf2_change_to_arm                           c:/espardino_tmp/bin/../lib/gcc/arm-elf/4.4.0/thumb/interwork\libgcc.a(_muldi3.o)
____ltdf2_from_thumb                              c:/espardino_tmp/bin/../lib/gcc/arm-elf/4.4.0/thumb/interwork\libgcc.a(_muldi3.o)
____muldf3_change_to_arm                          c:/espardino_tmp/bin/../lib/gcc/arm-elf/4.4.0/thumb/interwork\libgcc.a(_muldi3.o)
____muldf3_from_thumb                             c:/espardino_tmp/bin/../lib/gcc/arm-elf/4.4.0/thumb/interwork\libgcc.a(_muldi3.o)
____nedf2_change_to_arm                           c:/espardino_tmp/bin/../lib/gcc/arm-elf/4.4.0/thumb/interwork\libgcc.a(_muldi3.o)
____nedf2_from_thumb                              c:/espardino_tmp/bin/../lib/gcc/arm-elf/4.4.0/thumb/interwork\libgcc.a(_muldi3.o)
____subdf3_change_to_arm                          c:/espardino_tmp/bin/../lib/gcc/arm-elf/4.4.0/thumb/interwork\libgcc.a(_muldi3.o)
____subdf3_from_thumb                             c:/espardino_tmp/bin/../lib/gcc/arm-elf/4.4.0/thumb/interwork\libgcc.a(_muldi3.o)
____truncdfsf2_change_to_arm                      c:/espardino_tmp/bin/../lib/gcc/arm-elf/4.4.0/thumb/interwork\libgcc.a(_muldi3.o)
____truncdfsf2_from_thumb                         c:/espardino_tmp/bin/../lib/gcc/arm-elf/4.4.0/thumb/interwork\libgcc.a(_muldi3.o)
____udivsi3_from_arm                              c:/espardino_tmp/bin/../lib/gcc/arm-elf/4.4.0/thumb/interwork\libgcc.a(_muldi3.o)
____umodsi3_from_arm                              c:/espardino_tmp/bin/../lib/gcc/arm-elf/4.4.0/thumb/interwork\libgcc.a(_muldi3.o)
__adddf3                                          c:/espardino_tmp/bin/../lib/gcc/arm-elf/4.4.0/thumb/interwork\libgcc.a(_arm_addsubdf3.o)
                                                  c:/espardino_tmp/bin/../lib/gcc/arm-elf/4.4.0/../../../../arm-elf/lib/thumb/interwork\libg.a(lib_a-dtoa.o)
                                                  c:/espardino_tmp/bin/../lib/gcc/arm-elf/4.4.0/../../../../arm-elf/lib/thumb/interwork\libg.a(lib_a-strtod.o)
                                                  c:/espardino_tmp/bin/../lib/gcc/arm-elf/4.4.0/../../../../arm-elf/lib/thumb/interwork\libm.a(lib_a-s_rint.o)
                                                  c:/espardino_tmp/bin/../lib/gcc/arm-elf/4.4.0/../../../../arm-elf/lib/thumb/interwork\libm.a(lib_a-s_expm1.o)
                                                  c:/espardino_tmp/bin/../lib/gcc/arm-elf/4.4.0/../../../../arm-elf/lib/thumb/interwork\libm.a(lib_a-k_tan.o)
                                                  c:/espardino_tmp/bin/../lib/gcc/arm-elf/4.4.0/../../../../arm-elf/lib/thumb/interwork\libm.a(lib_a-k_sin.o)
                                                  c:/espardino_tmp/bin/../lib/gcc/arm-elf/4.4.0/../../../../arm-elf/lib/thumb/interwork\libm.a(lib_a-k_rem_pio2.o)
                                                  c:/espardino_tmp/bin/../lib/gcc/arm-elf/4.4.0/../../../../arm-elf/lib/thumb/interwork\libm.a(lib_a-k_cos.o)
                                                  c:/espardino_tmp/bin/../lib/gcc/arm-elf/4.4.0/../../../../arm-elf/lib/thumb/interwork\libm.a(lib_a-e_sqrt.o)
                                                  c:/espardino_tmp/bin/../lib/gcc/arm-elf/4.4.0/../../../../arm-elf/lib/thumb/interwork\libm.a(lib_a-e_sinh.o)
                                                  c:/espardino_tmp/bin/../lib/gcc/arm-elf/4.4.0/../../../../arm-elf/lib/thumb/interwork\libm.a(lib_a-e_rem_pio2.o)
                                                  c:/espardino_tmp/bin/../lib/gcc/arm-elf/4.4.0/../../../../arm-elf/lib/thumb/interwork\libm.a(lib_a-e_pow.o)
                                                  c:/espardino_tmp/bin/../lib/gcc/arm-elf/4.4.0/../../../../arm-elf/lib/thumb/interwork\libm.a(lib_a-e_log10.o)
                                                  c:/espardino_tmp/bin/../lib/gcc/arm-elf/4.4.0/../../../../arm-elf/lib/thumb/interwork\libm.a(lib_a-e_log.o)
                                                  c:/espardino_tmp/bin/../lib/gcc/arm-elf/4.4.0/../../../../arm-elf/lib/thumb/interwork\libm.a(lib_a-e_exp.o)
                                                  c:/espardino_tmp/bin/../lib/gcc/arm-elf/4.4.0/../../../../arm-elf/lib/thumb/interwork\libm.a(lib_a-e_cosh.o)
                                                  c:/espardino_tmp/bin/../lib/gcc/arm-elf/4.4.0/../../../../arm-elf/lib/thumb/interwork\libm.a(lib_a-e_atan2.o)
                                                  c:/espardino_tmp/bin/../lib/gcc/arm-elf/4.4.0/../../../../arm-elf/lib/thumb/interwork\libm.a(lib_a-e_asin.o)
                                                  c:/espardino_tmp/bin/../lib/gcc/arm-elf/4.4.0/../../../../arm-elf/lib/thumb/interwork\libm.a(lib_a-e_acos.o)
                                                  c:/espardino_tmp/bin/../lib/gcc/arm-elf/4.4.0/../../../../arm-elf/lib/thumb/interwork\libm.a(lib_a-s_tanh.o)
                                                  c:/espardino_tmp/bin/../lib/gcc/arm-elf/4.4.0/../../../../arm-elf/lib/thumb/interwork\libm.a(lib_a-s_scalbn.o)
                                                  c:/espardino_tmp/bin/../lib/gcc/arm-elf/4.4.0/../../../../arm-elf/lib/thumb/interwork\libm.a(lib_a-s_floor.o)
                                                  c:/espardino_tmp/bin/../lib/gcc/arm-elf/4.4.0/../../../../arm-elf/lib/thumb/interwork\libm.a(lib_a-s_ceil.o)
                                                  c:/espardino_tmp/bin/../lib/gcc/arm-elf/4.4.0/../../../../arm-elf/lib/thumb/interwork\libm.a(lib_a-s_atan.o)
                                                  c:/espardino_tmp/bin/../lib/gcc/arm-elf/4.4.0/../../../../arm-elf/lib\liblua.a(lualib_bit.o)
                                                  c:/espardino_tmp/bin/../lib/gcc/arm-elf/4.4.0/../../../../arm-elf/lib\liblua.a(all.o)
                                                  main.o
__aeabi_cdcmpeq                                   c:/espardino_tmp/bin/../lib/gcc/arm-elf/4.4.0/thumb/interwork\libgcc.a(_arm_cmpdf2.o)
__aeabi_cdcmple                                   c:/espardino_tmp/bin/../lib/gcc/arm-elf/4.4.0/thumb/interwork\libgcc.a(_arm_cmpdf2.o)
__aeabi_cdrcmple                                  c:/espardino_tmp/bin/../lib/gcc/arm-elf/4.4.0/thumb/interwork\libgcc.a(_arm_cmpdf2.o)
__aeabi_d2f                                       c:/espardino_tmp/bin/../lib/gcc/arm-elf/4.4.0/thumb/interwork\libgcc.a(_arm_truncdfsf2.o)
__aeabi_d2iz                                      c:/espardino_tmp/bin/../lib/gcc/arm-elf/4.4.0/thumb/interwork\libgcc.a(_arm_fixdfsi.o)
__aeabi_d2uiz                                     c:/espardino_tmp/bin/../lib/gcc/arm-elf/4.4.0/thumb/interwork\libgcc.a(_arm_fixunsdfsi.o)
__aeabi_dadd                                      c:/espardino_tmp/bin/../lib/gcc/arm-elf/4.4.0/thumb/interwork\libgcc.a(_arm_addsubdf3.o)
__aeabi_dcmpeq                                    c:/espardino_tmp/bin/../lib/gcc/arm-elf/4.4.0/thumb/interwork\libgcc.a(_arm_cmpdf2.o)
__aeabi_dcmpge                                    c:/espardino_tmp/bin/../lib/gcc/arm-elf/4.4.0/thumb/interwork\libgcc.a(_arm_cmpdf2.o)
__aeabi_dcmpgt                                    c:/espardino_tmp/bin/../lib/gcc/arm-elf/4.4.0/thumb/interwork\libgcc.a(_arm_cmpdf2.o)
__aeabi_dcmple                                    c:/espardino_tmp/bin/../lib/gcc/arm-elf/4.4.0/thumb/interwork\libgcc.a(_arm_cmpdf2.o)
__aeabi_dcmplt                                    c:/espardino_tmp/bin/../lib/gcc/arm-elf/4.4.0/thumb/interwork\libgcc.a(_arm_cmpdf2.o)
__aeabi_ddiv                                      c:/espardino_tmp/bin/../lib/gcc/arm-elf/4.4.0/thumb/interwork\libgcc.a(_arm_muldivdf3.o)
__aeabi_dmul                                      c:/espardino_tmp/bin/../lib/gcc/arm-elf/4.4.0/thumb/interwork\libgcc.a(_arm_muldivdf3.o)
__aeabi_drsub                                     c:/espardino_tmp/bin/../lib/gcc/arm-elf/4.4.0/thumb/interwork\libgcc.a(_arm_addsubdf3.o)
__aeabi_dsub                                      c:/espardino_tmp/bin/../lib/gcc/arm-elf/4.4.0/thumb/interwork\libgcc.a(_arm_addsubdf3.o)
__aeabi_f2d                                       c:/espardino_tmp/bin/../lib/gcc/arm-elf/4.4.0/thumb/interwork\libgcc.a(_arm_addsubdf3.o)
__aeabi_i2d                                       c:/espardino_tmp/bin/../lib/gcc/arm-elf/4.4.0/thumb/interwork\libgcc.a(_arm_addsubdf3.o)
__aeabi_idiv                                      c:/espardino_tmp/bin/../lib/gcc/arm-elf/4.4.0/thumb/interwork\libgcc.a(_divsi3.o)
__aeabi_idiv0                                     c:/espardino_tmp/bin/../lib/gcc/arm-elf/4.4.0/thumb/interwork\libgcc.a(_dvmd_tls.o)
__aeabi_idivmod                                   c:/espardino_tmp/bin/../lib/gcc/arm-elf/4.4.0/thumb/interwork\libgcc.a(_divsi3.o)
__aeabi_l2d                                       c:/espardino_tmp/bin/../lib/gcc/arm-elf/4.4.0/thumb/interwork\libgcc.a(_arm_addsubdf3.o)
__aeabi_ldiv0                                     c:/espardino_tmp/bin/../lib/gcc/arm-elf/4.4.0/thumb/interwork\libgcc.a(_dvmd_tls.o)
__aeabi_ui2d                                      c:/espardino_tmp/bin/../lib/gcc/arm-elf/4.4.0/thumb/interwork\libgcc.a(_arm_addsubdf3.o)
__aeabi_uidiv                                     c:/espardino_tmp/bin/../lib/gcc/arm-elf/4.4.0/thumb/interwork\libgcc.a(_udivsi3.o)
__aeabi_uidivmod                                  c:/espardino_tmp/bin/../lib/gcc/arm-elf/4.4.0/thumb/interwork\libgcc.a(_udivsi3.o)
__aeabi_ul2d                                      c:/espardino_tmp/bin/../lib/gcc/arm-elf/4.4.0/thumb/interwork\libgcc.a(_arm_addsubdf3.o)
__any_on                                          c:/espardino_tmp/bin/../lib/gcc/arm-elf/4.4.0/../../../../arm-elf/lib/thumb/interwork\libg.a(lib_a-mprec.o)
                                                  c:/espardino_tmp/bin/../lib/gcc/arm-elf/4.4.0/../../../../arm-elf/lib/thumb/interwork\libg.a(lib_a-gdtoa-gethex.o)
__b2d                                             c:/espardino_tmp/bin/../lib/gcc/arm-elf/4.4.0/../../../../arm-elf/lib/thumb/interwork\libg.a(lib_a-mprec.o)
__bss_end__                                       startup.o
__bss_start__                                     startup.o
__cmpdf2                                          c:/espardino_tmp/bin/../lib/gcc/arm-elf/4.4.0/thumb/interwork\libgcc.a(_arm_cmpdf2.o)
__copybits                                        c:/espardino_tmp/bin/../lib/gcc/arm-elf/4.4.0/../../../../arm-elf/lib/thumb/interwork\libg.a(lib_a-mprec.o)
                                                  c:/espardino_tmp/bin/../lib/gcc/arm-elf/4.4.0/../../../../arm-elf/lib/thumb/interwork\libg.a(lib_a-strtod.o)
__ctors_end__                                     startup.o
__ctors_start__                                   startup.o
__ctype_ptr                                       c:/espardino_tmp/bin/../lib/gcc/arm-elf/4.4.0/../../../../arm-elf/lib/thumb/interwork\libg.a(lib_a-ctype_.o)
__ctype_ptr__                                     c:/espardino_tmp/bin/../lib/gcc/arm-elf/4.4.0/../../../../arm-elf/lib/thumb/interwork\libg.a(lib_a-ctype_.o)
                                                  c:/espardino_tmp/bin/../lib/gcc/arm-elf/4.4.0/../../../../arm-elf/lib/thumb/interwork\libg.a(lib_a-strtoul.o)
                                                  c:/espardino_tmp/bin/../lib/gcc/arm-elf/4.4.0/../../../../arm-elf/lib\liblua.a(all.o)
__d2b                                             c:/espardino_tmp/bin/../lib/gcc/arm-elf/4.4.0/../../../../arm-elf/lib/thumb/interwork\libg.a(lib_a-mprec.o)
                                                  c:/espardino_tmp/bin/../lib/gcc/arm-elf/4.4.0/../../../../arm-elf/lib/thumb/interwork\libg.a(lib_a-dtoa.o)
                                                  c:/espardino_tmp/bin/../lib/gcc/arm-elf/4.4.0/../../../../arm-elf/lib/thumb/interwork\libg.a(lib_a-strtod.o)
__div0                                            c:/espardino_tmp/bin/../lib/gcc/arm-elf/4.4.0/thumb/interwork\libgcc.a(_dvmd_tls.o)
                                                  c:/espardino_tmp/bin/../lib/gcc/arm-elf/4.4.0/thumb/interwork\libgcc.a(_modsi3.o)
                                                  c:/espardino_tmp/bin/../lib/gcc/arm-elf/4.4.0/thumb/interwork\libgcc.a(_umodsi3.o)
                                                  c:/espardino_tmp/bin/../lib/gcc/arm-elf/4.4.0/thumb/interwork\libgcc.a(_divsi3.o)
                                                  c:/espardino_tmp/bin/../lib/gcc/arm-elf/4.4.0/thumb/interwork\libgcc.a(_udivsi3.o)
__divdf3                                          c:/espardino_tmp/bin/../lib/gcc/arm-elf/4.4.0/thumb/interwork\libgcc.a(_arm_muldivdf3.o)
                                                  c:/espardino_tmp/bin/../lib/gcc/arm-elf/4.4.0/../../../../arm-elf/lib/thumb/interwork\libg.a(lib_a-dtoa.o)
                                                  c:/espardino_tmp/bin/../lib/gcc/arm-elf/4.4.0/../../../../arm-elf/lib/thumb/interwork\libg.a(lib_a-mprec.o)
                                                  c:/espardino_tmp/bin/../lib/gcc/arm-elf/4.4.0/../../../../arm-elf/lib/thumb/interwork\libg.a(lib_a-strtod.o)
                                                  c:/espardino_tmp/bin/../lib/gcc/arm-elf/4.4.0/../../../../arm-elf/lib/thumb/interwork\libm.a(lib_a-s_expm1.o)
                                                  c:/espardino_tmp/bin/../lib/gcc/arm-elf/4.4.0/../../../../arm-elf/lib/thumb/interwork\libm.a(lib_a-k_tan.o)
                                                  c:/espardino_tmp/bin/../lib/gcc/arm-elf/4.4.0/../../../../arm-elf/lib/thumb/interwork\libm.a(lib_a-e_sqrt.o)
                                                  c:/espardino_tmp/bin/../lib/gcc/arm-elf/4.4.0/../../../../arm-elf/lib/thumb/interwork\libm.a(lib_a-e_sinh.o)
                                                  c:/espardino_tmp/bin/../lib/gcc/arm-elf/4.4.0/../../../../arm-elf/lib/thumb/interwork\libm.a(lib_a-e_pow.o)
                                                  c:/espardino_tmp/bin/../lib/gcc/arm-elf/4.4.0/../../../../arm-elf/lib/thumb/interwork\libm.a(lib_a-e_log10.o)
                                                  c:/espardino_tmp/bin/../lib/gcc/arm-elf/4.4.0/../../../../arm-elf/lib/thumb/interwork\libm.a(lib_a-e_log.o)
                                                  c:/espardino_tmp/bin/../lib/gcc/arm-elf/4.4.0/../../../../arm-elf/lib/thumb/interwork\libm.a(lib_a-e_fmod.o)
                                                  c:/espardino_tmp/bin/../lib/gcc/arm-elf/4.4.0/../../../../arm-elf/lib/thumb/interwork\libm.a(lib_a-e_exp.o)
                                                  c:/espardino_tmp/bin/../lib/gcc/arm-elf/4.4.0/../../../../arm-elf/lib/thumb/interwork\libm.a(lib_a-e_cosh.o)
                                                  c:/espardino_tmp/bin/../lib/gcc/arm-elf/4.4.0/../../../../arm-elf/lib/thumb/interwork\libm.a(lib_a-e_atan2.o)
                                                  c:/espardino_tmp/bin/../lib/gcc/arm-elf/4.4.0/../../../../arm-elf/lib/thumb/interwork\libm.a(lib_a-e_asin.o)
                                                  c:/espardino_tmp/bin/../lib/gcc/arm-elf/4.4.0/../../../../arm-elf/lib/thumb/interwork\libm.a(lib_a-e_acos.o)
                                                  c:/espardino_tmp/bin/../lib/gcc/arm-elf/4.4.0/../../../../arm-elf/lib/thumb/interwork\libm.a(lib_a-w_sqrt.o)
                                                  c:/espardino_tmp/bin/../lib/gcc/arm-elf/4.4.0/../../../../arm-elf/lib/thumb/interwork\libm.a(lib_a-w_pow.o)
                                                  c:/espardino_tmp/bin/../lib/gcc/arm-elf/4.4.0/../../../../arm-elf/lib/thumb/interwork\libm.a(lib_a-w_fmod.o)
                                                  c:/espardino_tmp/bin/../lib/gcc/arm-elf/4.4.0/../../../../arm-elf/lib/thumb/interwork\libm.a(lib_a-s_tanh.o)
                                                  c:/espardino_tmp/bin/../lib/gcc/arm-elf/4.4.0/../../../../arm-elf/lib/thumb/interwork\libm.a(lib_a-s_atan.o)
                                                  c:/espardino_tmp/bin/../lib/gcc/arm-elf/4.4.0/../../../../arm-elf/lib\liblua.a(all.o)
                                                  c:/espardino_tmp/bin/../lib/gcc/arm-elf/4.4.0/../../../../arm-elf/lib\liblua.a(lualib.o)
__divsi3                                          c:/espardino_tmp/bin/../lib/gcc/arm-elf/4.4.0/thumb/interwork\libgcc.a(_divsi3.o)
                                                  c:/espardino_tmp/bin/../lib/gcc/arm-elf/4.4.0/../../../../arm-elf/lib/thumb/interwork\libg.a(lib_a-svfprintf.o)
                                                  c:/espardino_tmp/bin/../lib/gcc/arm-elf/4.4.0/../../../../arm-elf/lib/thumb/interwork\libg.a(lib_a-mprec.o)
                                                  c:/espardino_tmp/bin/../lib/gcc/arm-elf/4.4.0/../../../../arm-elf/lib/thumb/interwork\libm.a(lib_a-k_rem_pio2.o)
                                                  c:/espardino_tmp/bin/../lib/gcc/arm-elf/4.4.0/../../../../arm-elf/lib\libmicro214x.a(adc.o)
                                                  c:/espardino_tmp/bin/../lib/gcc/arm-elf/4.4.0/../../../../arm-elf/lib/thumb/interwork\libffs.a(ff.o)
                                                  c:/espardino_tmp/bin/../lib/gcc/arm-elf/4.4.0/../../../../arm-elf/lib\liblua.a(all.o)
                                                  c:/espardino_tmp/bin/../lib/gcc/arm-elf/4.4.0/../../../../arm-elf/lib\liblua.a(lualib.o)
__env_lock                                        c:/espardino_tmp/bin/../lib/gcc/arm-elf/4.4.0/../../../../arm-elf/lib/thumb/interwork\libg.a(lib_a-envlock.o)
                                                  c:/espardino_tmp/bin/../lib/gcc/arm-elf/4.4.0/../../../../arm-elf/lib/thumb/interwork\libg.a(lib_a-getenv_r.o)
__env_unlock                                      c:/espardino_tmp/bin/../lib/gcc/arm-elf/4.4.0/../../../../arm-elf/lib/thumb/interwork\libg.a(lib_a-envlock.o)
                                                  c:/espardino_tmp/bin/../lib/gcc/arm-elf/4.4.0/../../../../arm-elf/lib/thumb/interwork\libg.a(lib_a-getenv_r.o)
__eqdf2                                           c:/espardino_tmp/bin/../lib/gcc/arm-elf/4.4.0/thumb/interwork\libgcc.a(_arm_cmpdf2.o)
                                                  c:/espardino_tmp/bin/../lib/gcc/arm-elf/4.4.0/../../../../arm-elf/lib/thumb/interwork\libg.a(lib_a-dtoa.o)
                                                  c:/espardino_tmp/bin/../lib/gcc/arm-elf/4.4.0/../../../../arm-elf/lib/thumb/interwork\libg.a(lib_a-svfprintf.o)
                                                  c:/espardino_tmp/bin/../lib/gcc/arm-elf/4.4.0/../../../../arm-elf/lib/thumb/interwork\libm.a(lib_a-k_rem_pio2.o)
                                                  c:/espardino_tmp/bin/../lib/gcc/arm-elf/4.4.0/../../../../arm-elf/lib/thumb/interwork\libm.a(lib_a-e_rem_pio2.o)
                                                  c:/espardino_tmp/bin/../lib/gcc/arm-elf/4.4.0/../../../../arm-elf/lib/thumb/interwork\libm.a(lib_a-e_log.o)
                                                  c:/espardino_tmp/bin/../lib/gcc/arm-elf/4.4.0/../../../../arm-elf/lib/thumb/interwork\libm.a(lib_a-w_pow.o)
                                                  c:/espardino_tmp/bin/../lib/gcc/arm-elf/4.4.0/../../../../arm-elf/lib/thumb/interwork\libm.a(lib_a-w_log10.o)
                                                  c:/espardino_tmp/bin/../lib/gcc/arm-elf/4.4.0/../../../../arm-elf/lib/thumb/interwork\libm.a(lib_a-w_log.o)
                                                  c:/espardino_tmp/bin/../lib/gcc/arm-elf/4.4.0/../../../../arm-elf/lib/thumb/interwork\libm.a(lib_a-w_fmod.o)
                                                  c:/espardino_tmp/bin/../lib/gcc/arm-elf/4.4.0/../../../../arm-elf/lib/thumb/interwork\libm.a(lib_a-s_ldexp.o)
                                                  c:/espardino_tmp/bin/../lib/gcc/arm-elf/4.4.0/../../../../arm-elf/lib\liblua.a(all.o)
__errno                                           c:/espardino_tmp/bin/../lib/gcc/arm-elf/4.4.0/../../../../arm-elf/lib/thumb/interwork\libg.a(lib_a-errno.o)
                                                  c:/espardino_tmp/bin/../lib/gcc/arm-elf/4.4.0/../../../../arm-elf/lib/thumb/interwork\libg.a(lib_a-syscalls.o)
                                                  c:/espardino_tmp/bin/../lib/gcc/arm-elf/4.4.0/../../../../arm-elf/lib/thumb/interwork\libm.a(lib_a-w_sqrt.o)
                                                  c:/espardino_tmp/bin/../lib/gcc/arm-elf/4.4.0/../../../../arm-elf/lib/thumb/interwork\libm.a(lib_a-w_sinh.o)
                                                  c:/espardino_tmp/bin/../lib/gcc/arm-elf/4.4.0/../../../../arm-elf/lib/thumb/interwork\libm.a(lib_a-w_pow.o)
                                                  c:/espardino_tmp/bin/../lib/gcc/arm-elf/4.4.0/../../../../arm-elf/lib/thumb/interwork\libm.a(lib_a-w_log10.o)
                                                  c:/espardino_tmp/bin/../lib/gcc/arm-elf/4.4.0/../../../../arm-elf/lib/thumb/interwork\libm.a(lib_a-w_log.o)
                                                  c:/espardino_tmp/bin/../lib/gcc/arm-elf/4.4.0/../../../../arm-elf/lib/thumb/interwork\libm.a(lib_a-w_fmod.o)
                                                  c:/espardino_tmp/bin/../lib/gcc/arm-elf/4.4.0/../../../../arm-elf/lib/thumb/interwork\libm.a(lib_a-w_exp.o)
                                                  c:/espardino_tmp/bin/../lib/gcc/arm-elf/4.4.0/../../../../arm-elf/lib/thumb/interwork\libm.a(lib_a-w_cosh.o)
                                                  c:/espardino_tmp/bin/../lib/gcc/arm-elf/4.4.0/../../../../arm-elf/lib/thumb/interwork\libm.a(lib_a-w_asin.o)
                                                  c:/espardino_tmp/bin/../lib/gcc/arm-elf/4.4.0/../../../../arm-elf/lib/thumb/interwork\libm.a(lib_a-w_acos.o)
                                                  c:/espardino_tmp/bin/../lib/gcc/arm-elf/4.4.0/../../../../arm-elf/lib/thumb/interwork\libm.a(lib_a-s_ldexp.o)
                                                  c:/espardino_tmp/bin/../lib/gcc/arm-elf/4.4.0/../../../../arm-elf/lib\liblua.a(all.o)
__exit_ARM                                        startup.o
__exit_THUMB                                      startup.o
__extendsfdf2                                     c:/espardino_tmp/bin/../lib/gcc/arm-elf/4.4.0/thumb/interwork\libgcc.a(_arm_addsubdf3.o)
__fdlib_version                                   c:/espardino_tmp/bin/../lib/gcc/arm-elf/4.4.0/../../../../arm-elf/lib/thumb/interwork\libm.a(lib_a-s_lib_ver.o)
                                                  c:/espardino_tmp/bin/../lib/gcc/arm-elf/4.4.0/../../../../arm-elf/lib/thumb/interwork\libm.a(lib_a-w_sqrt.o)
                                                  c:/espardino_tmp/bin/../lib/gcc/arm-elf/4.4.0/../../../../arm-elf/lib/thumb/interwork\libm.a(lib_a-w_sinh.o)
                                                  c:/espardino_tmp/bin/../lib/gcc/arm-elf/4.4.0/../../../../arm-elf/lib/thumb/interwork\libm.a(lib_a-w_pow.o)
                                                  c:/espardino_tmp/bin/../lib/gcc/arm-elf/4.4.0/../../../../arm-elf/lib/thumb/interwork\libm.a(lib_a-w_log10.o)
                                                  c:/espardino_tmp/bin/../lib/gcc/arm-elf/4.4.0/../../../../arm-elf/lib/thumb/interwork\libm.a(lib_a-w_log.o)
                                                  c:/espardino_tmp/bin/../lib/gcc/arm-elf/4.4.0/../../../../arm-elf/lib/thumb/interwork\libm.a(lib_a-w_fmod.o)
                                                  c:/espardino_tmp/bin/../lib/gcc/arm-elf/4.4.0/../../../../arm-elf/lib/thumb/interwork\libm.a(lib_a-w_exp.o)
                                                  c:/espardino_tmp/bin/../lib/gcc/arm-elf/4.4.0/../../../../arm-elf/lib/thumb/interwork\libm.a(lib_a-w_cosh.o)
                                                  c:/espardino_tmp/bin/../lib/gcc/arm-elf/4.4.0/../../../../arm-elf/lib/thumb/interwork\libm.a(lib_a-w_asin.o)
                                                  c:/espardino_tmp/bin/../lib/gcc/arm-elf/4.4.0/../../../../arm-elf/lib/thumb/interwork\libm.a(lib_a-w_acos.o)
__fifo_avail_from_arm                             c:/espardino_tmp/bin/../lib/gcc/arm-elf/4.4.0/thumb/interwork\libgcc.a(_muldi3.o)
__fifo_free_from_arm                              c:/espardino_tmp/bin/../lib/gcc/arm-elf/4.4.0/thumb/interwork\libgcc.a(_muldi3.o)
__fifo_get_from_arm                               c:/espardino_tmp/bin/../lib/gcc/arm-elf/4.4.0/thumb/interwork\libgcc.a(_muldi3.o)
__fifo_init_from_arm                              c:/espardino_tmp/bin/../lib/gcc/arm-elf/4.4.0/thumb/interwork\libgcc.a(_muldi3.o)
__fifo_put_from_arm                               c:/espardino_tmp/bin/../lib/gcc/arm-elf/4.4.0/thumb/interwork\libgcc.a(_muldi3.o)
__fixdfsi                                         c:/espardino_tmp/bin/../lib/gcc/arm-elf/4.4.0/thumb/interwork\libgcc.a(_arm_fixdfsi.o)
                                                  c:/espardino_tmp/bin/../lib/gcc/arm-elf/4.4.0/../../../../arm-elf/lib/thumb/interwork\libg.a(lib_a-dtoa.o)
                                                  c:/espardino_tmp/bin/../lib/gcc/arm-elf/4.4.0/../../../../arm-elf/lib/thumb/interwork\libg.a(lib_a-strtod.o)
                                                  c:/espardino_tmp/bin/../lib/gcc/arm-elf/4.4.0/../../../../arm-elf/lib/thumb/interwork\libm.a(lib_a-s_expm1.o)
                                                  c:/espardino_tmp/bin/../lib/gcc/arm-elf/4.4.0/../../../../arm-elf/lib/thumb/interwork\libm.a(lib_a-k_tan.o)
                                                  c:/espardino_tmp/bin/../lib/gcc/arm-elf/4.4.0/../../../../arm-elf/lib/thumb/interwork\libm.a(lib_a-k_sin.o)
                                                  c:/espardino_tmp/bin/../lib/gcc/arm-elf/4.4.0/../../../../arm-elf/lib/thumb/interwork\libm.a(lib_a-k_rem_pio2.o)
                                                  c:/espardino_tmp/bin/../lib/gcc/arm-elf/4.4.0/../../../../arm-elf/lib/thumb/interwork\libm.a(lib_a-k_cos.o)
                                                  c:/espardino_tmp/bin/../lib/gcc/arm-elf/4.4.0/../../../../arm-elf/lib/thumb/interwork\libm.a(lib_a-e_rem_pio2.o)
                                                  c:/espardino_tmp/bin/../lib/gcc/arm-elf/4.4.0/../../../../arm-elf/lib/thumb/interwork\libm.a(lib_a-e_exp.o)
                                                  c:/espardino_tmp/bin/../lib/gcc/arm-elf/4.4.0/../../../../arm-elf/lib\libmicro214x.a(miniprintf.o)
                                                  c:/espardino_tmp/bin/../lib/gcc/arm-elf/4.4.0/../../../../arm-elf/lib\liblua.a(all.o)
                                                  c:/espardino_tmp/bin/../lib/gcc/arm-elf/4.4.0/../../../../arm-elf/lib\liblua.a(lualib.o)
__fixunsdfsi                                      c:/espardino_tmp/bin/../lib/gcc/arm-elf/4.4.0/thumb/interwork\libgcc.a(_arm_fixunsdfsi.o)
                                                  c:/espardino_tmp/bin/../lib/gcc/arm-elf/4.4.0/../../../../arm-elf/lib/thumb/interwork\libg.a(lib_a-strtod.o)
                                                  c:/espardino_tmp/bin/../lib/gcc/arm-elf/4.4.0/../../../../arm-elf/lib\liblua.a(lualib.o)
__floatdidf                                       c:/espardino_tmp/bin/../lib/gcc/arm-elf/4.4.0/thumb/interwork\libgcc.a(_arm_addsubdf3.o)
__floatsidf                                       c:/espardino_tmp/bin/../lib/gcc/arm-elf/4.4.0/thumb/interwork\libgcc.a(_arm_addsubdf3.o)
                                                  c:/espardino_tmp/bin/../lib/gcc/arm-elf/4.4.0/../../../../arm-elf/lib/thumb/interwork\libg.a(lib_a-dtoa.o)
                                                  c:/espardino_tmp/bin/../lib/gcc/arm-elf/4.4.0/../../../../arm-elf/lib/thumb/interwork\libg.a(lib_a-strtod.o)
                                                  c:/espardino_tmp/bin/../lib/gcc/arm-elf/4.4.0/../../../../arm-elf/lib/thumb/interwork\libm.a(lib_a-s_expm1.o)
                                                  c:/espardino_tmp/bin/../lib/gcc/arm-elf/4.4.0/../../../../arm-elf/lib/thumb/interwork\libm.a(lib_a-k_tan.o)
                                                  c:/espardino_tmp/bin/../lib/gcc/arm-elf/4.4.0/../../../../arm-elf/lib/thumb/interwork\libm.a(lib_a-k_rem_pio2.o)
                                                  c:/espardino_tmp/bin/../lib/gcc/arm-elf/4.4.0/../../../../arm-elf/lib/thumb/interwork\libm.a(lib_a-e_rem_pio2.o)
                                                  c:/espardino_tmp/bin/../lib/gcc/arm-elf/4.4.0/../../../../arm-elf/lib/thumb/interwork\libm.a(lib_a-e_pow.o)
                                                  c:/espardino_tmp/bin/../lib/gcc/arm-elf/4.4.0/../../../../arm-elf/lib/thumb/interwork\libm.a(lib_a-e_log10.o)
                                                  c:/espardino_tmp/bin/../lib/gcc/arm-elf/4.4.0/../../../../arm-elf/lib/thumb/interwork\libm.a(lib_a-e_log.o)
                                                  c:/espardino_tmp/bin/../lib/gcc/arm-elf/4.4.0/../../../../arm-elf/lib/thumb/interwork\libm.a(lib_a-e_exp.o)
                                                  c:/espardino_tmp/bin/../lib/gcc/arm-elf/4.4.0/../../../../arm-elf/lib\libmicro214x.a(miniprintf.o)
                                                  c:/espardino_tmp/bin/../lib/gcc/arm-elf/4.4.0/../../../../arm-elf/lib\liblua.a(lualib_bit.o)
                                                  c:/espardino_tmp/bin/../lib/gcc/arm-elf/4.4.0/../../../../arm-elf/lib\liblua.a(all.o)
                                                  c:/espardino_tmp/bin/../lib/gcc/arm-elf/4.4.0/../../../../arm-elf/lib\liblua.a(lualib.o)
__floatundidf                                     c:/espardino_tmp/bin/../lib/gcc/arm-elf/4.4.0/thumb/interwork\libgcc.a(_arm_addsubdf3.o)
__floatunsidf                                     c:/espardino_tmp/bin/../lib/gcc/arm-elf/4.4.0/thumb/interwork\libgcc.a(_arm_addsubdf3.o)
                                                  c:/espardino_tmp/bin/../lib/gcc/arm-elf/4.4.0/../../../../arm-elf/lib/thumb/interwork\libg.a(lib_a-dtoa.o)
                                                  c:/espardino_tmp/bin/../lib/gcc/arm-elf/4.4.0/../../../../arm-elf/lib/thumb/interwork\libg.a(lib_a-strtod.o)
                                                  c:/espardino_tmp/bin/../lib/gcc/arm-elf/4.4.0/../../../../arm-elf/lib\liblua.a(all.o)
__floor_from_arm                                  c:/espardino_tmp/bin/../lib/gcc/arm-elf/4.4.0/thumb/interwork\libgcc.a(_muldi3.o)
__fp_lock_all                                     c:/espardino_tmp/bin/../lib/gcc/arm-elf/4.4.0/../../../../arm-elf/lib/thumb/interwork\libg.a(lib_a-findfp.o)
__fp_unlock_all                                   c:/espardino_tmp/bin/../lib/gcc/arm-elf/4.4.0/../../../../arm-elf/lib/thumb/interwork\libg.a(lib_a-findfp.o)
__gedf2                                           c:/espardino_tmp/bin/../lib/gcc/arm-elf/4.4.0/thumb/interwork\libgcc.a(_arm_cmpdf2.o)
                                                  c:/espardino_tmp/bin/../lib/gcc/arm-elf/4.4.0/../../../../arm-elf/lib/thumb/interwork\libg.a(lib_a-dtoa.o)
                                                  c:/espardino_tmp/bin/../lib/gcc/arm-elf/4.4.0/../../../../arm-elf/lib/thumb/interwork\libm.a(lib_a-k_rem_pio2.o)
                                                  c:/espardino_tmp/bin/../lib/gcc/arm-elf/4.4.0/../../../../arm-elf/lib/thumb/interwork\libm.a(lib_a-e_pow.o)
__gethex                                          c:/espardino_tmp/bin/../lib/gcc/arm-elf/4.4.0/../../../../arm-elf/lib/thumb/interwork\libg.a(lib_a-gdtoa-gethex.o)
                                                  c:/espardino_tmp/bin/../lib/gcc/arm-elf/4.4.0/../../../../arm-elf/lib/thumb/interwork\libg.a(lib_a-strtod.o)
__gtdf2                                           c:/espardino_tmp/bin/../lib/gcc/arm-elf/4.4.0/thumb/interwork\libgcc.a(_arm_cmpdf2.o)
                                                  c:/espardino_tmp/bin/../lib/gcc/arm-elf/4.4.0/../../../../arm-elf/lib/thumb/interwork\libg.a(lib_a-dtoa.o)
                                                  c:/espardino_tmp/bin/../lib/gcc/arm-elf/4.4.0/../../../../arm-elf/lib/thumb/interwork\libg.a(lib_a-strtod.o)
                                                  c:/espardino_tmp/bin/../lib/gcc/arm-elf/4.4.0/../../../../arm-elf/lib/thumb/interwork\libm.a(lib_a-s_expm1.o)
                                                  c:/espardino_tmp/bin/../lib/gcc/arm-elf/4.4.0/../../../../arm-elf/lib/thumb/interwork\libm.a(lib_a-e_sinh.o)
                                                  c:/espardino_tmp/bin/../lib/gcc/arm-elf/4.4.0/../../../../arm-elf/lib/thumb/interwork\libm.a(lib_a-e_pow.o)
                                                  c:/espardino_tmp/bin/../lib/gcc/arm-elf/4.4.0/../../../../arm-elf/lib/thumb/interwork\libm.a(lib_a-e_exp.o)
                                                  c:/espardino_tmp/bin/../lib/gcc/arm-elf/4.4.0/../../../../arm-elf/lib/thumb/interwork\libm.a(lib_a-e_asin.o)
                                                  c:/espardino_tmp/bin/../lib/gcc/arm-elf/4.4.0/../../../../arm-elf/lib/thumb/interwork\libm.a(lib_a-w_sinh.o)
                                                  c:/espardino_tmp/bin/../lib/gcc/arm-elf/4.4.0/../../../../arm-elf/lib/thumb/interwork\libm.a(lib_a-w_log.o)
                                                  c:/espardino_tmp/bin/../lib/gcc/arm-elf/4.4.0/../../../../arm-elf/lib/thumb/interwork\libm.a(lib_a-w_exp.o)
                                                  c:/espardino_tmp/bin/../lib/gcc/arm-elf/4.4.0/../../../../arm-elf/lib/thumb/interwork\libm.a(lib_a-w_cosh.o)
                                                  c:/espardino_tmp/bin/../lib/gcc/arm-elf/4.4.0/../../../../arm-elf/lib/thumb/interwork\libm.a(lib_a-w_asin.o)
                                                  c:/espardino_tmp/bin/../lib/gcc/arm-elf/4.4.0/../../../../arm-elf/lib/thumb/interwork\libm.a(lib_a-w_acos.o)
                                                  c:/espardino_tmp/bin/../lib/gcc/arm-elf/4.4.0/../../../../arm-elf/lib/thumb/interwork\libm.a(lib_a-s_floor.o)
                                                  c:/espardino_tmp/bin/../lib/gcc/arm-elf/4.4.0/../../../../arm-elf/lib/thumb/interwork\libm.a(lib_a-s_ceil.o)
                                                  c:/espardino_tmp/bin/../lib/gcc/arm-elf/4.4.0/../../../../arm-elf/lib/thumb/interwork\libm.a(lib_a-s_atan.o)
                                                  c:/espardino_tmp/bin/../lib/gcc/arm-elf/4.4.0/../../../../arm-elf/lib\liblua.a(all.o)
__hexdig                                          c:/espardino_tmp/bin/../lib/gcc/arm-elf/4.4.0/../../../../arm-elf/lib/thumb/interwork\libg.a(lib_a-gdtoa-hexnan.o)
                                                  c:/espardino_tmp/bin/../lib/gcc/arm-elf/4.4.0/../../../../arm-elf/lib/thumb/interwork\libg.a(lib_a-gdtoa-gethex.o)
__hexdig_init                                     c:/espardino_tmp/bin/../lib/gcc/arm-elf/4.4.0/../../../../arm-elf/lib/thumb/interwork\libg.a(lib_a-gdtoa-gethex.o)
                                                  c:/espardino_tmp/bin/../lib/gcc/arm-elf/4.4.0/../../../../arm-elf/lib/thumb/interwork\libg.a(lib_a-gdtoa-hexnan.o)
__hexnan                                          c:/espardino_tmp/bin/../lib/gcc/arm-elf/4.4.0/../../../../arm-elf/lib/thumb/interwork\libg.a(lib_a-gdtoa-hexnan.o)
                                                  c:/espardino_tmp/bin/../lib/gcc/arm-elf/4.4.0/../../../../arm-elf/lib/thumb/interwork\libg.a(lib_a-strtod.o)
__hi0bits                                         c:/espardino_tmp/bin/../lib/gcc/arm-elf/4.4.0/../../../../arm-elf/lib/thumb/interwork\libg.a(lib_a-mprec.o)
                                                  c:/espardino_tmp/bin/../lib/gcc/arm-elf/4.4.0/../../../../arm-elf/lib/thumb/interwork\libg.a(lib_a-dtoa.o)
                                                  c:/espardino_tmp/bin/../lib/gcc/arm-elf/4.4.0/../../../../arm-elf/lib/thumb/interwork\libg.a(lib_a-gdtoa-gethex.o)
__i2b                                             c:/espardino_tmp/bin/../lib/gcc/arm-elf/4.4.0/../../../../arm-elf/lib/thumb/interwork\libg.a(lib_a-mprec.o)
                                                  c:/espardino_tmp/bin/../lib/gcc/arm-elf/4.4.0/../../../../arm-elf/lib/thumb/interwork\libg.a(lib_a-dtoa.o)
                                                  c:/espardino_tmp/bin/../lib/gcc/arm-elf/4.4.0/../../../../arm-elf/lib/thumb/interwork\libg.a(lib_a-strtod.o)
__ieee754_acos                                    c:/espardino_tmp/bin/../lib/gcc/arm-elf/4.4.0/../../../../arm-elf/lib/thumb/interwork\libm.a(lib_a-e_acos.o)
                                                  c:/espardino_tmp/bin/../lib/gcc/arm-elf/4.4.0/../../../../arm-elf/lib/thumb/interwork\libm.a(lib_a-w_acos.o)
__ieee754_asin                                    c:/espardino_tmp/bin/../lib/gcc/arm-elf/4.4.0/../../../../arm-elf/lib/thumb/interwork\libm.a(lib_a-e_asin.o)
                                                  c:/espardino_tmp/bin/../lib/gcc/arm-elf/4.4.0/../../../../arm-elf/lib/thumb/interwork\libm.a(lib_a-w_asin.o)
__ieee754_atan2                                   c:/espardino_tmp/bin/../lib/gcc/arm-elf/4.4.0/../../../../arm-elf/lib/thumb/interwork\libm.a(lib_a-e_atan2.o)
                                                  c:/espardino_tmp/bin/../lib/gcc/arm-elf/4.4.0/../../../../arm-elf/lib/thumb/interwork\libm.a(lib_a-w_atan2.o)
__ieee754_cosh                                    c:/espardino_tmp/bin/../lib/gcc/arm-elf/4.4.0/../../../../arm-elf/lib/thumb/interwork\libm.a(lib_a-e_cosh.o)
                                                  c:/espardino_tmp/bin/../lib/gcc/arm-elf/4.4.0/../../../../arm-elf/lib/thumb/interwork\libm.a(lib_a-w_cosh.o)
__ieee754_exp                                     c:/espardino_tmp/bin/../lib/gcc/arm-elf/4.4.0/../../../../arm-elf/lib/thumb/interwork\libm.a(lib_a-e_exp.o)
                                                  c:/espardino_tmp/bin/../lib/gcc/arm-elf/4.4.0/../../../../arm-elf/lib/thumb/interwork\libm.a(lib_a-e_sinh.o)
                                                  c:/espardino_tmp/bin/../lib/gcc/arm-elf/4.4.0/../../../../arm-elf/lib/thumb/interwork\libm.a(lib_a-e_cosh.o)
                                                  c:/espardino_tmp/bin/../lib/gcc/arm-elf/4.4.0/../../../../arm-elf/lib/thumb/interwork\libm.a(lib_a-w_exp.o)
__ieee754_fmod                                    c:/espardino_tmp/bin/../lib/gcc/arm-elf/4.4.0/../../../../arm-elf/lib/thumb/interwork\libm.a(lib_a-e_fmod.o)
                                                  c:/espardino_tmp/bin/../lib/gcc/arm-elf/4.4.0/../../../../arm-elf/lib/thumb/interwork\libm.a(lib_a-w_fmod.o)
__ieee754_log                                     c:/espardino_tmp/bin/../lib/gcc/arm-elf/4.4.0/../../../../arm-elf/lib/thumb/interwork\libm.a(lib_a-e_log.o)
                                                  c:/espardino_tmp/bin/../lib/gcc/arm-elf/4.4.0/../../../../arm-elf/lib/thumb/interwork\libm.a(lib_a-e_log10.o)
                                                  c:/espardino_tmp/bin/../lib/gcc/arm-elf/4.4.0/../../../../arm-elf/lib/thumb/interwork\libm.a(lib_a-w_log.o)
__ieee754_log10                                   c:/espardino_tmp/bin/../lib/gcc/arm-elf/4.4.0/../../../../arm-elf/lib/thumb/interwork\libm.a(lib_a-e_log10.o)
                                                  c:/espardino_tmp/bin/../lib/gcc/arm-elf/4.4.0/../../../../arm-elf/lib/thumb/interwork\libm.a(lib_a-w_log10.o)
__ieee754_pow                                     c:/espardino_tmp/bin/../lib/gcc/arm-elf/4.4.0/../../../../arm-elf/lib/thumb/interwork\libm.a(lib_a-e_pow.o)
                                                  c:/espardino_tmp/bin/../lib/gcc/arm-elf/4.4.0/../../../../arm-elf/lib/thumb/interwork\libm.a(lib_a-w_pow.o)
__ieee754_rem_pio2                                c:/espardino_tmp/bin/../lib/gcc/arm-elf/4.4.0/../../../../arm-elf/lib/thumb/interwork\libm.a(lib_a-e_rem_pio2.o)
                                                  c:/espardino_tmp/bin/../lib/gcc/arm-elf/4.4.0/../../../../arm-elf/lib/thumb/interwork\libm.a(lib_a-s_tan.o)
                                                  c:/espardino_tmp/bin/../lib/gcc/arm-elf/4.4.0/../../../../arm-elf/lib/thumb/interwork\libm.a(lib_a-s_sin.o)
                                                  c:/espardino_tmp/bin/../lib/gcc/arm-elf/4.4.0/../../../../arm-elf/lib/thumb/interwork\libm.a(lib_a-s_cos.o)
__ieee754_sinh                                    c:/espardino_tmp/bin/../lib/gcc/arm-elf/4.4.0/../../../../arm-elf/lib/thumb/interwork\libm.a(lib_a-e_sinh.o)
                                                  c:/espardino_tmp/bin/../lib/gcc/arm-elf/4.4.0/../../../../arm-elf/lib/thumb/interwork\libm.a(lib_a-w_sinh.o)
__ieee754_sqrt                                    c:/espardino_tmp/bin/../lib/gcc/arm-elf/4.4.0/../../../../arm-elf/lib/thumb/interwork\libm.a(lib_a-e_sqrt.o)
                                                  c:/espardino_tmp/bin/../lib/gcc/arm-elf/4.4.0/../../../../arm-elf/lib/thumb/interwork\libm.a(lib_a-e_pow.o)
                                                  c:/espardino_tmp/bin/../lib/gcc/arm-elf/4.4.0/../../../../arm-elf/lib/thumb/interwork\libm.a(lib_a-e_asin.o)
                                                  c:/espardino_tmp/bin/../lib/gcc/arm-elf/4.4.0/../../../../arm-elf/lib/thumb/interwork\libm.a(lib_a-e_acos.o)
                                                  c:/espardino_tmp/bin/../lib/gcc/arm-elf/4.4.0/../../../../arm-elf/lib/thumb/interwork\libm.a(lib_a-w_sqrt.o)
__isinfd                                          c:/espardino_tmp/bin/../lib/gcc/arm-elf/4.4.0/../../../../arm-elf/lib/thumb/interwork\libg.a(lib_a-s_isinfd.o)
                                                  c:/espardino_tmp/bin/../lib/gcc/arm-elf/4.4.0/../../../../arm-elf/lib/thumb/interwork\libg.a(lib_a-svfprintf.o)
__isnand                                          c:/espardino_tmp/bin/../lib/gcc/arm-elf/4.4.0/../../../../arm-elf/lib/thumb/interwork\libm.a(lib_a-s_isnand.o)
                                                  c:/espardino_tmp/bin/../lib/gcc/arm-elf/4.4.0/../../../../arm-elf/lib/thumb/interwork\libg.a(lib_a-svfprintf.o)
                                                  c:/espardino_tmp/bin/../lib/gcc/arm-elf/4.4.0/../../../../arm-elf/lib/thumb/interwork\libg.a(lib_a-strtod.o)
                                                  c:/espardino_tmp/bin/../lib/gcc/arm-elf/4.4.0/../../../../arm-elf/lib/thumb/interwork\libm.a(lib_a-w_sqrt.o)
                                                  c:/espardino_tmp/bin/../lib/gcc/arm-elf/4.4.0/../../../../arm-elf/lib/thumb/interwork\libm.a(lib_a-w_pow.o)
                                                  c:/espardino_tmp/bin/../lib/gcc/arm-elf/4.4.0/../../../../arm-elf/lib/thumb/interwork\libm.a(lib_a-w_log10.o)
                                                  c:/espardino_tmp/bin/../lib/gcc/arm-elf/4.4.0/../../../../arm-elf/lib/thumb/interwork\libm.a(lib_a-w_log.o)
                                                  c:/espardino_tmp/bin/../lib/gcc/arm-elf/4.4.0/../../../../arm-elf/lib/thumb/interwork\libm.a(lib_a-w_fmod.o)
                                                  c:/espardino_tmp/bin/../lib/gcc/arm-elf/4.4.0/../../../../arm-elf/lib/thumb/interwork\libm.a(lib_a-w_cosh.o)
                                                  c:/espardino_tmp/bin/../lib/gcc/arm-elf/4.4.0/../../../../arm-elf/lib/thumb/interwork\libm.a(lib_a-w_asin.o)
                                                  c:/espardino_tmp/bin/../lib/gcc/arm-elf/4.4.0/../../../../arm-elf/lib/thumb/interwork\libm.a(lib_a-w_acos.o)
__kernel_cos                                      c:/espardino_tmp/bin/../lib/gcc/arm-elf/4.4.0/../../../../arm-elf/lib/thumb/interwork\libm.a(lib_a-k_cos.o)
                                                  c:/espardino_tmp/bin/../lib/gcc/arm-elf/4.4.0/../../../../arm-elf/lib/thumb/interwork\libm.a(lib_a-s_sin.o)
                                                  c:/espardino_tmp/bin/../lib/gcc/arm-elf/4.4.0/../../../../arm-elf/lib/thumb/interwork\libm.a(lib_a-s_cos.o)
__kernel_rem_pio2                                 c:/espardino_tmp/bin/../lib/gcc/arm-elf/4.4.0/../../../../arm-elf/lib/thumb/interwork\libm.a(lib_a-k_rem_pio2.o)
                                                  c:/espardino_tmp/bin/../lib/gcc/arm-elf/4.4.0/../../../../arm-elf/lib/thumb/interwork\libm.a(lib_a-e_rem_pio2.o)
__kernel_sin                                      c:/espardino_tmp/bin/../lib/gcc/arm-elf/4.4.0/../../../../arm-elf/lib/thumb/interwork\libm.a(lib_a-k_sin.o)
                                                  c:/espardino_tmp/bin/../lib/gcc/arm-elf/4.4.0/../../../../arm-elf/lib/thumb/interwork\libm.a(lib_a-s_sin.o)
                                                  c:/espardino_tmp/bin/../lib/gcc/arm-elf/4.4.0/../../../../arm-elf/lib/thumb/interwork\libm.a(lib_a-s_cos.o)
__kernel_tan                                      c:/espardino_tmp/bin/../lib/gcc/arm-elf/4.4.0/../../../../arm-elf/lib/thumb/interwork\libm.a(lib_a-k_tan.o)
                                                  c:/espardino_tmp/bin/../lib/gcc/arm-elf/4.4.0/../../../../arm-elf/lib/thumb/interwork\libm.a(lib_a-s_tan.o)
__lc_ctype                                        c:/espardino_tmp/bin/../lib/gcc/arm-elf/4.4.0/../../../../arm-elf/lib/thumb/interwork\libg.a(lib_a-locale.o)
__ledf2                                           c:/espardino_tmp/bin/../lib/gcc/arm-elf/4.4.0/thumb/interwork\libgcc.a(_arm_cmpdf2.o)
                                                  c:/espardino_tmp/bin/../lib/gcc/arm-elf/4.4.0/../../../../arm-elf/lib/thumb/interwork\libg.a(lib_a-strtod.o)
                                                  c:/espardino_tmp/bin/../lib/gcc/arm-elf/4.4.0/../../../../arm-elf/lib/thumb/interwork\libm.a(lib_a-w_log10.o)
                                                  c:/espardino_tmp/bin/../lib/gcc/arm-elf/4.4.0/../../../../arm-elf/lib\liblua.a(all.o)
__lo0bits                                         c:/espardino_tmp/bin/../lib/gcc/arm-elf/4.4.0/../../../../arm-elf/lib/thumb/interwork\libg.a(lib_a-mprec.o)
__locale_charset                                  c:/espardino_tmp/bin/../lib/gcc/arm-elf/4.4.0/../../../../arm-elf/lib/thumb/interwork\libg.a(lib_a-locale.o)
__lshift                                          c:/espardino_tmp/bin/../lib/gcc/arm-elf/4.4.0/../../../../arm-elf/lib/thumb/interwork\libg.a(lib_a-mprec.o)
                                                  c:/espardino_tmp/bin/../lib/gcc/arm-elf/4.4.0/../../../../arm-elf/lib/thumb/interwork\libg.a(lib_a-dtoa.o)
                                                  c:/espardino_tmp/bin/../lib/gcc/arm-elf/4.4.0/../../../../arm-elf/lib/thumb/interwork\libg.a(lib_a-gdtoa-gethex.o)
                                                  c:/espardino_tmp/bin/../lib/gcc/arm-elf/4.4.0/../../../../arm-elf/lib/thumb/interwork\libg.a(lib_a-strtod.o)
__ltdf2                                           c:/espardino_tmp/bin/../lib/gcc/arm-elf/4.4.0/thumb/interwork\libgcc.a(_arm_cmpdf2.o)
                                                  c:/espardino_tmp/bin/../lib/gcc/arm-elf/4.4.0/../../../../arm-elf/lib/thumb/interwork\libg.a(lib_a-dtoa.o)
                                                  c:/espardino_tmp/bin/../lib/gcc/arm-elf/4.4.0/../../../../arm-elf/lib/thumb/interwork\libg.a(lib_a-svfprintf.o)
                                                  c:/espardino_tmp/bin/../lib/gcc/arm-elf/4.4.0/../../../../arm-elf/lib/thumb/interwork\libg.a(lib_a-strtod.o)
                                                  c:/espardino_tmp/bin/../lib/gcc/arm-elf/4.4.0/../../../../arm-elf/lib/thumb/interwork\libm.a(lib_a-s_expm1.o)
                                                  c:/espardino_tmp/bin/../lib/gcc/arm-elf/4.4.0/../../../../arm-elf/lib/thumb/interwork\libm.a(lib_a-e_exp.o)
                                                  c:/espardino_tmp/bin/../lib/gcc/arm-elf/4.4.0/../../../../arm-elf/lib/thumb/interwork\libm.a(lib_a-w_sqrt.o)
                                                  c:/espardino_tmp/bin/../lib/gcc/arm-elf/4.4.0/../../../../arm-elf/lib/thumb/interwork\libm.a(lib_a-w_pow.o)
                                                  c:/espardino_tmp/bin/../lib/gcc/arm-elf/4.4.0/../../../../arm-elf/lib/thumb/interwork\libm.a(lib_a-w_exp.o)
                                                  c:/espardino_tmp/bin/../lib/gcc/arm-elf/4.4.0/../../../../arm-elf/lib\libmicro214x.a(miniprintf.o)
                                                  c:/espardino_tmp/bin/../lib/gcc/arm-elf/4.4.0/../../../../arm-elf/lib\liblua.a(all.o)
__malloc_av_                                      c:/espardino_tmp/bin/../lib/gcc/arm-elf/4.4.0/../../../../arm-elf/lib/thumb/interwork\libg.a(lib_a-mallocr.o)
                                                  c:/espardino_tmp/bin/../lib/gcc/arm-elf/4.4.0/../../../../arm-elf/lib/thumb/interwork\libg.a(lib_a-freer.o)
                                                  c:/espardino_tmp/bin/../lib/gcc/arm-elf/4.4.0/../../../../arm-elf/lib/thumb/interwork\libg.a(lib_a-reallocr.o)
__malloc_current_mallinfo                         c:/espardino_tmp/bin/../lib/gcc/arm-elf/4.4.0/../../../../arm-elf/lib/thumb/interwork\libg.a(lib_a-mallocr.o)
                                                  c:/espardino_tmp/bin/../lib/gcc/arm-elf/4.4.0/../../../../arm-elf/lib/thumb/interwork\libg.a(lib_a-freer.o)
__malloc_lock                                     c:/espardino_tmp/bin/../lib/gcc/arm-elf/4.4.0/../../../../arm-elf/lib/thumb/interwork\libg.a(lib_a-mlock.o)
                                                  c:/espardino_tmp/bin/../lib/gcc/arm-elf/4.4.0/../../../../arm-elf/lib/thumb/interwork\libg.a(lib_a-freer.o)
                                                  c:/espardino_tmp/bin/../lib/gcc/arm-elf/4.4.0/../../../../arm-elf/lib/thumb/interwork\libg.a(lib_a-reallocr.o)
                                                  c:/espardino_tmp/bin/../lib/gcc/arm-elf/4.4.0/../../../../arm-elf/lib/thumb/interwork\libg.a(lib_a-mallocr.o)
__malloc_max_sbrked_mem                           c:/espardino_tmp/bin/../lib/gcc/arm-elf/4.4.0/../../../../arm-elf/lib/thumb/interwork\libg.a(lib_a-mallocr.o)
__malloc_max_total_mem                            c:/espardino_tmp/bin/../lib/gcc/arm-elf/4.4.0/../../../../arm-elf/lib/thumb/interwork\libg.a(lib_a-mallocr.o)
__malloc_sbrk_base                                c:/espardino_tmp/bin/../lib/gcc/arm-elf/4.4.0/../../../../arm-elf/lib/thumb/interwork\libg.a(lib_a-mallocr.o)
                                                  c:/espardino_tmp/bin/../lib/gcc/arm-elf/4.4.0/../../../../arm-elf/lib/thumb/interwork\libg.a(lib_a-freer.o)
__malloc_top_pad                                  c:/espardino_tmp/bin/../lib/gcc/arm-elf/4.4.0/../../../../arm-elf/lib/thumb/interwork\libg.a(lib_a-mallocr.o)
                                                  c:/espardino_tmp/bin/../lib/gcc/arm-elf/4.4.0/../../../../arm-elf/lib/thumb/interwork\libg.a(lib_a-freer.o)
__malloc_trim_threshold                           c:/espardino_tmp/bin/../lib/gcc/arm-elf/4.4.0/../../../../arm-elf/lib/thumb/interwork\libg.a(lib_a-mallocr.o)
                                                  c:/espardino_tmp/bin/../lib/gcc/arm-elf/4.4.0/../../../../arm-elf/lib/thumb/interwork\libg.a(lib_a-freer.o)
__malloc_unlock                                   c:/espardino_tmp/bin/../lib/gcc/arm-elf/4.4.0/../../../../arm-elf/lib/thumb/interwork\libg.a(lib_a-mlock.o)
                                                  c:/espardino_tmp/bin/../lib/gcc/arm-elf/4.4.0/../../../../arm-elf/lib/thumb/interwork\libg.a(lib_a-freer.o)
                                                  c:/espardino_tmp/bin/../lib/gcc/arm-elf/4.4.0/../../../../arm-elf/lib/thumb/interwork\libg.a(lib_a-reallocr.o)
                                                  c:/espardino_tmp/bin/../lib/gcc/arm-elf/4.4.0/../../../../arm-elf/lib/thumb/interwork\libg.a(lib_a-mallocr.o)
__mb_cur_max                                      c:/espardino_tmp/bin/../lib/gcc/arm-elf/4.4.0/../../../../arm-elf/lib/thumb/interwork\libg.a(lib_a-locale.o)
__mcmp                                            c:/espardino_tmp/bin/../lib/gcc/arm-elf/4.4.0/../../../../arm-elf/lib/thumb/interwork\libg.a(lib_a-mprec.o)
                                                  c:/espardino_tmp/bin/../lib/gcc/arm-elf/4.4.0/../../../../arm-elf/lib/thumb/interwork\libg.a(lib_a-dtoa.o)
                                                  c:/espardino_tmp/bin/../lib/gcc/arm-elf/4.4.0/../../../../arm-elf/lib/thumb/interwork\libg.a(lib_a-strtod.o)
__mdiff                                           c:/espardino_tmp/bin/../lib/gcc/arm-elf/4.4.0/../../../../arm-elf/lib/thumb/interwork\libg.a(lib_a-mprec.o)
                                                  c:/espardino_tmp/bin/../lib/gcc/arm-elf/4.4.0/../../../../arm-elf/lib/thumb/interwork\libg.a(lib_a-dtoa.o)
                                                  c:/espardino_tmp/bin/../lib/gcc/arm-elf/4.4.0/../../../../arm-elf/lib/thumb/interwork\libg.a(lib_a-strtod.o)
__memcpy_from_arm                                 c:/espardino_tmp/bin/../lib/gcc/arm-elf/4.4.0/thumb/interwork\libgcc.a(_muldi3.o)
__mlocale_changed                                 c:/espardino_tmp/bin/../lib/gcc/arm-elf/4.4.0/../../../../arm-elf/lib/thumb/interwork\libg.a(lib_a-locale.o)
__modsi3                                          c:/espardino_tmp/bin/../lib/gcc/arm-elf/4.4.0/thumb/interwork\libgcc.a(_modsi3.o)
                                                  c:/espardino_tmp/bin/../lib/gcc/arm-elf/4.4.0/../../../../arm-elf/lib/thumb/interwork\libg.a(lib_a-svfprintf.o)
                                                  c:/espardino_tmp/bin/../lib/gcc/arm-elf/4.4.0/../../../../arm-elf/lib\liblua.a(all.o)
__mprec_bigtens                                   c:/espardino_tmp/bin/../lib/gcc/arm-elf/4.4.0/../../../../arm-elf/lib/thumb/interwork\libg.a(lib_a-mprec.o)
                                                  c:/espardino_tmp/bin/../lib/gcc/arm-elf/4.4.0/../../../../arm-elf/lib/thumb/interwork\libg.a(lib_a-dtoa.o)
                                                  c:/espardino_tmp/bin/../lib/gcc/arm-elf/4.4.0/../../../../arm-elf/lib/thumb/interwork\libg.a(lib_a-strtod.o)
__mprec_tens                                      c:/espardino_tmp/bin/../lib/gcc/arm-elf/4.4.0/../../../../arm-elf/lib/thumb/interwork\libg.a(lib_a-mprec.o)
                                                  c:/espardino_tmp/bin/../lib/gcc/arm-elf/4.4.0/../../../../arm-elf/lib/thumb/interwork\libg.a(lib_a-dtoa.o)
                                                  c:/espardino_tmp/bin/../lib/gcc/arm-elf/4.4.0/../../../../arm-elf/lib/thumb/interwork\libg.a(lib_a-strtod.o)
__mprec_tinytens                                  c:/espardino_tmp/bin/../lib/gcc/arm-elf/4.4.0/../../../../arm-elf/lib/thumb/interwork\libg.a(lib_a-mprec.o)
__muldf3                                          c:/espardino_tmp/bin/../lib/gcc/arm-elf/4.4.0/thumb/interwork\libgcc.a(_arm_muldivdf3.o)
                                                  c:/espardino_tmp/bin/../lib/gcc/arm-elf/4.4.0/../../../../arm-elf/lib/thumb/interwork\libg.a(lib_a-dtoa.o)
                                                  c:/espardino_tmp/bin/../lib/gcc/arm-elf/4.4.0/../../../../arm-elf/lib/thumb/interwork\libg.a(lib_a-mprec.o)
                                                  c:/espardino_tmp/bin/../lib/gcc/arm-elf/4.4.0/../../../../arm-elf/lib/thumb/interwork\libg.a(lib_a-strtod.o)
                                                  c:/espardino_tmp/bin/../lib/gcc/arm-elf/4.4.0/../../../../arm-elf/lib/thumb/interwork\libm.a(lib_a-s_expm1.o)
                                                  c:/espardino_tmp/bin/../lib/gcc/arm-elf/4.4.0/../../../../arm-elf/lib/thumb/interwork\libm.a(lib_a-k_tan.o)
                                                  c:/espardino_tmp/bin/../lib/gcc/arm-elf/4.4.0/../../../../arm-elf/lib/thumb/interwork\libm.a(lib_a-k_sin.o)
                                                  c:/espardino_tmp/bin/../lib/gcc/arm-elf/4.4.0/../../../../arm-elf/lib/thumb/interwork\libm.a(lib_a-k_rem_pio2.o)
                                                  c:/espardino_tmp/bin/../lib/gcc/arm-elf/4.4.0/../../../../arm-elf/lib/thumb/interwork\libm.a(lib_a-k_cos.o)
                                                  c:/espardino_tmp/bin/../lib/gcc/arm-elf/4.4.0/../../../../arm-elf/lib/thumb/interwork\libm.a(lib_a-e_sqrt.o)
                                                  c:/espardino_tmp/bin/../lib/gcc/arm-elf/4.4.0/../../../../arm-elf/lib/thumb/interwork\libm.a(lib_a-e_sinh.o)
                                                  c:/espardino_tmp/bin/../lib/gcc/arm-elf/4.4.0/../../../../arm-elf/lib/thumb/interwork\libm.a(lib_a-e_rem_pio2.o)
                                                  c:/espardino_tmp/bin/../lib/gcc/arm-elf/4.4.0/../../../../arm-elf/lib/thumb/interwork\libm.a(lib_a-e_pow.o)
                                                  c:/espardino_tmp/bin/../lib/gcc/arm-elf/4.4.0/../../../../arm-elf/lib/thumb/interwork\libm.a(lib_a-e_log10.o)
                                                  c:/espardino_tmp/bin/../lib/gcc/arm-elf/4.4.0/../../../../arm-elf/lib/thumb/interwork\libm.a(lib_a-e_log.o)
                                                  c:/espardino_tmp/bin/../lib/gcc/arm-elf/4.4.0/../../../../arm-elf/lib/thumb/interwork\libm.a(lib_a-e_fmod.o)
                                                  c:/espardino_tmp/bin/../lib/gcc/arm-elf/4.4.0/../../../../arm-elf/lib/thumb/interwork\libm.a(lib_a-e_exp.o)
                                                  c:/espardino_tmp/bin/../lib/gcc/arm-elf/4.4.0/../../../../arm-elf/lib/thumb/interwork\libm.a(lib_a-e_cosh.o)
                                                  c:/espardino_tmp/bin/../lib/gcc/arm-elf/4.4.0/../../../../arm-elf/lib/thumb/interwork\libm.a(lib_a-e_asin.o)
                                                  c:/espardino_tmp/bin/../lib/gcc/arm-elf/4.4.0/../../../../arm-elf/lib/thumb/interwork\libm.a(lib_a-e_acos.o)
                                                  c:/espardino_tmp/bin/../lib/gcc/arm-elf/4.4.0/../../../../arm-elf/lib/thumb/interwork\libm.a(lib_a-w_pow.o)
                                                  c:/espardino_tmp/bin/../lib/gcc/arm-elf/4.4.0/../../../../arm-elf/lib/thumb/interwork\libm.a(lib_a-s_tanh.o)
                                                  c:/espardino_tmp/bin/../lib/gcc/arm-elf/4.4.0/../../../../arm-elf/lib/thumb/interwork\libm.a(lib_a-s_scalbn.o)
                                                  c:/espardino_tmp/bin/../lib/gcc/arm-elf/4.4.0/../../../../arm-elf/lib/thumb/interwork\libm.a(lib_a-s_frexp.o)
                                                  c:/espardino_tmp/bin/../lib/gcc/arm-elf/4.4.0/../../../../arm-elf/lib/thumb/interwork\libm.a(lib_a-s_atan.o)
                                                  c:/espardino_tmp/bin/../lib/gcc/arm-elf/4.4.0/../../../../arm-elf/lib\libmicro214x.a(miniprintf.o)
                                                  c:/espardino_tmp/bin/../lib/gcc/arm-elf/4.4.0/../../../../arm-elf/lib\liblua.a(all.o)
                                                  c:/espardino_tmp/bin/../lib/gcc/arm-elf/4.4.0/../../../../arm-elf/lib\liblua.a(lualib.o)
__muldi3                                          c:/espardino_tmp/bin/../lib/gcc/arm-elf/4.4.0/thumb/interwork\libgcc.a(_muldi3.o)
                                                  c:/espardino_tmp/bin/../lib/gcc/arm-elf/4.4.0/../../../../arm-elf/lib/thumb/interwork\libg.a(lib_a-rand.o)
__multadd                                         c:/espardino_tmp/bin/../lib/gcc/arm-elf/4.4.0/../../../../arm-elf/lib/thumb/interwork\libg.a(lib_a-mprec.o)
                                                  c:/espardino_tmp/bin/../lib/gcc/arm-elf/4.4.0/../../../../arm-elf/lib/thumb/interwork\libg.a(lib_a-dtoa.o)
__multiply                                        c:/espardino_tmp/bin/../lib/gcc/arm-elf/4.4.0/../../../../arm-elf/lib/thumb/interwork\libg.a(lib_a-mprec.o)
                                                  c:/espardino_tmp/bin/../lib/gcc/arm-elf/4.4.0/../../../../arm-elf/lib/thumb/interwork\libg.a(lib_a-dtoa.o)
                                                  c:/espardino_tmp/bin/../lib/gcc/arm-elf/4.4.0/../../../../arm-elf/lib/thumb/interwork\libg.a(lib_a-strtod.o)
__nedf2                                           c:/espardino_tmp/bin/../lib/gcc/arm-elf/4.4.0/thumb/interwork\libgcc.a(_arm_cmpdf2.o)
                                                  c:/espardino_tmp/bin/../lib/gcc/arm-elf/4.4.0/../../../../arm-elf/lib/thumb/interwork\libg.a(lib_a-dtoa.o)
                                                  c:/espardino_tmp/bin/../lib/gcc/arm-elf/4.4.0/../../../../arm-elf/lib/thumb/interwork\libg.a(lib_a-svfprintf.o)
                                                  c:/espardino_tmp/bin/../lib/gcc/arm-elf/4.4.0/../../../../arm-elf/lib/thumb/interwork\libg.a(lib_a-strtod.o)
                                                  c:/espardino_tmp/bin/../lib/gcc/arm-elf/4.4.0/../../../../arm-elf/lib/thumb/interwork\libm.a(lib_a-w_pow.o)
__nlocale_changed                                 c:/espardino_tmp/bin/../lib/gcc/arm-elf/4.4.0/../../../../arm-elf/lib/thumb/interwork\libg.a(lib_a-locale.o)
__pow5mult                                        c:/espardino_tmp/bin/../lib/gcc/arm-elf/4.4.0/../../../../arm-elf/lib/thumb/interwork\libg.a(lib_a-mprec.o)
                                                  c:/espardino_tmp/bin/../lib/gcc/arm-elf/4.4.0/../../../../arm-elf/lib/thumb/interwork\libg.a(lib_a-dtoa.o)
                                                  c:/espardino_tmp/bin/../lib/gcc/arm-elf/4.4.0/../../../../arm-elf/lib/thumb/interwork\libg.a(lib_a-strtod.o)
__print_change_to_arm                             c:/espardino_tmp/bin/../lib/gcc/arm-elf/4.4.0/thumb/interwork\libgcc.a(_muldi3.o)
__print_from_thumb                                c:/espardino_tmp/bin/../lib/gcc/arm-elf/4.4.0/thumb/interwork\libgcc.a(_muldi3.o)
__ratio                                           c:/espardino_tmp/bin/../lib/gcc/arm-elf/4.4.0/../../../../arm-elf/lib/thumb/interwork\libg.a(lib_a-mprec.o)
                                                  c:/espardino_tmp/bin/../lib/gcc/arm-elf/4.4.0/../../../../arm-elf/lib/thumb/interwork\libg.a(lib_a-strtod.o)
__s2b                                             c:/espardino_tmp/bin/../lib/gcc/arm-elf/4.4.0/../../../../arm-elf/lib/thumb/interwork\libg.a(lib_a-mprec.o)
                                                  c:/espardino_tmp/bin/../lib/gcc/arm-elf/4.4.0/../../../../arm-elf/lib/thumb/interwork\libg.a(lib_a-strtod.o)
__sclose                                          c:/espardino_tmp/bin/../lib/gcc/arm-elf/4.4.0/../../../../arm-elf/lib/thumb/interwork\libg.a(lib_a-stdio.o)
                                                  c:/espardino_tmp/bin/../lib/gcc/arm-elf/4.4.0/../../../../arm-elf/lib/thumb/interwork\libg.a(lib_a-findfp.o)
                                                  c:/espardino_tmp/bin/../lib/gcc/arm-elf/4.4.0/../../../../arm-elf/lib/thumb/interwork\libg.a(lib_a-fdopen.o)
__sflags                                          c:/espardino_tmp/bin/../lib/gcc/arm-elf/4.4.0/../../../../arm-elf/lib/thumb/interwork\libg.a(lib_a-flags.o)
                                                  c:/espardino_tmp/bin/../lib/gcc/arm-elf/4.4.0/../../../../arm-elf/lib/thumb/interwork\libg.a(lib_a-fdopen.o)
__sfmoreglue                                      c:/espardino_tmp/bin/../lib/gcc/arm-elf/4.4.0/../../../../arm-elf/lib/thumb/interwork\libg.a(lib_a-findfp.o)
__sfp                                             c:/espardino_tmp/bin/../lib/gcc/arm-elf/4.4.0/../../../../arm-elf/lib/thumb/interwork\libg.a(lib_a-findfp.o)
                                                  c:/espardino_tmp/bin/../lib/gcc/arm-elf/4.4.0/../../../../arm-elf/lib/thumb/interwork\libg.a(lib_a-fdopen.o)
__sfp_lock_acquire                                c:/espardino_tmp/bin/../lib/gcc/arm-elf/4.4.0/../../../../arm-elf/lib/thumb/interwork\libg.a(lib_a-findfp.o)
                                                  c:/espardino_tmp/bin/../lib/gcc/arm-elf/4.4.0/../../../../arm-elf/lib/thumb/interwork\libg.a(lib_a-fclose.o)
                                                  c:/espardino_tmp/bin/../lib/gcc/arm-elf/4.4.0/../../../../arm-elf/lib/thumb/interwork\libg.a(lib_a-fwalk.o)
__sfp_lock_release                                c:/espardino_tmp/bin/../lib/gcc/arm-elf/4.4.0/../../../../arm-elf/lib/thumb/interwork\libg.a(lib_a-findfp.o)
                                                  c:/espardino_tmp/bin/../lib/gcc/arm-elf/4.4.0/../../../../arm-elf/lib/thumb/interwork\libg.a(lib_a-fclose.o)
                                                  c:/espardino_tmp/bin/../lib/gcc/arm-elf/4.4.0/../../../../arm-elf/lib/thumb/interwork\libg.a(lib_a-fwalk.o)
__sinit                                           c:/espardino_tmp/bin/../lib/gcc/arm-elf/4.4.0/../../../../arm-elf/lib/thumb/interwork\libg.a(lib_a-findfp.o)
                                                  c:/espardino_tmp/bin/../lib/gcc/arm-elf/4.4.0/../../../../arm-elf/lib/thumb/interwork\libg.a(lib_a-fflush.o)
                                                  c:/espardino_tmp/bin/../lib/gcc/arm-elf/4.4.0/../../../../arm-elf/lib/thumb/interwork\libg.a(lib_a-fclose.o)
                                                  c:/espardino_tmp/bin/../lib/gcc/arm-elf/4.4.0/../../../../arm-elf/lib/thumb/interwork\libg.a(lib_a-syscalls.o)
__sinit_lock_acquire                              c:/espardino_tmp/bin/../lib/gcc/arm-elf/4.4.0/../../../../arm-elf/lib/thumb/interwork\libg.a(lib_a-findfp.o)
__sinit_lock_release                              c:/espardino_tmp/bin/../lib/gcc/arm-elf/4.4.0/../../../../arm-elf/lib/thumb/interwork\libg.a(lib_a-findfp.o)
__sread                                           c:/espardino_tmp/bin/../lib/gcc/arm-elf/4.4.0/../../../../arm-elf/lib/thumb/interwork\libg.a(lib_a-stdio.o)
                                                  c:/espardino_tmp/bin/../lib/gcc/arm-elf/4.4.0/../../../../arm-elf/lib/thumb/interwork\libg.a(lib_a-findfp.o)
                                                  c:/espardino_tmp/bin/../lib/gcc/arm-elf/4.4.0/../../../../arm-elf/lib/thumb/interwork\libg.a(lib_a-fdopen.o)
__sseek                                           c:/espardino_tmp/bin/../lib/gcc/arm-elf/4.4.0/../../../../arm-elf/lib/thumb/interwork\libg.a(lib_a-stdio.o)
                                                  c:/espardino_tmp/bin/../lib/gcc/arm-elf/4.4.0/../../../../arm-elf/lib/thumb/interwork\libg.a(lib_a-findfp.o)
                                                  c:/espardino_tmp/bin/../lib/gcc/arm-elf/4.4.0/../../../../arm-elf/lib/thumb/interwork\libg.a(lib_a-fdopen.o)
__subdf3                                          c:/espardino_tmp/bin/../lib/gcc/arm-elf/4.4.0/thumb/interwork\libgcc.a(_arm_addsubdf3.o)
                                                  c:/espardino_tmp/bin/../lib/gcc/arm-elf/4.4.0/../../../../arm-elf/lib/thumb/interwork\libg.a(lib_a-dtoa.o)
                                                  c:/espardino_tmp/bin/../lib/gcc/arm-elf/4.4.0/../../../../arm-elf/lib/thumb/interwork\libg.a(lib_a-strtod.o)
                                                  c:/espardino_tmp/bin/../lib/gcc/arm-elf/4.4.0/../../../../arm-elf/lib/thumb/interwork\libm.a(lib_a-s_rint.o)
                                                  c:/espardino_tmp/bin/../lib/gcc/arm-elf/4.4.0/../../../../arm-elf/lib/thumb/interwork\libm.a(lib_a-s_expm1.o)
                                                  c:/espardino_tmp/bin/../lib/gcc/arm-elf/4.4.0/../../../../arm-elf/lib/thumb/interwork\libm.a(lib_a-k_tan.o)
                                                  c:/espardino_tmp/bin/../lib/gcc/arm-elf/4.4.0/../../../../arm-elf/lib/thumb/interwork\libm.a(lib_a-k_sin.o)
                                                  c:/espardino_tmp/bin/../lib/gcc/arm-elf/4.4.0/../../../../arm-elf/lib/thumb/interwork\libm.a(lib_a-k_rem_pio2.o)
                                                  c:/espardino_tmp/bin/../lib/gcc/arm-elf/4.4.0/../../../../arm-elf/lib/thumb/interwork\libm.a(lib_a-k_cos.o)
                                                  c:/espardino_tmp/bin/../lib/gcc/arm-elf/4.4.0/../../../../arm-elf/lib/thumb/interwork\libm.a(lib_a-e_sqrt.o)
                                                  c:/espardino_tmp/bin/../lib/gcc/arm-elf/4.4.0/../../../../arm-elf/lib/thumb/interwork\libm.a(lib_a-e_sinh.o)
                                                  c:/espardino_tmp/bin/../lib/gcc/arm-elf/4.4.0/../../../../arm-elf/lib/thumb/interwork\libm.a(lib_a-e_rem_pio2.o)
                                                  c:/espardino_tmp/bin/../lib/gcc/arm-elf/4.4.0/../../../../arm-elf/lib/thumb/interwork\libm.a(lib_a-e_pow.o)
                                                  c:/espardino_tmp/bin/../lib/gcc/arm-elf/4.4.0/../../../../arm-elf/lib/thumb/interwork\libm.a(lib_a-e_log10.o)
                                                  c:/espardino_tmp/bin/../lib/gcc/arm-elf/4.4.0/../../../../arm-elf/lib/thumb/interwork\libm.a(lib_a-e_log.o)
                                                  c:/espardino_tmp/bin/../lib/gcc/arm-elf/4.4.0/../../../../arm-elf/lib/thumb/interwork\libm.a(lib_a-e_exp.o)
                                                  c:/espardino_tmp/bin/../lib/gcc/arm-elf/4.4.0/../../../../arm-elf/lib/thumb/interwork\libm.a(lib_a-e_atan2.o)
                                                  c:/espardino_tmp/bin/../lib/gcc/arm-elf/4.4.0/../../../../arm-elf/lib/thumb/interwork\libm.a(lib_a-e_asin.o)
                                                  c:/espardino_tmp/bin/../lib/gcc/arm-elf/4.4.0/../../../../arm-elf/lib/thumb/interwork\libm.a(lib_a-e_acos.o)
                                                  c:/espardino_tmp/bin/../lib/gcc/arm-elf/4.4.0/../../../../arm-elf/lib/thumb/interwork\libm.a(lib_a-s_tanh.o)
                                                  c:/espardino_tmp/bin/../lib/gcc/arm-elf/4.4.0/../../../../arm-elf/lib/thumb/interwork\libm.a(lib_a-s_tan.o)
                                                  c:/espardino_tmp/bin/../lib/gcc/arm-elf/4.4.0/../../../../arm-elf/lib/thumb/interwork\libm.a(lib_a-s_sin.o)
                                                  c:/espardino_tmp/bin/../lib/gcc/arm-elf/4.4.0/../../../../arm-elf/lib/thumb/interwork\libm.a(lib_a-s_modf.o)
                                                  c:/espardino_tmp/bin/../lib/gcc/arm-elf/4.4.0/../../../../arm-elf/lib/thumb/interwork\libm.a(lib_a-s_cos.o)
                                                  c:/espardino_tmp/bin/../lib/gcc/arm-elf/4.4.0/../../../../arm-elf/lib/thumb/interwork\libm.a(lib_a-s_atan.o)
                                                  c:/espardino_tmp/bin/../lib/gcc/arm-elf/4.4.0/../../../../arm-elf/lib\libmicro214x.a(miniprintf.o)
                                                  c:/espardino_tmp/bin/../lib/gcc/arm-elf/4.4.0/../../../../arm-elf/lib\liblua.a(all.o)
__swrite                                          c:/espardino_tmp/bin/../lib/gcc/arm-elf/4.4.0/../../../../arm-elf/lib/thumb/interwork\libg.a(lib_a-stdio.o)
                                                  c:/espardino_tmp/bin/../lib/gcc/arm-elf/4.4.0/../../../../arm-elf/lib/thumb/interwork\libg.a(lib_a-findfp.o)
                                                  c:/espardino_tmp/bin/../lib/gcc/arm-elf/4.4.0/../../../../arm-elf/lib/thumb/interwork\libg.a(lib_a-fdopen.o)
__truncdfsf2                                      c:/espardino_tmp/bin/../lib/gcc/arm-elf/4.4.0/thumb/interwork\libgcc.a(_arm_truncdfsf2.o)
                                                  c:/espardino_tmp/bin/../lib/gcc/arm-elf/4.4.0/../../../../arm-elf/lib/thumb/interwork\libg.a(lib_a-strtod.o)
__udivsi3                                         c:/espardino_tmp/bin/../lib/gcc/arm-elf/4.4.0/thumb/interwork\libgcc.a(_udivsi3.o)
                                                  c:/espardino_tmp/bin/../lib/gcc/arm-elf/4.4.0/../../../../arm-elf/lib/thumb/interwork\libg.a(lib_a-dtoa.o)
                                                  c:/espardino_tmp/bin/../lib/gcc/arm-elf/4.4.0/../../../../arm-elf/lib/thumb/interwork\libg.a(lib_a-svfprintf.o)
                                                  c:/espardino_tmp/bin/../lib/gcc/arm-elf/4.4.0/../../../../arm-elf/lib/thumb/interwork\libg.a(lib_a-strtoul.o)
                                                  c:/espardino_tmp/bin/../lib/gcc/arm-elf/4.4.0/../../../../arm-elf/lib\libmicro214x.a(miniprintf.o)
                                                  c:/espardino_tmp/bin/../lib/gcc/arm-elf/4.4.0/../../../../arm-elf/lib/thumb/interwork\libffs.a(ff.o)
                                                  c:/espardino_tmp/bin/../lib/gcc/arm-elf/4.4.0/../../../../arm-elf/lib\liblua.a(all.o)
__ulp                                             c:/espardino_tmp/bin/../lib/gcc/arm-elf/4.4.0/../../../../arm-elf/lib/thumb/interwork\libg.a(lib_a-mprec.o)
                                                  c:/espardino_tmp/bin/../lib/gcc/arm-elf/4.4.0/../../../../arm-elf/lib/thumb/interwork\libg.a(lib_a-strtod.o)
__umodsi3                                         c:/espardino_tmp/bin/../lib/gcc/arm-elf/4.4.0/thumb/interwork\libgcc.a(_umodsi3.o)
                                                  c:/espardino_tmp/bin/../lib/gcc/arm-elf/4.4.0/../../../../arm-elf/lib/thumb/interwork\libg.a(lib_a-svfprintf.o)
                                                  c:/espardino_tmp/bin/../lib/gcc/arm-elf/4.4.0/../../../../arm-elf/lib/thumb/interwork\libg.a(lib_a-strtoul.o)
                                                  c:/espardino_tmp/bin/../lib/gcc/arm-elf/4.4.0/../../../../arm-elf/lib\libmicro214x.a(miniprintf.o)
                                                  c:/espardino_tmp/bin/../lib/gcc/arm-elf/4.4.0/../../../../arm-elf/lib/thumb/interwork\libffs.a(ff.o)
                                                  c:/espardino_tmp/bin/../lib/gcc/arm-elf/4.4.0/../../../../arm-elf/lib\liblua.a(all.o)
__xprintf_change_to_arm                           c:/espardino_tmp/bin/../lib/gcc/arm-elf/4.4.0/thumb/interwork\libgcc.a(_muldi3.o)
__xprintf_from_thumb                              c:/espardino_tmp/bin/../lib/gcc/arm-elf/4.4.0/thumb/interwork\libgcc.a(_muldi3.o)
__xprintf_output_change_to_arm                    c:/espardino_tmp/bin/../lib/gcc/arm-elf/4.4.0/thumb/interwork\libgcc.a(_muldi3.o)
__xprintf_output_from_thumb                       c:/espardino_tmp/bin/../lib/gcc/arm-elf/4.4.0/thumb/interwork\libgcc.a(_muldi3.o)
__xputs_change_to_arm                             c:/espardino_tmp/bin/../lib/gcc/arm-elf/4.4.0/thumb/interwork\libgcc.a(_muldi3.o)
__xputs_from_thumb                                c:/espardino_tmp/bin/../lib/gcc/arm-elf/4.4.0/thumb/interwork\libgcc.a(_muldi3.o)
_boot                                             startup.o
_calloc_r                                         c:/espardino_tmp/bin/../lib/gcc/arm-elf/4.4.0/../../../../arm-elf/lib/thumb/interwork\libg.a(lib_a-callocr.o)
                                                  c:/espardino_tmp/bin/../lib/gcc/arm-elf/4.4.0/../../../../arm-elf/lib/thumb/interwork\libg.a(lib_a-mprec.o)
_cleanup                                          c:/espardino_tmp/bin/../lib/gcc/arm-elf/4.4.0/../../../../arm-elf/lib/thumb/interwork\libg.a(lib_a-findfp.o)
_cleanup_r                                        c:/espardino_tmp/bin/../lib/gcc/arm-elf/4.4.0/../../../../arm-elf/lib/thumb/interwork\libg.a(lib_a-findfp.o)
_close                                            c:/espardino_tmp/bin/../lib/gcc/arm-elf/4.4.0/../../../../arm-elf/lib/thumb/interwork\libg.a(lib_a-syscalls.o)
                                                  c:/espardino_tmp/bin/../lib/gcc/arm-elf/4.4.0/../../../../arm-elf/lib/thumb/interwork\libg.a(lib_a-closer.o)
_close_r                                          c:/espardino_tmp/bin/../lib/gcc/arm-elf/4.4.0/../../../../arm-elf/lib/thumb/interwork\libg.a(lib_a-closer.o)
                                                  c:/espardino_tmp/bin/../lib/gcc/arm-elf/4.4.0/../../../../arm-elf/lib/thumb/interwork\libg.a(lib_a-stdio.o)
                                                  c:/espardino_tmp/bin/../lib/gcc/arm-elf/4.4.0/../../../../arm-elf/lib/thumb/interwork\libg.a(lib_a-tmpnam.o)
                                                  c:/espardino_tmp/bin/../lib/gcc/arm-elf/4.4.0/../../../../arm-elf/lib/thumb/interwork\libg.a(lib_a-tmpfile.o)
_ctype_                                           c:/espardino_tmp/bin/../lib/gcc/arm-elf/4.4.0/../../../../arm-elf/lib/thumb/interwork\libg.a(lib_a-ctype_.o)
_data                                             startup.o
_dtoa_r                                           c:/espardino_tmp/bin/../lib/gcc/arm-elf/4.4.0/../../../../arm-elf/lib/thumb/interwork\libg.a(lib_a-dtoa.o)
                                                  c:/espardino_tmp/bin/../lib/gcc/arm-elf/4.4.0/../../../../arm-elf/lib/thumb/interwork\libg.a(lib_a-svfprintf.o)
_edata                                            startup.o
_etext                                            startup.o
_exit                                             c:/espardino_tmp/bin/../lib/gcc/arm-elf/4.4.0/../../../../arm-elf/lib/thumb/interwork\libg.a(lib_a-syscalls.o)
_fclose_r                                         c:/espardino_tmp/bin/../lib/gcc/arm-elf/4.4.0/../../../../arm-elf/lib/thumb/interwork\libg.a(lib_a-fclose.o)
_fdopen_r                                         c:/espardino_tmp/bin/../lib/gcc/arm-elf/4.4.0/../../../../arm-elf/lib/thumb/interwork\libg.a(lib_a-fdopen.o)
                                                  c:/espardino_tmp/bin/../lib/gcc/arm-elf/4.4.0/../../../../arm-elf/lib/thumb/interwork\libg.a(lib_a-tmpfile.o)
_fflush_r                                         c:/espardino_tmp/bin/../lib/gcc/arm-elf/4.4.0/../../../../arm-elf/lib/thumb/interwork\libg.a(lib_a-fflush.o)
                                                  c:/espardino_tmp/bin/../lib/gcc/arm-elf/4.4.0/../../../../arm-elf/lib/thumb/interwork\libg.a(lib_a-fclose.o)
_findenv                                          c:/espardino_tmp/bin/../lib/gcc/arm-elf/4.4.0/../../../../arm-elf/lib/thumb/interwork\libg.a(lib_a-getenv.o)
_findenv_r                                        c:/espardino_tmp/bin/../lib/gcc/arm-elf/4.4.0/../../../../arm-elf/lib/thumb/interwork\libg.a(lib_a-getenv_r.o)
                                                  c:/espardino_tmp/bin/../lib/gcc/arm-elf/4.4.0/../../../../arm-elf/lib/thumb/interwork\libg.a(lib_a-getenv.o)
_free_r                                           c:/espardino_tmp/bin/../lib/gcc/arm-elf/4.4.0/../../../../arm-elf/lib/thumb/interwork\libg.a(lib_a-freer.o)
                                                  c:/espardino_tmp/bin/../lib/gcc/arm-elf/4.4.0/../../../../arm-elf/lib/thumb/interwork\libg.a(lib_a-fflush.o)
                                                  c:/espardino_tmp/bin/../lib/gcc/arm-elf/4.4.0/../../../../arm-elf/lib/thumb/interwork\libg.a(lib_a-fclose.o)
                                                  c:/espardino_tmp/bin/../lib/gcc/arm-elf/4.4.0/../../../../arm-elf/lib/thumb/interwork\libg.a(lib_a-svfprintf.o)
                                                  c:/espardino_tmp/bin/../lib/gcc/arm-elf/4.4.0/../../../../arm-elf/lib/thumb/interwork\libg.a(lib_a-reent.o)
                                                  c:/espardino_tmp/bin/../lib/gcc/arm-elf/4.4.0/../../../../arm-elf/lib/thumb/interwork\libg.a(lib_a-reallocr.o)
                                                  c:/espardino_tmp/bin/../lib/gcc/arm-elf/4.4.0/../../../../arm-elf/lib/thumb/interwork\libg.a(lib_a-mallocr.o)
                                                  c:/espardino_tmp/bin/../lib/gcc/arm-elf/4.4.0/../../../../arm-elf/lib/thumb/interwork\libg.a(lib_a-malloc.o)
_fstat                                            c:/espardino_tmp/bin/../lib/gcc/arm-elf/4.4.0/../../../../arm-elf/lib/thumb/interwork\libg.a(lib_a-syscalls.o)
_fwalk                                            c:/espardino_tmp/bin/../lib/gcc/arm-elf/4.4.0/../../../../arm-elf/lib/thumb/interwork\libg.a(lib_a-fwalk.o)
                                                  c:/espardino_tmp/bin/../lib/gcc/arm-elf/4.4.0/../../../../arm-elf/lib/thumb/interwork\libg.a(lib_a-findfp.o)
_fwalk_reent                                      c:/espardino_tmp/bin/../lib/gcc/arm-elf/4.4.0/../../../../arm-elf/lib/thumb/interwork\libg.a(lib_a-fwalk.o)
                                                  c:/espardino_tmp/bin/../lib/gcc/arm-elf/4.4.0/../../../../arm-elf/lib/thumb/interwork\libg.a(lib_a-fflush.o)
_getenv_r                                         c:/espardino_tmp/bin/../lib/gcc/arm-elf/4.4.0/../../../../arm-elf/lib/thumb/interwork\libg.a(lib_a-getenv_r.o)
_getpid                                           c:/espardino_tmp/bin/../lib/gcc/arm-elf/4.4.0/../../../../arm-elf/lib/thumb/interwork\libg.a(lib_a-syscalls.o)
                                                  c:/espardino_tmp/bin/../lib/gcc/arm-elf/4.4.0/../../../../arm-elf/lib/thumb/interwork\libg.a(lib_a-signalr.o)
_getpid_r                                         c:/espardino_tmp/bin/../lib/gcc/arm-elf/4.4.0/../../../../arm-elf/lib/thumb/interwork\libg.a(lib_a-signalr.o)
                                                  c:/espardino_tmp/bin/../lib/gcc/arm-elf/4.4.0/../../../../arm-elf/lib/thumb/interwork\libg.a(lib_a-tmpnam.o)
_gettimeofday                                     c:/espardino_tmp/bin/../lib/gcc/arm-elf/4.4.0/../../../../arm-elf/lib/thumb/interwork\libg.a(lib_a-syscalls.o)
_global_impure_ptr                                c:/espardino_tmp/bin/../lib/gcc/arm-elf/4.4.0/../../../../arm-elf/lib/thumb/interwork\libg.a(lib_a-impure.o)
                                                  c:/espardino_tmp/bin/../lib/gcc/arm-elf/4.4.0/../../../../arm-elf/lib/thumb/interwork\libg.a(lib_a-fflush.o)
                                                  c:/espardino_tmp/bin/../lib/gcc/arm-elf/4.4.0/../../../../arm-elf/lib/thumb/interwork\libg.a(lib_a-findfp.o)
_impure_ptr                                       c:/espardino_tmp/bin/../lib/gcc/arm-elf/4.4.0/../../../../arm-elf/lib/thumb/interwork\libg.a(lib_a-impure.o)
                                                  c:/espardino_tmp/bin/../lib/gcc/arm-elf/4.4.0/../../../../arm-elf/lib/thumb/interwork\libg.a(lib_a-fflush.o)
                                                  c:/espardino_tmp/bin/../lib/gcc/arm-elf/4.4.0/../../../../arm-elf/lib/thumb/interwork\libg.a(lib_a-fclose.o)
                                                  c:/espardino_tmp/bin/../lib/gcc/arm-elf/4.4.0/../../../../arm-elf/lib/thumb/interwork\libg.a(lib_a-sprintf.o)
                                                  c:/espardino_tmp/bin/../lib/gcc/arm-elf/4.4.0/../../../../arm-elf/lib/thumb/interwork\libg.a(lib_a-remove.o)
                                                  c:/espardino_tmp/bin/../lib/gcc/arm-elf/4.4.0/../../../../arm-elf/lib/thumb/interwork\libg.a(lib_a-reent.o)
                                                  c:/espardino_tmp/bin/../lib/gcc/arm-elf/4.4.0/../../../../arm-elf/lib/thumb/interwork\libg.a(lib_a-getenv.o)
                                                  c:/espardino_tmp/bin/../lib/gcc/arm-elf/4.4.0/../../../../arm-elf/lib/thumb/interwork\libg.a(lib_a-findfp.o)
                                                  c:/espardino_tmp/bin/../lib/gcc/arm-elf/4.4.0/../../../../arm-elf/lib/thumb/interwork\libg.a(lib_a-fdopen.o)
                                                  c:/espardino_tmp/bin/../lib/gcc/arm-elf/4.4.0/../../../../arm-elf/lib/thumb/interwork\libg.a(lib_a-tmpnam.o)
                                                  c:/espardino_tmp/bin/../lib/gcc/arm-elf/4.4.0/../../../../arm-elf/lib/thumb/interwork\libg.a(lib_a-tmpfile.o)
                                                  c:/espardino_tmp/bin/../lib/gcc/arm-elf/4.4.0/../../../../arm-elf/lib/thumb/interwork\libg.a(lib_a-syscalls.o)
                                                  c:/espardino_tmp/bin/../lib/gcc/arm-elf/4.4.0/../../../../arm-elf/lib/thumb/interwork\libg.a(lib_a-strtoul.o)
                                                  c:/espardino_tmp/bin/../lib/gcc/arm-elf/4.4.0/../../../../arm-elf/lib/thumb/interwork\libg.a(lib_a-strtod.o)
                                                  c:/espardino_tmp/bin/../lib/gcc/arm-elf/4.4.0/../../../../arm-elf/lib/thumb/interwork\libg.a(lib_a-realloc.o)
                                                  c:/espardino_tmp/bin/../lib/gcc/arm-elf/4.4.0/../../../../arm-elf/lib/thumb/interwork\libg.a(lib_a-rand.o)
                                                  c:/espardino_tmp/bin/../lib/gcc/arm-elf/4.4.0/../../../../arm-elf/lib/thumb/interwork\libg.a(lib_a-malloc.o)
                                                  c:/espardino_tmp/bin/../lib/gcc/arm-elf/4.4.0/../../../../arm-elf/lib/thumb/interwork\libg.a(lib_a-locale.o)
                                                  c:/espardino_tmp/bin/../lib/gcc/arm-elf/4.4.0/../../../../arm-elf/lib/thumb/interwork\libg.a(lib_a-errno.o)
_isatty                                           c:/espardino_tmp/bin/../lib/gcc/arm-elf/4.4.0/../../../../arm-elf/lib/thumb/interwork\libg.a(lib_a-syscalls.o)
_kill                                             c:/espardino_tmp/bin/../lib/gcc/arm-elf/4.4.0/../../../../arm-elf/lib/thumb/interwork\libg.a(lib_a-syscalls.o)
                                                  c:/espardino_tmp/bin/../lib/gcc/arm-elf/4.4.0/../../../../arm-elf/lib/thumb/interwork\libg.a(lib_a-signalr.o)
_kill_r                                           c:/espardino_tmp/bin/../lib/gcc/arm-elf/4.4.0/../../../../arm-elf/lib/thumb/interwork\libg.a(lib_a-signalr.o)
_link                                             c:/espardino_tmp/bin/../lib/gcc/arm-elf/4.4.0/../../../../arm-elf/lib/thumb/interwork\libg.a(lib_a-syscalls.o)
_localeconv_r                                     c:/espardino_tmp/bin/../lib/gcc/arm-elf/4.4.0/../../../../arm-elf/lib/thumb/interwork\libg.a(lib_a-locale.o)
                                                  c:/espardino_tmp/bin/../lib/gcc/arm-elf/4.4.0/../../../../arm-elf/lib/thumb/interwork\libg.a(lib_a-svfprintf.o)
_lseek                                            c:/espardino_tmp/bin/../lib/gcc/arm-elf/4.4.0/../../../../arm-elf/lib/thumb/interwork\libg.a(lib_a-syscalls.o)
                                                  c:/espardino_tmp/bin/../lib/gcc/arm-elf/4.4.0/../../../../arm-elf/lib/thumb/interwork\libg.a(lib_a-lseekr.o)
_lseek_r                                          c:/espardino_tmp/bin/../lib/gcc/arm-elf/4.4.0/../../../../arm-elf/lib/thumb/interwork\libg.a(lib_a-lseekr.o)
                                                  c:/espardino_tmp/bin/../lib/gcc/arm-elf/4.4.0/../../../../arm-elf/lib/thumb/interwork\libg.a(lib_a-stdio.o)
_malloc_r                                         c:/espardino_tmp/bin/../lib/gcc/arm-elf/4.4.0/../../../../arm-elf/lib/thumb/interwork\libg.a(lib_a-mallocr.o)
                                                  c:/espardino_tmp/bin/../lib/gcc/arm-elf/4.4.0/../../../../arm-elf/lib/thumb/interwork\libg.a(lib_a-callocr.o)
                                                  c:/espardino_tmp/bin/../lib/gcc/arm-elf/4.4.0/../../../../arm-elf/lib/thumb/interwork\libg.a(lib_a-svfprintf.o)
                                                  c:/espardino_tmp/bin/../lib/gcc/arm-elf/4.4.0/../../../../arm-elf/lib/thumb/interwork\libg.a(lib_a-findfp.o)
                                                  c:/espardino_tmp/bin/../lib/gcc/arm-elf/4.4.0/../../../../arm-elf/lib/thumb/interwork\libg.a(lib_a-tmpnam.o)
                                                  c:/espardino_tmp/bin/../lib/gcc/arm-elf/4.4.0/../../../../arm-elf/lib/thumb/interwork\libg.a(lib_a-reallocr.o)
                                                  c:/espardino_tmp/bin/../lib/gcc/arm-elf/4.4.0/../../../../arm-elf/lib/thumb/interwork\libg.a(lib_a-malloc.o)
_malloc_trim_r                                    c:/espardino_tmp/bin/../lib/gcc/arm-elf/4.4.0/../../../../arm-elf/lib/thumb/interwork\libg.a(lib_a-freer.o)
_mprec_log10                                      c:/espardino_tmp/bin/../lib/gcc/arm-elf/4.4.0/../../../../arm-elf/lib/thumb/interwork\libg.a(lib_a-mprec.o)
_open                                             c:/espardino_tmp/bin/../lib/gcc/arm-elf/4.4.0/../../../../arm-elf/lib/thumb/interwork\libg.a(lib_a-syscalls.o)
                                                  c:/espardino_tmp/bin/../lib/gcc/arm-elf/4.4.0/../../../../arm-elf/lib/thumb/interwork\libg.a(lib_a-openr.o)
_open_r                                           c:/espardino_tmp/bin/../lib/gcc/arm-elf/4.4.0/../../../../arm-elf/lib/thumb/interwork\libg.a(lib_a-openr.o)
                                                  c:/espardino_tmp/bin/../lib/gcc/arm-elf/4.4.0/../../../../arm-elf/lib/thumb/interwork\libg.a(lib_a-tmpnam.o)
                                                  c:/espardino_tmp/bin/../lib/gcc/arm-elf/4.4.0/../../../../arm-elf/lib/thumb/interwork\libg.a(lib_a-tmpfile.o)
_raise                                            c:/espardino_tmp/bin/../lib/gcc/arm-elf/4.4.0/../../../../arm-elf/lib/thumb/interwork\libg.a(lib_a-syscalls.o)
_read                                             c:/espardino_tmp/bin/../lib/gcc/arm-elf/4.4.0/../../../../arm-elf/lib/thumb/interwork\libg.a(lib_a-syscalls.o)
                                                  c:/espardino_tmp/bin/../lib/gcc/arm-elf/4.4.0/../../../../arm-elf/lib/thumb/interwork\libg.a(lib_a-readr.o)
_read_r                                           c:/espardino_tmp/bin/../lib/gcc/arm-elf/4.4.0/../../../../arm-elf/lib/thumb/interwork\libg.a(lib_a-readr.o)
                                                  c:/espardino_tmp/bin/../lib/gcc/arm-elf/4.4.0/../../../../arm-elf/lib/thumb/interwork\libg.a(lib_a-stdio.o)
_realloc_r                                        c:/espardino_tmp/bin/../lib/gcc/arm-elf/4.4.0/../../../../arm-elf/lib/thumb/interwork\libg.a(lib_a-reallocr.o)
                                                  c:/espardino_tmp/bin/../lib/gcc/arm-elf/4.4.0/../../../../arm-elf/lib/thumb/interwork\libg.a(lib_a-svfprintf.o)
                                                  c:/espardino_tmp/bin/../lib/gcc/arm-elf/4.4.0/../../../../arm-elf/lib/thumb/interwork\libg.a(lib_a-realloc.o)
_reclaim_reent                                    c:/espardino_tmp/bin/../lib/gcc/arm-elf/4.4.0/../../../../arm-elf/lib/thumb/interwork\libg.a(lib_a-reent.o)
_remove_r                                         c:/espardino_tmp/bin/../lib/gcc/arm-elf/4.4.0/../../../../arm-elf/lib/thumb/interwork\libg.a(lib_a-remove.o)
                                                  c:/espardino_tmp/bin/../lib/gcc/arm-elf/4.4.0/../../../../arm-elf/lib/thumb/interwork\libg.a(lib_a-tmpfile.o)
_rename                                           c:/espardino_tmp/bin/../lib/gcc/arm-elf/4.4.0/../../../../arm-elf/lib/thumb/interwork\libg.a(lib_a-syscalls.o)
_sbrk                                             c:/espardino_tmp/bin/../lib/gcc/arm-elf/4.4.0/../../../../arm-elf/lib/thumb/interwork\libg.a(lib_a-syscalls.o)
                                                  c:/espardino_tmp/bin/../lib/gcc/arm-elf/4.4.0/../../../../arm-elf/lib/thumb/interwork\libg.a(lib_a-sbrkr.o)
_sbrk_r                                           c:/espardino_tmp/bin/../lib/gcc/arm-elf/4.4.0/../../../../arm-elf/lib/thumb/interwork\libg.a(lib_a-sbrkr.o)
                                                  c:/espardino_tmp/bin/../lib/gcc/arm-elf/4.4.0/../../../../arm-elf/lib/thumb/interwork\libg.a(lib_a-freer.o)
                                                  c:/espardino_tmp/bin/../lib/gcc/arm-elf/4.4.0/../../../../arm-elf/lib/thumb/interwork\libg.a(lib_a-mallocr.o)
_setlocale_r                                      c:/espardino_tmp/bin/../lib/gcc/arm-elf/4.4.0/../../../../arm-elf/lib/thumb/interwork\libg.a(lib_a-locale.o)
_sprintf_r                                        c:/espardino_tmp/bin/../lib/gcc/arm-elf/4.4.0/../../../../arm-elf/lib/thumb/interwork\libg.a(lib_a-sprintf.o)
                                                  c:/espardino_tmp/bin/../lib/gcc/arm-elf/4.4.0/../../../../arm-elf/lib/thumb/interwork\libg.a(lib_a-tmpnam.o)
_stat                                             c:/espardino_tmp/bin/../lib/gcc/arm-elf/4.4.0/../../../../arm-elf/lib/thumb/interwork\libg.a(lib_a-syscalls.o)
_strtod_r                                         c:/espardino_tmp/bin/../lib/gcc/arm-elf/4.4.0/../../../../arm-elf/lib/thumb/interwork\libg.a(lib_a-strtod.o)
_strtoul_r                                        c:/espardino_tmp/bin/../lib/gcc/arm-elf/4.4.0/../../../../arm-elf/lib/thumb/interwork\libg.a(lib_a-strtoul.o)
_svfprintf_r                                      c:/espardino_tmp/bin/../lib/gcc/arm-elf/4.4.0/../../../../arm-elf/lib/thumb/interwork\libg.a(lib_a-svfprintf.o)
                                                  c:/espardino_tmp/bin/../lib/gcc/arm-elf/4.4.0/../../../../arm-elf/lib/thumb/interwork\libg.a(lib_a-sprintf.o)
_swiclose                                         c:/espardino_tmp/bin/../lib/gcc/arm-elf/4.4.0/../../../../arm-elf/lib/thumb/interwork\libg.a(lib_a-syscalls.o)
_swilseek                                         c:/espardino_tmp/bin/../lib/gcc/arm-elf/4.4.0/../../../../arm-elf/lib/thumb/interwork\libg.a(lib_a-syscalls.o)
_swiopen                                          c:/espardino_tmp/bin/../lib/gcc/arm-elf/4.4.0/../../../../arm-elf/lib/thumb/interwork\libg.a(lib_a-syscalls.o)
_swiread                                          c:/espardino_tmp/bin/../lib/gcc/arm-elf/4.4.0/../../../../arm-elf/lib/thumb/interwork\libg.a(lib_a-syscalls.o)
_swiwrite                                         c:/espardino_tmp/bin/../lib/gcc/arm-elf/4.4.0/../../../../arm-elf/lib/thumb/interwork\libg.a(lib_a-syscalls.o)
_system                                           c:/espardino_tmp/bin/../lib/gcc/arm-elf/4.4.0/../../../../arm-elf/lib/thumb/interwork\libg.a(lib_a-syscalls.o)
_tempnam_r                                        c:/espardino_tmp/bin/../lib/gcc/arm-elf/4.4.0/../../../../arm-elf/lib/thumb/interwork\libg.a(lib_a-tmpnam.o)
_times                                            c:/espardino_tmp/bin/../lib/gcc/arm-elf/4.4.0/../../../../arm-elf/lib/thumb/interwork\libg.a(lib_a-syscalls.o)
_tmpfile_r                                        c:/espardino_tmp/bin/../lib/gcc/arm-elf/4.4.0/../../../../arm-elf/lib/thumb/interwork\libg.a(lib_a-tmpfile.o)
_tmpnam_r                                         c:/espardino_tmp/bin/../lib/gcc/arm-elf/4.4.0/../../../../arm-elf/lib/thumb/interwork\libg.a(lib_a-tmpnam.o)
                                                  c:/espardino_tmp/bin/../lib/gcc/arm-elf/4.4.0/../../../../arm-elf/lib/thumb/interwork\libg.a(lib_a-tmpfile.o)
_unlink                                           c:/espardino_tmp/bin/../lib/gcc/arm-elf/4.4.0/../../../../arm-elf/lib/thumb/interwork\libg.a(lib_a-syscalls.o)
                                                  c:/espardino_tmp/bin/../lib/gcc/arm-elf/4.4.0/../../../../arm-elf/lib/thumb/interwork\libg.a(lib_a-unlinkr.o)
_unlink_r                                         c:/espardino_tmp/bin/../lib/gcc/arm-elf/4.4.0/../../../../arm-elf/lib/thumb/interwork\libg.a(lib_a-unlinkr.o)
                                                  c:/espardino_tmp/bin/../lib/gcc/arm-elf/4.4.0/../../../../arm-elf/lib/thumb/interwork\libg.a(lib_a-remove.o)
_wrapup_reent                                     c:/espardino_tmp/bin/../lib/gcc/arm-elf/4.4.0/../../../../arm-elf/lib/thumb/interwork\libg.a(lib_a-reent.o)
_write                                            c:/espardino_tmp/bin/../lib/gcc/arm-elf/4.4.0/../../../../arm-elf/lib/thumb/interwork\libg.a(lib_a-syscalls.o)
                                                  c:/espardino_tmp/bin/../lib/gcc/arm-elf/4.4.0/../../../../arm-elf/lib/thumb/interwork\libg.a(lib_a-writer.o)
_write_r                                          c:/espardino_tmp/bin/../lib/gcc/arm-elf/4.4.0/../../../../arm-elf/lib/thumb/interwork\libg.a(lib_a-writer.o)
                                                  c:/espardino_tmp/bin/../lib/gcc/arm-elf/4.4.0/../../../../arm-elf/lib/thumb/interwork\libg.a(lib_a-stdio.o)
acos                                              c:/espardino_tmp/bin/../lib/gcc/arm-elf/4.4.0/../../../../arm-elf/lib/thumb/interwork\libm.a(lib_a-w_acos.o)
                                                  c:/espardino_tmp/bin/../lib/gcc/arm-elf/4.4.0/../../../../arm-elf/lib\liblua.a(all.o)
asin                                              c:/espardino_tmp/bin/../lib/gcc/arm-elf/4.4.0/../../../../arm-elf/lib/thumb/interwork\libm.a(lib_a-w_asin.o)
                                                  c:/espardino_tmp/bin/../lib/gcc/arm-elf/4.4.0/../../../../arm-elf/lib\liblua.a(all.o)
atan                                              c:/espardino_tmp/bin/../lib/gcc/arm-elf/4.4.0/../../../../arm-elf/lib/thumb/interwork\libm.a(lib_a-s_atan.o)
                                                  c:/espardino_tmp/bin/../lib/gcc/arm-elf/4.4.0/../../../../arm-elf/lib/thumb/interwork\libm.a(lib_a-e_atan2.o)
                                                  c:/espardino_tmp/bin/../lib/gcc/arm-elf/4.4.0/../../../../arm-elf/lib\liblua.a(all.o)
atan2                                             c:/espardino_tmp/bin/../lib/gcc/arm-elf/4.4.0/../../../../arm-elf/lib/thumb/interwork\libm.a(lib_a-w_atan2.o)
                                                  c:/espardino_tmp/bin/../lib/gcc/arm-elf/4.4.0/../../../../arm-elf/lib\liblua.a(all.o)
ceil                                              c:/espardino_tmp/bin/../lib/gcc/arm-elf/4.4.0/../../../../arm-elf/lib/thumb/interwork\libm.a(lib_a-s_ceil.o)
                                                  c:/espardino_tmp/bin/../lib/gcc/arm-elf/4.4.0/../../../../arm-elf/lib\liblua.a(all.o)
cleanup_glue                                      c:/espardino_tmp/bin/../lib/gcc/arm-elf/4.4.0/../../../../arm-elf/lib/thumb/interwork\libg.a(lib_a-reent.o)
copysign                                          c:/espardino_tmp/bin/../lib/gcc/arm-elf/4.4.0/../../../../arm-elf/lib/thumb/interwork\libm.a(lib_a-s_copysign.o)
                                                  c:/espardino_tmp/bin/../lib/gcc/arm-elf/4.4.0/../../../../arm-elf/lib/thumb/interwork\libm.a(lib_a-s_scalbn.o)
cos                                               c:/espardino_tmp/bin/../lib/gcc/arm-elf/4.4.0/../../../../arm-elf/lib/thumb/interwork\libm.a(lib_a-s_cos.o)
                                                  c:/espardino_tmp/bin/../lib/gcc/arm-elf/4.4.0/../../../../arm-elf/lib\liblua.a(all.o)
cosh                                              c:/espardino_tmp/bin/../lib/gcc/arm-elf/4.4.0/../../../../arm-elf/lib/thumb/interwork\libm.a(lib_a-w_cosh.o)
                                                  c:/espardino_tmp/bin/../lib/gcc/arm-elf/4.4.0/../../../../arm-elf/lib\liblua.a(all.o)
delay_init                                        c:/espardino_tmp/bin/../lib/gcc/arm-elf/4.4.0/../../../../arm-elf/lib\liblua.a(lualib.o)
delay_us                                          c:/espardino_tmp/bin/../lib/gcc/arm-elf/4.4.0/../../../../arm-elf/lib\liblua.a(lualib.o)
disableFIQ                                        c:/espardino_tmp/bin/../lib/gcc/arm-elf/4.4.0/../../../../arm-elf/lib/thumb/interwork\libvcom.a(armVIC.o)
disableIRQ                                        c:/espardino_tmp/bin/../lib/gcc/arm-elf/4.4.0/../../../../arm-elf/lib/thumb/interwork\libvcom.a(armVIC.o)
disk_initialize                                   c:/espardino_tmp/bin/../lib/gcc/arm-elf/4.4.0/../../../../arm-elf/lib/thumb/interwork\libffs.a(sd_spi_lpc2000.o)
                                                  c:/espardino_tmp/bin/../lib/gcc/arm-elf/4.4.0/../../../../arm-elf/lib/thumb/interwork\libffs.a(ff.o)
disk_ioctl                                        c:/espardino_tmp/bin/../lib/gcc/arm-elf/4.4.0/../../../../arm-elf/lib/thumb/interwork\libffs.a(sd_spi_lpc2000.o)
                                                  c:/espardino_tmp/bin/../lib/gcc/arm-elf/4.4.0/../../../../arm-elf/lib/thumb/interwork\libffs.a(ff.o)
disk_read                                         c:/espardino_tmp/bin/../lib/gcc/arm-elf/4.4.0/../../../../arm-elf/lib/thumb/interwork\libffs.a(sd_spi_lpc2000.o)
                                                  c:/espardino_tmp/bin/../lib/gcc/arm-elf/4.4.0/../../../../arm-elf/lib/thumb/interwork\libffs.a(ff.o)
disk_status                                       c:/espardino_tmp/bin/../lib/gcc/arm-elf/4.4.0/../../../../arm-elf/lib/thumb/interwork\libffs.a(sd_spi_lpc2000.o)
                                                  c:/espardino_tmp/bin/../lib/gcc/arm-elf/4.4.0/../../../../arm-elf/lib/thumb/interwork\libffs.a(ff.o)
disk_write                                        c:/espardino_tmp/bin/../lib/gcc/arm-elf/4.4.0/../../../../arm-elf/lib/thumb/interwork\libffs.a(sd_spi_lpc2000.o)
                                                  c:/espardino_tmp/bin/../lib/gcc/arm-elf/4.4.0/../../../../arm-elf/lib/thumb/interwork\libffs.a(ff.o)
enableFIQ                                         c:/espardino_tmp/bin/../lib/gcc/arm-elf/4.4.0/../../../../arm-elf/lib/thumb/interwork\libvcom.a(armVIC.o)
enableIRQ                                         c:/espardino_tmp/bin/../lib/gcc/arm-elf/4.4.0/../../../../arm-elf/lib/thumb/interwork\libvcom.a(armVIC.o)
                                                  c:/espardino_tmp/bin/../lib/gcc/arm-elf/4.4.0/../../../../arm-elf/lib/thumb/interwork\libvcom.a(main_serial.o)
end                                               c:/espardino_tmp/bin/../lib/gcc/arm-elf/4.4.0/../../../../arm-elf/lib/thumb/interwork\libg.a(lib_a-syscalls.o)
environ                                           c:/espardino_tmp/bin/../lib/gcc/arm-elf/4.4.0/../../../../arm-elf/lib/thumb/interwork\libg.a(lib_a-environ.o)
                                                  c:/espardino_tmp/bin/../lib/gcc/arm-elf/4.4.0/../../../../arm-elf/lib/thumb/interwork\libg.a(lib_a-getenv_r.o)
errno                                             c:/espardino_tmp/bin/../lib/gcc/arm-elf/4.4.0/../../../../arm-elf/lib/thumb/interwork\libg.a(lib_a-readr.o)
                                                  c:/espardino_tmp/bin/../lib/gcc/arm-elf/4.4.0/../../../../arm-elf/lib/thumb/interwork\libg.a(lib_a-lseekr.o)
                                                  c:/espardino_tmp/bin/../lib/gcc/arm-elf/4.4.0/../../../../arm-elf/lib/thumb/interwork\libg.a(lib_a-writer.o)
                                                  c:/espardino_tmp/bin/../lib/gcc/arm-elf/4.4.0/../../../../arm-elf/lib/thumb/interwork\libg.a(lib_a-unlinkr.o)
                                                  c:/espardino_tmp/bin/../lib/gcc/arm-elf/4.4.0/../../../../arm-elf/lib/thumb/interwork\libg.a(lib_a-signalr.o)
                                                  c:/espardino_tmp/bin/../lib/gcc/arm-elf/4.4.0/../../../../arm-elf/lib/thumb/interwork\libg.a(lib_a-reent.o)
                                                  c:/espardino_tmp/bin/../lib/gcc/arm-elf/4.4.0/../../../../arm-elf/lib/thumb/interwork\libg.a(lib_a-openr.o)
                                                  c:/espardino_tmp/bin/../lib/gcc/arm-elf/4.4.0/../../../../arm-elf/lib/thumb/interwork\libg.a(lib_a-closer.o)
                                                  c:/espardino_tmp/bin/../lib/gcc/arm-elf/4.4.0/../../../../arm-elf/lib/thumb/interwork\libg.a(lib_a-sbrkr.o)
exec_from_file                                    main.o
exec_from_string                                  main.o
exp                                               c:/espardino_tmp/bin/../lib/gcc/arm-elf/4.4.0/../../../../arm-elf/lib/thumb/interwork\libm.a(lib_a-w_exp.o)
                                                  c:/espardino_tmp/bin/../lib/gcc/arm-elf/4.4.0/../../../../arm-elf/lib\liblua.a(all.o)
expm1                                             c:/espardino_tmp/bin/../lib/gcc/arm-elf/4.4.0/../../../../arm-elf/lib/thumb/interwork\libm.a(lib_a-s_expm1.o)
                                                  c:/espardino_tmp/bin/../lib/gcc/arm-elf/4.4.0/../../../../arm-elf/lib/thumb/interwork\libm.a(lib_a-e_sinh.o)
                                                  c:/espardino_tmp/bin/../lib/gcc/arm-elf/4.4.0/../../../../arm-elf/lib/thumb/interwork\libm.a(lib_a-e_cosh.o)
                                                  c:/espardino_tmp/bin/../lib/gcc/arm-elf/4.4.0/../../../../arm-elf/lib/thumb/interwork\libm.a(lib_a-s_tanh.o)
f_chmod                                           c:/espardino_tmp/bin/../lib/gcc/arm-elf/4.4.0/../../../../arm-elf/lib/thumb/interwork\libffs.a(ff.o)
f_close                                           c:/espardino_tmp/bin/../lib/gcc/arm-elf/4.4.0/../../../../arm-elf/lib/thumb/interwork\libffs.a(ff.o)
                                                  c:/espardino_tmp/bin/../lib/gcc/arm-elf/4.4.0/../../../../arm-elf/lib\liblua.a(lua_io_wrappers.o)
f_getfree                                         c:/espardino_tmp/bin/../lib/gcc/arm-elf/4.4.0/../../../../arm-elf/lib/thumb/interwork\libffs.a(ff.o)
f_gets                                            c:/espardino_tmp/bin/../lib/gcc/arm-elf/4.4.0/../../../../arm-elf/lib/thumb/interwork\libffs.a(ff.o)
f_lseek                                           c:/espardino_tmp/bin/../lib/gcc/arm-elf/4.4.0/../../../../arm-elf/lib/thumb/interwork\libffs.a(ff.o)
                                                  c:/espardino_tmp/bin/../lib/gcc/arm-elf/4.4.0/../../../../arm-elf/lib\liblua.a(lua_io_wrappers.o)
f_mkdir                                           c:/espardino_tmp/bin/../lib/gcc/arm-elf/4.4.0/../../../../arm-elf/lib/thumb/interwork\libffs.a(ff.o)
f_mkfs                                            c:/espardino_tmp/bin/../lib/gcc/arm-elf/4.4.0/../../../../arm-elf/lib/thumb/interwork\libffs.a(ff.o)
f_mount                                           c:/espardino_tmp/bin/../lib/gcc/arm-elf/4.4.0/../../../../arm-elf/lib/thumb/interwork\libffs.a(ff.o)
                                                  main.o
f_open                                            c:/espardino_tmp/bin/../lib/gcc/arm-elf/4.4.0/../../../../arm-elf/lib/thumb/interwork\libffs.a(ff.o)
                                                  c:/espardino_tmp/bin/../lib/gcc/arm-elf/4.4.0/../../../../arm-elf/lib\liblua.a(lua_io_wrappers.o)
f_opendir                                         c:/espardino_tmp/bin/../lib/gcc/arm-elf/4.4.0/../../../../arm-elf/lib/thumb/interwork\libffs.a(ff.o)
f_printf                                          c:/espardino_tmp/bin/../lib/gcc/arm-elf/4.4.0/../../../../arm-elf/lib/thumb/interwork\libffs.a(ff.o)
f_putc                                            c:/espardino_tmp/bin/../lib/gcc/arm-elf/4.4.0/../../../../arm-elf/lib/thumb/interwork\libffs.a(ff.o)
                                                  c:/espardino_tmp/bin/../lib/gcc/arm-elf/4.4.0/../../../../arm-elf/lib\liblua.a(lua_io_wrappers.o)
f_puts                                            c:/espardino_tmp/bin/../lib/gcc/arm-elf/4.4.0/../../../../arm-elf/lib/thumb/interwork\libffs.a(ff.o)
                                                  c:/espardino_tmp/bin/../lib/gcc/arm-elf/4.4.0/../../../../arm-elf/lib\liblua.a(lua_io_wrappers.o)
f_read                                            c:/espardino_tmp/bin/../lib/gcc/arm-elf/4.4.0/../../../../arm-elf/lib/thumb/interwork\libffs.a(ff.o)
                                                  c:/espardino_tmp/bin/../lib/gcc/arm-elf/4.4.0/../../../../arm-elf/lib\liblua.a(lua_io_wrappers.o)
f_readdir                                         c:/espardino_tmp/bin/../lib/gcc/arm-elf/4.4.0/../../../../arm-elf/lib/thumb/interwork\libffs.a(ff.o)
f_rename                                          c:/espardino_tmp/bin/../lib/gcc/arm-elf/4.4.0/../../../../arm-elf/lib/thumb/interwork\libffs.a(ff.o)
f_stat                                            c:/espardino_tmp/bin/../lib/gcc/arm-elf/4.4.0/../../../../arm-elf/lib/thumb/interwork\libffs.a(ff.o)
f_sync                                            c:/espardino_tmp/bin/../lib/gcc/arm-elf/4.4.0/../../../../arm-elf/lib/thumb/interwork\libffs.a(ff.o)
                                                  c:/espardino_tmp/bin/../lib/gcc/arm-elf/4.4.0/../../../../arm-elf/lib\liblua.a(lua_io_wrappers.o)
f_truncate                                        c:/espardino_tmp/bin/../lib/gcc/arm-elf/4.4.0/../../../../arm-elf/lib/thumb/interwork\libffs.a(ff.o)
f_unlink                                          c:/espardino_tmp/bin/../lib/gcc/arm-elf/4.4.0/../../../../arm-elf/lib/thumb/interwork\libffs.a(ff.o)
f_utime                                           c:/espardino_tmp/bin/../lib/gcc/arm-elf/4.4.0/../../../../arm-elf/lib/thumb/interwork\libffs.a(ff.o)
f_write                                           c:/espardino_tmp/bin/../lib/gcc/arm-elf/4.4.0/../../../../arm-elf/lib/thumb/interwork\libffs.a(ff.o)
                                                  c:/espardino_tmp/bin/../lib/gcc/arm-elf/4.4.0/../../../../arm-elf/lib\liblua.a(lua_io_wrappers.o)
fabs                                              c:/espardino_tmp/bin/../lib/gcc/arm-elf/4.4.0/../../../../arm-elf/lib/thumb/interwork\libm.a(lib_a-s_fabs.o)
                                                  c:/espardino_tmp/bin/../lib/gcc/arm-elf/4.4.0/../../../../arm-elf/lib/thumb/interwork\libm.a(lib_a-k_tan.o)
                                                  c:/espardino_tmp/bin/../lib/gcc/arm-elf/4.4.0/../../../../arm-elf/lib/thumb/interwork\libm.a(lib_a-e_sinh.o)
                                                  c:/espardino_tmp/bin/../lib/gcc/arm-elf/4.4.0/../../../../arm-elf/lib/thumb/interwork\libm.a(lib_a-e_rem_pio2.o)
                                                  c:/espardino_tmp/bin/../lib/gcc/arm-elf/4.4.0/../../../../arm-elf/lib/thumb/interwork\libm.a(lib_a-e_pow.o)
                                                  c:/espardino_tmp/bin/../lib/gcc/arm-elf/4.4.0/../../../../arm-elf/lib/thumb/interwork\libm.a(lib_a-e_cosh.o)
                                                  c:/espardino_tmp/bin/../lib/gcc/arm-elf/4.4.0/../../../../arm-elf/lib/thumb/interwork\libm.a(lib_a-e_atan2.o)
                                                  c:/espardino_tmp/bin/../lib/gcc/arm-elf/4.4.0/../../../../arm-elf/lib/thumb/interwork\libm.a(lib_a-e_asin.o)
                                                  c:/espardino_tmp/bin/../lib/gcc/arm-elf/4.4.0/../../../../arm-elf/lib/thumb/interwork\libm.a(lib_a-w_cosh.o)
                                                  c:/espardino_tmp/bin/../lib/gcc/arm-elf/4.4.0/../../../../arm-elf/lib/thumb/interwork\libm.a(lib_a-w_asin.o)
                                                  c:/espardino_tmp/bin/../lib/gcc/arm-elf/4.4.0/../../../../arm-elf/lib/thumb/interwork\libm.a(lib_a-w_acos.o)
                                                  c:/espardino_tmp/bin/../lib/gcc/arm-elf/4.4.0/../../../../arm-elf/lib/thumb/interwork\libm.a(lib_a-s_tanh.o)
                                                  c:/espardino_tmp/bin/../lib/gcc/arm-elf/4.4.0/../../../../arm-elf/lib/thumb/interwork\libm.a(lib_a-s_atan.o)
fclose                                            c:/espardino_tmp/bin/../lib/gcc/arm-elf/4.4.0/../../../../arm-elf/lib/thumb/interwork\libg.a(lib_a-fclose.o)
                                                  c:/espardino_tmp/bin/../lib/gcc/arm-elf/4.4.0/../../../../arm-elf/lib/thumb/interwork\libg.a(lib_a-findfp.o)
fdopen                                            c:/espardino_tmp/bin/../lib/gcc/arm-elf/4.4.0/../../../../arm-elf/lib/thumb/interwork\libg.a(lib_a-fdopen.o)
ff_convert                                        c:/espardino_tmp/bin/../lib/gcc/arm-elf/4.4.0/../../../../arm-elf/lib/thumb/interwork\libffs.a(ccsbcs.o)
                                                  c:/espardino_tmp/bin/../lib/gcc/arm-elf/4.4.0/../../../../arm-elf/lib/thumb/interwork\libffs.a(ff.o)
ff_wtoupper                                       c:/espardino_tmp/bin/../lib/gcc/arm-elf/4.4.0/../../../../arm-elf/lib/thumb/interwork\libffs.a(ccsbcs.o)
                                                  c:/espardino_tmp/bin/../lib/gcc/arm-elf/4.4.0/../../../../arm-elf/lib/thumb/interwork\libffs.a(ff.o)
fflush                                            c:/espardino_tmp/bin/../lib/gcc/arm-elf/4.4.0/../../../../arm-elf/lib/thumb/interwork\libg.a(lib_a-fflush.o)
fifo_avail                                        c:/espardino_tmp/bin/../lib/gcc/arm-elf/4.4.0/../../../../arm-elf/lib/thumb/interwork\libvcom.a(serial_fifo.o)
                                                  c:/espardino_tmp/bin/../lib/gcc/arm-elf/4.4.0/../../../../arm-elf/lib/thumb/interwork\libvcom.a(main_serial.o)
fifo_free                                         c:/espardino_tmp/bin/../lib/gcc/arm-elf/4.4.0/../../../../arm-elf/lib/thumb/interwork\libvcom.a(serial_fifo.o)
                                                  c:/espardino_tmp/bin/../lib/gcc/arm-elf/4.4.0/../../../../arm-elf/lib/thumb/interwork\libvcom.a(main_serial.o)
fifo_get                                          c:/espardino_tmp/bin/../lib/gcc/arm-elf/4.4.0/../../../../arm-elf/lib/thumb/interwork\libvcom.a(serial_fifo.o)
                                                  c:/espardino_tmp/bin/../lib/gcc/arm-elf/4.4.0/../../../../arm-elf/lib/thumb/interwork\libvcom.a(main_serial.o)
fifo_init                                         c:/espardino_tmp/bin/../lib/gcc/arm-elf/4.4.0/../../../../arm-elf/lib/thumb/interwork\libvcom.a(serial_fifo.o)
                                                  c:/espardino_tmp/bin/../lib/gcc/arm-elf/4.4.0/../../../../arm-elf/lib/thumb/interwork\libvcom.a(main_serial.o)
fifo_put                                          c:/espardino_tmp/bin/../lib/gcc/arm-elf/4.4.0/../../../../arm-elf/lib/thumb/interwork\libvcom.a(serial_fifo.o)
                                                  c:/espardino_tmp/bin/../lib/gcc/arm-elf/4.4.0/../../../../arm-elf/lib/thumb/interwork\libvcom.a(main_serial.o)
finite                                            c:/espardino_tmp/bin/../lib/gcc/arm-elf/4.4.0/../../../../arm-elf/lib/thumb/interwork\libm.a(lib_a-s_finite.o)
                                                  c:/espardino_tmp/bin/../lib/gcc/arm-elf/4.4.0/../../../../arm-elf/lib/thumb/interwork\libm.a(lib_a-w_sinh.o)
                                                  c:/espardino_tmp/bin/../lib/gcc/arm-elf/4.4.0/../../../../arm-elf/lib/thumb/interwork\libm.a(lib_a-w_pow.o)
                                                  c:/espardino_tmp/bin/../lib/gcc/arm-elf/4.4.0/../../../../arm-elf/lib/thumb/interwork\libm.a(lib_a-w_exp.o)
                                                  c:/espardino_tmp/bin/../lib/gcc/arm-elf/4.4.0/../../../../arm-elf/lib/thumb/interwork\libm.a(lib_a-s_ldexp.o)
floor                                             c:/espardino_tmp/bin/../lib/gcc/arm-elf/4.4.0/../../../../arm-elf/lib/thumb/interwork\libm.a(lib_a-s_floor.o)
                                                  c:/espardino_tmp/bin/../lib/gcc/arm-elf/4.4.0/../../../../arm-elf/lib/thumb/interwork\libm.a(lib_a-k_rem_pio2.o)
                                                  c:/espardino_tmp/bin/../lib/gcc/arm-elf/4.4.0/../../../../arm-elf/lib\libmicro214x.a(miniprintf.o)
                                                  c:/espardino_tmp/bin/../lib/gcc/arm-elf/4.4.0/../../../../arm-elf/lib\liblua.a(all.o)
fmod                                              c:/espardino_tmp/bin/../lib/gcc/arm-elf/4.4.0/../../../../arm-elf/lib/thumb/interwork\libm.a(lib_a-w_fmod.o)
                                                  c:/espardino_tmp/bin/../lib/gcc/arm-elf/4.4.0/../../../../arm-elf/lib\liblua.a(all.o)
free                                              c:/espardino_tmp/bin/../lib/gcc/arm-elf/4.4.0/../../../../arm-elf/lib/thumb/interwork\libg.a(lib_a-malloc.o)
                                                  c:/espardino_tmp/bin/../lib/gcc/arm-elf/4.4.0/../../../../arm-elf/lib\liblua.a(all.o)
                                                  c:/espardino_tmp/bin/../lib/gcc/arm-elf/4.4.0/../../../../arm-elf/lib\liblua.a(lua_io_wrappers.o)
frexp                                             c:/espardino_tmp/bin/../lib/gcc/arm-elf/4.4.0/../../../../arm-elf/lib/thumb/interwork\libm.a(lib_a-s_frexp.o)
                                                  c:/espardino_tmp/bin/../lib/gcc/arm-elf/4.4.0/../../../../arm-elf/lib\liblua.a(all.o)
gen_numname                                       c:/espardino_tmp/bin/../lib/gcc/arm-elf/4.4.0/../../../../arm-elf/lib/thumb/interwork\libffs.a(ff.o)
get_fattime                                       c:/espardino_tmp/bin/../lib/gcc/arm-elf/4.4.0/../../../../arm-elf/lib/thumb/interwork\libffs.a(fattime.o)
                                                  c:/espardino_tmp/bin/../lib/gcc/arm-elf/4.4.0/../../../../arm-elf/lib/thumb/interwork\libffs.a(ff.o)
getenv                                            c:/espardino_tmp/bin/../lib/gcc/arm-elf/4.4.0/../../../../arm-elf/lib/thumb/interwork\libg.a(lib_a-getenv.o)
                                                  c:/espardino_tmp/bin/../lib/gcc/arm-elf/4.4.0/../../../../arm-elf/lib/thumb/interwork\libg.a(lib_a-tmpnam.o)
initialise_monitor_handles                        c:/espardino_tmp/bin/../lib/gcc/arm-elf/4.4.0/../../../../arm-elf/lib/thumb/interwork\libg.a(lib_a-syscalls.o)
ldexp                                             c:/espardino_tmp/bin/../lib/gcc/arm-elf/4.4.0/../../../../arm-elf/lib/thumb/interwork\libm.a(lib_a-s_ldexp.o)
                                                  c:/espardino_tmp/bin/../lib/gcc/arm-elf/4.4.0/../../../../arm-elf/lib\liblua.a(all.o)
localeconv                                        c:/espardino_tmp/bin/../lib/gcc/arm-elf/4.4.0/../../../../arm-elf/lib/thumb/interwork\libg.a(lib_a-locale.o)
                                                  c:/espardino_tmp/bin/../lib/gcc/arm-elf/4.4.0/../../../../arm-elf/lib\liblua.a(all.o)
log                                               c:/espardino_tmp/bin/../lib/gcc/arm-elf/4.4.0/../../../../arm-elf/lib/thumb/interwork\libm.a(lib_a-w_log.o)
                                                  c:/espardino_tmp/bin/../lib/gcc/arm-elf/4.4.0/../../../../arm-elf/lib\liblua.a(all.o)
log10                                             c:/espardino_tmp/bin/../lib/gcc/arm-elf/4.4.0/../../../../arm-elf/lib/thumb/interwork\libm.a(lib_a-w_log10.o)
                                                  c:/espardino_tmp/bin/../lib/gcc/arm-elf/4.4.0/../../../../arm-elf/lib\liblua.a(all.o)
longjmp                                           c:/espardino_tmp/bin/../lib/gcc/arm-elf/4.4.0/../../../../arm-elf/lib/thumb/interwork\libg.a(lib_a-setjmp.o)
                                                  c:/espardino_tmp/bin/../lib/gcc/arm-elf/4.4.0/../../../../arm-elf/lib\liblua.a(all.o)
luaL_addlstring                                   c:/espardino_tmp/bin/../lib/gcc/arm-elf/4.4.0/../../../../arm-elf/lib\liblua.a(all.o)
luaL_addstring                                    c:/espardino_tmp/bin/../lib/gcc/arm-elf/4.4.0/../../../../arm-elf/lib\liblua.a(all.o)
luaL_addvalue                                     c:/espardino_tmp/bin/../lib/gcc/arm-elf/4.4.0/../../../../arm-elf/lib\liblua.a(all.o)
luaL_argerror                                     c:/espardino_tmp/bin/../lib/gcc/arm-elf/4.4.0/../../../../arm-elf/lib\liblua.a(all.o)
                                                  c:/espardino_tmp/bin/../lib/gcc/arm-elf/4.4.0/../../../../arm-elf/lib\liblua.a(lualib.o)
luaL_buffinit                                     c:/espardino_tmp/bin/../lib/gcc/arm-elf/4.4.0/../../../../arm-elf/lib\liblua.a(all.o)
luaL_callmeta                                     c:/espardino_tmp/bin/../lib/gcc/arm-elf/4.4.0/../../../../arm-elf/lib\liblua.a(all.o)
luaL_checkany                                     c:/espardino_tmp/bin/../lib/gcc/arm-elf/4.4.0/../../../../arm-elf/lib\liblua.a(all.o)
luaL_checkinteger                                 c:/espardino_tmp/bin/../lib/gcc/arm-elf/4.4.0/../../../../arm-elf/lib\liblua.a(all.o)
luaL_checklstring                                 c:/espardino_tmp/bin/../lib/gcc/arm-elf/4.4.0/../../../../arm-elf/lib\liblua.a(all.o)
luaL_checknumber                                  c:/espardino_tmp/bin/../lib/gcc/arm-elf/4.4.0/../../../../arm-elf/lib\liblua.a(all.o)
luaL_checkoption                                  c:/espardino_tmp/bin/../lib/gcc/arm-elf/4.4.0/../../../../arm-elf/lib\liblua.a(all.o)
luaL_checkstack                                   c:/espardino_tmp/bin/../lib/gcc/arm-elf/4.4.0/../../../../arm-elf/lib\liblua.a(all.o)
luaL_checktype                                    c:/espardino_tmp/bin/../lib/gcc/arm-elf/4.4.0/../../../../arm-elf/lib\liblua.a(all.o)
                                                  c:/espardino_tmp/bin/../lib/gcc/arm-elf/4.4.0/../../../../arm-elf/lib\liblua.a(lualib.o)
luaL_checkudata                                   c:/espardino_tmp/bin/../lib/gcc/arm-elf/4.4.0/../../../../arm-elf/lib\liblua.a(all.o)
luaL_error                                        c:/espardino_tmp/bin/../lib/gcc/arm-elf/4.4.0/../../../../arm-elf/lib\liblua.a(all.o)
                                                  c:/espardino_tmp/bin/../lib/gcc/arm-elf/4.4.0/../../../../arm-elf/lib\liblua.a(lualib_bit.o)
                                                  c:/espardino_tmp/bin/../lib/gcc/arm-elf/4.4.0/../../../../arm-elf/lib\liblua.a(lualib.o)
                                                  main.o
luaL_findtable                                    c:/espardino_tmp/bin/../lib/gcc/arm-elf/4.4.0/../../../../arm-elf/lib\liblua.a(all.o)
luaL_getmetafield                                 c:/espardino_tmp/bin/../lib/gcc/arm-elf/4.4.0/../../../../arm-elf/lib\liblua.a(all.o)
luaL_gsub                                         c:/espardino_tmp/bin/../lib/gcc/arm-elf/4.4.0/../../../../arm-elf/lib\liblua.a(all.o)
luaL_loadbuffer                                   c:/espardino_tmp/bin/../lib/gcc/arm-elf/4.4.0/../../../../arm-elf/lib\liblua.a(all.o)
                                                  c:/espardino_tmp/bin/../lib/gcc/arm-elf/4.4.0/../../../../arm-elf/lib\liblua.a(lualib_console.o)
luaL_loadfile                                     c:/espardino_tmp/bin/../lib/gcc/arm-elf/4.4.0/../../../../arm-elf/lib\liblua.a(all.o)
                                                  main.o
luaL_loadstring                                   c:/espardino_tmp/bin/../lib/gcc/arm-elf/4.4.0/../../../../arm-elf/lib\liblua.a(all.o)
                                                  main.o
luaL_newmetatable                                 c:/espardino_tmp/bin/../lib/gcc/arm-elf/4.4.0/../../../../arm-elf/lib\liblua.a(all.o)
luaL_newstate                                     c:/espardino_tmp/bin/../lib/gcc/arm-elf/4.4.0/../../../../arm-elf/lib\liblua.a(all.o)
                                                  c:/espardino_tmp/bin/../lib/gcc/arm-elf/4.4.0/../../../../arm-elf/lib\liblua.a(lualib.o)
luaL_openlib                                      c:/espardino_tmp/bin/../lib/gcc/arm-elf/4.4.0/../../../../arm-elf/lib\liblua.a(all.o)
luaL_openlibs                                     c:/espardino_tmp/bin/../lib/gcc/arm-elf/4.4.0/../../../../arm-elf/lib\liblua.a(all.o)
luaL_optinteger                                   c:/espardino_tmp/bin/../lib/gcc/arm-elf/4.4.0/../../../../arm-elf/lib\liblua.a(all.o)
luaL_optlstring                                   c:/espardino_tmp/bin/../lib/gcc/arm-elf/4.4.0/../../../../arm-elf/lib\liblua.a(all.o)
luaL_optnumber                                    c:/espardino_tmp/bin/../lib/gcc/arm-elf/4.4.0/../../../../arm-elf/lib\liblua.a(all.o)
luaL_prepbuffer                                   c:/espardino_tmp/bin/../lib/gcc/arm-elf/4.4.0/../../../../arm-elf/lib\liblua.a(all.o)
luaL_pushresult                                   c:/espardino_tmp/bin/../lib/gcc/arm-elf/4.4.0/../../../../arm-elf/lib\liblua.a(all.o)
luaL_ref                                          c:/espardino_tmp/bin/../lib/gcc/arm-elf/4.4.0/../../../../arm-elf/lib\liblua.a(all.o)
luaL_register                                     c:/espardino_tmp/bin/../lib/gcc/arm-elf/4.4.0/../../../../arm-elf/lib\liblua.a(all.o)
luaL_typerror                                     c:/espardino_tmp/bin/../lib/gcc/arm-elf/4.4.0/../../../../arm-elf/lib\liblua.a(all.o)
                                                  c:/espardino_tmp/bin/../lib/gcc/arm-elf/4.4.0/../../../../arm-elf/lib\liblua.a(lualib_bit.o)
luaL_unref                                        c:/espardino_tmp/bin/../lib/gcc/arm-elf/4.4.0/../../../../arm-elf/lib\liblua.a(all.o)
luaL_where                                        c:/espardino_tmp/bin/../lib/gcc/arm-elf/4.4.0/../../../../arm-elf/lib\liblua.a(all.o)
luaO_nilobject_                                   c:/espardino_tmp/bin/../lib/gcc/arm-elf/4.4.0/../../../../arm-elf/lib\liblua.a(all.o)
luaP_opmodes                                      c:/espardino_tmp/bin/../lib/gcc/arm-elf/4.4.0/../../../../arm-elf/lib\liblua.a(all.o)
luaP_opnames                                      c:/espardino_tmp/bin/../lib/gcc/arm-elf/4.4.0/../../../../arm-elf/lib\liblua.a(all.o)
luaT_typenames                                    c:/espardino_tmp/bin/../lib/gcc/arm-elf/4.4.0/../../../../arm-elf/lib\liblua.a(all.o)
luaX_tokens                                       c:/espardino_tmp/bin/../lib/gcc/arm-elf/4.4.0/../../../../arm-elf/lib\liblua.a(all.o)
lua_atpanic                                       c:/espardino_tmp/bin/../lib/gcc/arm-elf/4.4.0/../../../../arm-elf/lib\liblua.a(all.o)
lua_call                                          c:/espardino_tmp/bin/../lib/gcc/arm-elf/4.4.0/../../../../arm-elf/lib\liblua.a(all.o)
                                                  c:/espardino_tmp/bin/../lib/gcc/arm-elf/4.4.0/../../../../arm-elf/lib\liblua.a(lualib_console.o)
                                                  c:/espardino_tmp/bin/../lib/gcc/arm-elf/4.4.0/../../../../arm-elf/lib\liblua.a(lualib.o)
lua_checkstack                                    c:/espardino_tmp/bin/../lib/gcc/arm-elf/4.4.0/../../../../arm-elf/lib\liblua.a(all.o)
lua_close                                         c:/espardino_tmp/bin/../lib/gcc/arm-elf/4.4.0/../../../../arm-elf/lib\liblua.a(all.o)
                                                  c:/espardino_tmp/bin/../lib/gcc/arm-elf/4.4.0/../../../../arm-elf/lib\liblua.a(lualib.o)
lua_concat                                        c:/espardino_tmp/bin/../lib/gcc/arm-elf/4.4.0/../../../../arm-elf/lib\liblua.a(all.o)
                                                  c:/espardino_tmp/bin/../lib/gcc/arm-elf/4.4.0/../../../../arm-elf/lib\liblua.a(lualib_console.o)
lua_cpcall                                        c:/espardino_tmp/bin/../lib/gcc/arm-elf/4.4.0/../../../../arm-elf/lib\liblua.a(all.o)
lua_createtable                                   c:/espardino_tmp/bin/../lib/gcc/arm-elf/4.4.0/../../../../arm-elf/lib\liblua.a(all.o)
lua_dump                                          c:/espardino_tmp/bin/../lib/gcc/arm-elf/4.4.0/../../../../arm-elf/lib\liblua.a(all.o)
lua_equal                                         c:/espardino_tmp/bin/../lib/gcc/arm-elf/4.4.0/../../../../arm-elf/lib\liblua.a(all.o)
lua_error                                         c:/espardino_tmp/bin/../lib/gcc/arm-elf/4.4.0/../../../../arm-elf/lib\liblua.a(all.o)
lua_fatfs                                         c:/espardino_tmp/bin/../lib/gcc/arm-elf/4.4.0/../../../../arm-elf/lib\liblua.a(lua_io_wrappers.o)
lua_gc                                            c:/espardino_tmp/bin/../lib/gcc/arm-elf/4.4.0/../../../../arm-elf/lib\liblua.a(all.o)
                                                  c:/espardino_tmp/bin/../lib/gcc/arm-elf/4.4.0/../../../../arm-elf/lib\liblua.a(lualib_console.o)
lua_getallocf                                     c:/espardino_tmp/bin/../lib/gcc/arm-elf/4.4.0/../../../../arm-elf/lib\liblua.a(all.o)
lua_getfenv                                       c:/espardino_tmp/bin/../lib/gcc/arm-elf/4.4.0/../../../../arm-elf/lib\liblua.a(all.o)
lua_getfield                                      c:/espardino_tmp/bin/../lib/gcc/arm-elf/4.4.0/../../../../arm-elf/lib\liblua.a(all.o)
                                                  c:/espardino_tmp/bin/../lib/gcc/arm-elf/4.4.0/../../../../arm-elf/lib\liblua.a(lualib_console.o)
lua_gethook                                       c:/espardino_tmp/bin/../lib/gcc/arm-elf/4.4.0/../../../../arm-elf/lib\liblua.a(all.o)
lua_gethookcount                                  c:/espardino_tmp/bin/../lib/gcc/arm-elf/4.4.0/../../../../arm-elf/lib\liblua.a(all.o)
lua_gethookmask                                   c:/espardino_tmp/bin/../lib/gcc/arm-elf/4.4.0/../../../../arm-elf/lib\liblua.a(all.o)
lua_getinfo                                       c:/espardino_tmp/bin/../lib/gcc/arm-elf/4.4.0/../../../../arm-elf/lib\liblua.a(all.o)
lua_getlocal                                      c:/espardino_tmp/bin/../lib/gcc/arm-elf/4.4.0/../../../../arm-elf/lib\liblua.a(all.o)
lua_getmetatable                                  c:/espardino_tmp/bin/../lib/gcc/arm-elf/4.4.0/../../../../arm-elf/lib\liblua.a(all.o)
lua_getstack                                      c:/espardino_tmp/bin/../lib/gcc/arm-elf/4.4.0/../../../../arm-elf/lib\liblua.a(all.o)
lua_gettable                                      c:/espardino_tmp/bin/../lib/gcc/arm-elf/4.4.0/../../../../arm-elf/lib\liblua.a(all.o)
lua_gettop                                        c:/espardino_tmp/bin/../lib/gcc/arm-elf/4.4.0/../../../../arm-elf/lib\liblua.a(all.o)
                                                  c:/espardino_tmp/bin/../lib/gcc/arm-elf/4.4.0/../../../../arm-elf/lib\liblua.a(lualib_bit.o)
                                                  c:/espardino_tmp/bin/../lib/gcc/arm-elf/4.4.0/../../../../arm-elf/lib\liblua.a(lualib_console.o)
                                                  c:/espardino_tmp/bin/../lib/gcc/arm-elf/4.4.0/../../../../arm-elf/lib\liblua.a(lualib.o)
                                                  main.o
lua_getupvalue                                    c:/espardino_tmp/bin/../lib/gcc/arm-elf/4.4.0/../../../../arm-elf/lib\liblua.a(all.o)
lua_ident                                         c:/espardino_tmp/bin/../lib/gcc/arm-elf/4.4.0/../../../../arm-elf/lib\liblua.a(all.o)
lua_insert                                        c:/espardino_tmp/bin/../lib/gcc/arm-elf/4.4.0/../../../../arm-elf/lib\liblua.a(all.o)
                                                  c:/espardino_tmp/bin/../lib/gcc/arm-elf/4.4.0/../../../../arm-elf/lib\liblua.a(lualib_console.o)
lua_iscfunction                                   c:/espardino_tmp/bin/../lib/gcc/arm-elf/4.4.0/../../../../arm-elf/lib\liblua.a(all.o)
lua_isnumber                                      c:/espardino_tmp/bin/../lib/gcc/arm-elf/4.4.0/../../../../arm-elf/lib\liblua.a(all.o)
                                                  c:/espardino_tmp/bin/../lib/gcc/arm-elf/4.4.0/../../../../arm-elf/lib\liblua.a(lualib_bit.o)
lua_isstring                                      c:/espardino_tmp/bin/../lib/gcc/arm-elf/4.4.0/../../../../arm-elf/lib\liblua.a(all.o)
                                                  c:/espardino_tmp/bin/../lib/gcc/arm-elf/4.4.0/../../../../arm-elf/lib\liblua.a(lualib_console.o)
lua_isuserdata                                    c:/espardino_tmp/bin/../lib/gcc/arm-elf/4.4.0/../../../../arm-elf/lib\liblua.a(all.o)
lua_lessthan                                      c:/espardino_tmp/bin/../lib/gcc/arm-elf/4.4.0/../../../../arm-elf/lib\liblua.a(all.o)
lua_load                                          c:/espardino_tmp/bin/../lib/gcc/arm-elf/4.4.0/../../../../arm-elf/lib\liblua.a(all.o)
lua_newstate                                      c:/espardino_tmp/bin/../lib/gcc/arm-elf/4.4.0/../../../../arm-elf/lib\liblua.a(all.o)
lua_newthread                                     c:/espardino_tmp/bin/../lib/gcc/arm-elf/4.4.0/../../../../arm-elf/lib\liblua.a(all.o)
lua_newuserdata                                   c:/espardino_tmp/bin/../lib/gcc/arm-elf/4.4.0/../../../../arm-elf/lib\liblua.a(all.o)
lua_next                                          c:/espardino_tmp/bin/../lib/gcc/arm-elf/4.4.0/../../../../arm-elf/lib\liblua.a(all.o)
                                                  c:/espardino_tmp/bin/../lib/gcc/arm-elf/4.4.0/../../../../arm-elf/lib\liblua.a(lualib.o)
lua_objlen                                        c:/espardino_tmp/bin/../lib/gcc/arm-elf/4.4.0/../../../../arm-elf/lib\liblua.a(all.o)
                                                  c:/espardino_tmp/bin/../lib/gcc/arm-elf/4.4.0/../../../../arm-elf/lib\liblua.a(lualib_console.o)
lua_pcall                                         c:/espardino_tmp/bin/../lib/gcc/arm-elf/4.4.0/../../../../arm-elf/lib\liblua.a(all.o)
                                                  c:/espardino_tmp/bin/../lib/gcc/arm-elf/4.4.0/../../../../arm-elf/lib\liblua.a(lualib_console.o)
                                                  main.o
lua_pushboolean                                   c:/espardino_tmp/bin/../lib/gcc/arm-elf/4.4.0/../../../../arm-elf/lib\liblua.a(all.o)
                                                  c:/espardino_tmp/bin/../lib/gcc/arm-elf/4.4.0/../../../../arm-elf/lib\liblua.a(lualib.o)
lua_pushcclosure                                  c:/espardino_tmp/bin/../lib/gcc/arm-elf/4.4.0/../../../../arm-elf/lib\liblua.a(all.o)
                                                  c:/espardino_tmp/bin/../lib/gcc/arm-elf/4.4.0/../../../../arm-elf/lib\liblua.a(lualib_bit.o)
                                                  c:/espardino_tmp/bin/../lib/gcc/arm-elf/4.4.0/../../../../arm-elf/lib\liblua.a(lualib_console.o)
                                                  c:/espardino_tmp/bin/../lib/gcc/arm-elf/4.4.0/../../../../arm-elf/lib\liblua.a(lualib.o)
                                                  main.o
lua_pushfstring                                   c:/espardino_tmp/bin/../lib/gcc/arm-elf/4.4.0/../../../../arm-elf/lib\liblua.a(all.o)
                                                  c:/espardino_tmp/bin/../lib/gcc/arm-elf/4.4.0/../../../../arm-elf/lib\liblua.a(lualib_console.o)
lua_pushinteger                                   c:/espardino_tmp/bin/../lib/gcc/arm-elf/4.4.0/../../../../arm-elf/lib\liblua.a(all.o)
                                                  c:/espardino_tmp/bin/../lib/gcc/arm-elf/4.4.0/../../../../arm-elf/lib\liblua.a(lualib_console.o)
lua_pushlightuserdata                             c:/espardino_tmp/bin/../lib/gcc/arm-elf/4.4.0/../../../../arm-elf/lib\liblua.a(all.o)
lua_pushlstring                                   c:/espardino_tmp/bin/../lib/gcc/arm-elf/4.4.0/../../../../arm-elf/lib\liblua.a(all.o)
                                                  c:/espardino_tmp/bin/../lib/gcc/arm-elf/4.4.0/../../../../arm-elf/lib\liblua.a(lualib_bit.o)
                                                  c:/espardino_tmp/bin/../lib/gcc/arm-elf/4.4.0/../../../../arm-elf/lib\liblua.a(lualib_console.o)
lua_pushnil                                       c:/espardino_tmp/bin/../lib/gcc/arm-elf/4.4.0/../../../../arm-elf/lib\liblua.a(all.o)
                                                  c:/espardino_tmp/bin/../lib/gcc/arm-elf/4.4.0/../../../../arm-elf/lib\liblua.a(lualib.o)
lua_pushnumber                                    c:/espardino_tmp/bin/../lib/gcc/arm-elf/4.4.0/../../../../arm-elf/lib\liblua.a(all.o)
                                                  c:/espardino_tmp/bin/../lib/gcc/arm-elf/4.4.0/../../../../arm-elf/lib\liblua.a(lualib_bit.o)
                                                  c:/espardino_tmp/bin/../lib/gcc/arm-elf/4.4.0/../../../../arm-elf/lib\liblua.a(lualib.o)
                                                  main.o
lua_pushstring                                    c:/espardino_tmp/bin/../lib/gcc/arm-elf/4.4.0/../../../../arm-elf/lib\liblua.a(all.o)
                                                  c:/espardino_tmp/bin/../lib/gcc/arm-elf/4.4.0/../../../../arm-elf/lib\liblua.a(lualib_console.o)
                                                  c:/espardino_tmp/bin/../lib/gcc/arm-elf/4.4.0/../../../../arm-elf/lib\liblua.a(lualib.o)
lua_pushthread                                    c:/espardino_tmp/bin/../lib/gcc/arm-elf/4.4.0/../../../../arm-elf/lib\liblua.a(all.o)
lua_pushvalue                                     c:/espardino_tmp/bin/../lib/gcc/arm-elf/4.4.0/../../../../arm-elf/lib\liblua.a(all.o)
                                                  c:/espardino_tmp/bin/../lib/gcc/arm-elf/4.4.0/../../../../arm-elf/lib\liblua.a(lualib_console.o)
                                                  c:/espardino_tmp/bin/../lib/gcc/arm-elf/4.4.0/../../../../arm-elf/lib\liblua.a(lualib.o)
lua_pushvfstring                                  c:/espardino_tmp/bin/../lib/gcc/arm-elf/4.4.0/../../../../arm-elf/lib\liblua.a(all.o)
lua_rawequal                                      c:/espardino_tmp/bin/../lib/gcc/arm-elf/4.4.0/../../../../arm-elf/lib\liblua.a(all.o)
lua_rawget                                        c:/espardino_tmp/bin/../lib/gcc/arm-elf/4.4.0/../../../../arm-elf/lib\liblua.a(all.o)
lua_rawgeti                                       c:/espardino_tmp/bin/../lib/gcc/arm-elf/4.4.0/../../../../arm-elf/lib\liblua.a(all.o)
lua_rawset                                        c:/espardino_tmp/bin/../lib/gcc/arm-elf/4.4.0/../../../../arm-elf/lib\liblua.a(all.o)
lua_rawseti                                       c:/espardino_tmp/bin/../lib/gcc/arm-elf/4.4.0/../../../../arm-elf/lib\liblua.a(all.o)
lua_remove                                        c:/espardino_tmp/bin/../lib/gcc/arm-elf/4.4.0/../../../../arm-elf/lib\liblua.a(all.o)
                                                  c:/espardino_tmp/bin/../lib/gcc/arm-elf/4.4.0/../../../../arm-elf/lib\liblua.a(lualib_console.o)
lua_replace                                       c:/espardino_tmp/bin/../lib/gcc/arm-elf/4.4.0/../../../../arm-elf/lib\liblua.a(all.o)
lua_resume                                        c:/espardino_tmp/bin/../lib/gcc/arm-elf/4.4.0/../../../../arm-elf/lib\liblua.a(all.o)
lua_setallocf                                     c:/espardino_tmp/bin/../lib/gcc/arm-elf/4.4.0/../../../../arm-elf/lib\liblua.a(all.o)
lua_setfenv                                       c:/espardino_tmp/bin/../lib/gcc/arm-elf/4.4.0/../../../../arm-elf/lib\liblua.a(all.o)
lua_setfield                                      c:/espardino_tmp/bin/../lib/gcc/arm-elf/4.4.0/../../../../arm-elf/lib\liblua.a(all.o)
                                                  c:/espardino_tmp/bin/../lib/gcc/arm-elf/4.4.0/../../../../arm-elf/lib\liblua.a(lualib_bit.o)
                                                  c:/espardino_tmp/bin/../lib/gcc/arm-elf/4.4.0/../../../../arm-elf/lib\liblua.a(lualib_console.o)
                                                  c:/espardino_tmp/bin/../lib/gcc/arm-elf/4.4.0/../../../../arm-elf/lib\liblua.a(lualib.o)
                                                  main.o
lua_sethook                                       c:/espardino_tmp/bin/../lib/gcc/arm-elf/4.4.0/../../../../arm-elf/lib\liblua.a(all.o)
lua_setlevel                                      c:/espardino_tmp/bin/../lib/gcc/arm-elf/4.4.0/../../../../arm-elf/lib\liblua.a(all.o)
lua_setlocal                                      c:/espardino_tmp/bin/../lib/gcc/arm-elf/4.4.0/../../../../arm-elf/lib\liblua.a(all.o)
lua_setmetatable                                  c:/espardino_tmp/bin/../lib/gcc/arm-elf/4.4.0/../../../../arm-elf/lib\liblua.a(all.o)
lua_settable                                      c:/espardino_tmp/bin/../lib/gcc/arm-elf/4.4.0/../../../../arm-elf/lib\liblua.a(all.o)
lua_settop                                        c:/espardino_tmp/bin/../lib/gcc/arm-elf/4.4.0/../../../../arm-elf/lib\liblua.a(all.o)
                                                  c:/espardino_tmp/bin/../lib/gcc/arm-elf/4.4.0/../../../../arm-elf/lib\liblua.a(lualib_console.o)
                                                  c:/espardino_tmp/bin/../lib/gcc/arm-elf/4.4.0/../../../../arm-elf/lib\liblua.a(lualib.o)
lua_setupvalue                                    c:/espardino_tmp/bin/../lib/gcc/arm-elf/4.4.0/../../../../arm-elf/lib\liblua.a(all.o)
lua_status                                        c:/espardino_tmp/bin/../lib/gcc/arm-elf/4.4.0/../../../../arm-elf/lib\liblua.a(all.o)
lua_toboolean                                     c:/espardino_tmp/bin/../lib/gcc/arm-elf/4.4.0/../../../../arm-elf/lib\liblua.a(all.o)
lua_tocfunction                                   c:/espardino_tmp/bin/../lib/gcc/arm-elf/4.4.0/../../../../arm-elf/lib\liblua.a(all.o)
lua_tointeger                                     c:/espardino_tmp/bin/../lib/gcc/arm-elf/4.4.0/../../../../arm-elf/lib\liblua.a(all.o)
lua_tolstring                                     c:/espardino_tmp/bin/../lib/gcc/arm-elf/4.4.0/../../../../arm-elf/lib\liblua.a(all.o)
                                                  c:/espardino_tmp/bin/../lib/gcc/arm-elf/4.4.0/../../../../arm-elf/lib\liblua.a(lualib_console.o)
                                                  main.o
lua_tonumber                                      c:/espardino_tmp/bin/../lib/gcc/arm-elf/4.4.0/../../../../arm-elf/lib\liblua.a(all.o)
                                                  c:/espardino_tmp/bin/../lib/gcc/arm-elf/4.4.0/../../../../arm-elf/lib\liblua.a(lualib_bit.o)
                                                  c:/espardino_tmp/bin/../lib/gcc/arm-elf/4.4.0/../../../../arm-elf/lib\liblua.a(lualib.o)
                                                  main.o
lua_topointer                                     c:/espardino_tmp/bin/../lib/gcc/arm-elf/4.4.0/../../../../arm-elf/lib\liblua.a(all.o)
lua_tothread                                      c:/espardino_tmp/bin/../lib/gcc/arm-elf/4.4.0/../../../../arm-elf/lib\liblua.a(all.o)
lua_touserdata                                    c:/espardino_tmp/bin/../lib/gcc/arm-elf/4.4.0/../../../../arm-elf/lib\liblua.a(all.o)
lua_type                                          c:/espardino_tmp/bin/../lib/gcc/arm-elf/4.4.0/../../../../arm-elf/lib\liblua.a(all.o)
                                                  c:/espardino_tmp/bin/../lib/gcc/arm-elf/4.4.0/../../../../arm-elf/lib\liblua.a(lualib_bit.o)
                                                  c:/espardino_tmp/bin/../lib/gcc/arm-elf/4.4.0/../../../../arm-elf/lib\liblua.a(lualib_console.o)
                                                  c:/espardino_tmp/bin/../lib/gcc/arm-elf/4.4.0/../../../../arm-elf/lib\liblua.a(lualib.o)
lua_typename                                      c:/espardino_tmp/bin/../lib/gcc/arm-elf/4.4.0/../../../../arm-elf/lib\liblua.a(all.o)
lua_xmove                                         c:/espardino_tmp/bin/../lib/gcc/arm-elf/4.4.0/../../../../arm-elf/lib\liblua.a(all.o)
lua_yield                                         c:/espardino_tmp/bin/../lib/gcc/arm-elf/4.4.0/../../../../arm-elf/lib\liblua.a(all.o)
luaconsole_do_exit                                c:/espardino_tmp/bin/../lib/gcc/arm-elf/4.4.0/../../../../arm-elf/lib\liblua.a(lualib_console.o)
luaopen_base                                      c:/espardino_tmp/bin/../lib/gcc/arm-elf/4.4.0/../../../../arm-elf/lib\liblua.a(all.o)
                                                  c:/espardino_tmp/bin/../lib/gcc/arm-elf/4.4.0/../../../../arm-elf/lib\liblua.a(lualib.o)
luaopen_bit                                       c:/espardino_tmp/bin/../lib/gcc/arm-elf/4.4.0/../../../../arm-elf/lib\liblua.a(lualib_bit.o)
                                                  c:/espardino_tmp/bin/../lib/gcc/arm-elf/4.4.0/../../../../arm-elf/lib\liblua.a(lualib.o)
luaopen_io                                        c:/espardino_tmp/bin/../lib/gcc/arm-elf/4.4.0/../../../../arm-elf/lib\liblua.a(all.o)
                                                  c:/espardino_tmp/bin/../lib/gcc/arm-elf/4.4.0/../../../../arm-elf/lib\liblua.a(lualib.o)
luaopen_math                                      c:/espardino_tmp/bin/../lib/gcc/arm-elf/4.4.0/../../../../arm-elf/lib\liblua.a(all.o)
                                                  c:/espardino_tmp/bin/../lib/gcc/arm-elf/4.4.0/../../../../arm-elf/lib\liblua.a(lualib.o)
main                                              main.o
                                                  startup.o
malloc                                            c:/espardino_tmp/bin/../lib/gcc/arm-elf/4.4.0/../../../../arm-elf/lib/thumb/interwork\libg.a(lib_a-malloc.o)
                                                  c:/espardino_tmp/bin/../lib/gcc/arm-elf/4.4.0/../../../../arm-elf/lib\liblua.a(lua_io_wrappers.o)
matherr                                           c:/espardino_tmp/bin/../lib/gcc/arm-elf/4.4.0/../../../../arm-elf/lib/thumb/interwork\libm.a(lib_a-s_matherr.o)
                                                  c:/espardino_tmp/bin/../lib/gcc/arm-elf/4.4.0/../../../../arm-elf/lib/thumb/interwork\libm.a(lib_a-w_sqrt.o)
                                                  c:/espardino_tmp/bin/../lib/gcc/arm-elf/4.4.0/../../../../arm-elf/lib/thumb/interwork\libm.a(lib_a-w_sinh.o)
                                                  c:/espardino_tmp/bin/../lib/gcc/arm-elf/4.4.0/../../../../arm-elf/lib/thumb/interwork\libm.a(lib_a-w_pow.o)
                                                  c:/espardino_tmp/bin/../lib/gcc/arm-elf/4.4.0/../../../../arm-elf/lib/thumb/interwork\libm.a(lib_a-w_log10.o)
                                                  c:/espardino_tmp/bin/../lib/gcc/arm-elf/4.4.0/../../../../arm-elf/lib/thumb/interwork\libm.a(lib_a-w_log.o)
                                                  c:/espardino_tmp/bin/../lib/gcc/arm-elf/4.4.0/../../../../arm-elf/lib/thumb/interwork\libm.a(lib_a-w_fmod.o)
                                                  c:/espardino_tmp/bin/../lib/gcc/arm-elf/4.4.0/../../../../arm-elf/lib/thumb/interwork\libm.a(lib_a-w_exp.o)
                                                  c:/espardino_tmp/bin/../lib/gcc/arm-elf/4.4.0/../../../../arm-elf/lib/thumb/interwork\libm.a(lib_a-w_cosh.o)
                                                  c:/espardino_tmp/bin/../lib/gcc/arm-elf/4.4.0/../../../../arm-elf/lib/thumb/interwork\libm.a(lib_a-w_asin.o)
                                                  c:/espardino_tmp/bin/../lib/gcc/arm-elf/4.4.0/../../../../arm-elf/lib/thumb/interwork\libm.a(lib_a-w_acos.o)
memchr                                            c:/espardino_tmp/bin/../lib/gcc/arm-elf/4.4.0/../../../../arm-elf/lib/thumb/interwork\libg.a(lib_a-memchr.o)
                                                  c:/espardino_tmp/bin/../lib/gcc/arm-elf/4.4.0/../../../../arm-elf/lib/thumb/interwork\libg.a(lib_a-svfprintf.o)
                                                  c:/espardino_tmp/bin/../lib/gcc/arm-elf/4.4.0/../../../../arm-elf/lib/thumb/interwork\libg.a(lib_a-strstr.o)
memcmp                                            c:/espardino_tmp/bin/../lib/gcc/arm-elf/4.4.0/../../../../arm-elf/lib/thumb/interwork\libg.a(lib_a-memcmp.o)
                                                  c:/espardino_tmp/bin/../lib/gcc/arm-elf/4.4.0/../../../../arm-elf/lib/thumb/interwork\libg.a(lib_a-strstr.o)
                                                  c:/espardino_tmp/bin/../lib/gcc/arm-elf/4.4.0/../../../../arm-elf/lib\liblua.a(all.o)
memcpy                                            c:/espardino_tmp/bin/../lib/gcc/arm-elf/4.4.0/../../../../arm-elf/lib/thumb/interwork\libg.a(lib_a-memcpy.o)
                                                  c:/espardino_tmp/bin/../lib/gcc/arm-elf/4.4.0/../../../../arm-elf/lib/thumb/interwork\libg.a(lib_a-dtoa.o)
                                                  c:/espardino_tmp/bin/../lib/gcc/arm-elf/4.4.0/../../../../arm-elf/lib/thumb/interwork\libg.a(lib_a-svfprintf.o)
                                                  c:/espardino_tmp/bin/../lib/gcc/arm-elf/4.4.0/../../../../arm-elf/lib/thumb/interwork\libg.a(lib_a-mprec.o)
                                                  c:/espardino_tmp/bin/../lib/gcc/arm-elf/4.4.0/../../../../arm-elf/lib/thumb/interwork\libg.a(lib_a-gdtoa-gethex.o)
                                                  c:/espardino_tmp/bin/../lib/gcc/arm-elf/4.4.0/../../../../arm-elf/lib/thumb/interwork\libg.a(lib_a-strtod.o)
                                                  c:/espardino_tmp/bin/../lib/gcc/arm-elf/4.4.0/../../../../arm-elf/lib/thumb/interwork\libvcom.a(main_serial.o)
                                                  c:/espardino_tmp/bin/../lib/gcc/arm-elf/4.4.0/../../../../arm-elf/lib\liblua.a(all.o)
                                                  c:/espardino_tmp/bin/../lib/gcc/arm-elf/4.4.0/../../../../arm-elf/lib\liblua.a(lualib.o)
memmove                                           c:/espardino_tmp/bin/../lib/gcc/arm-elf/4.4.0/../../../../arm-elf/lib/thumb/interwork\libg.a(lib_a-memmove.o)
                                                  c:/espardino_tmp/bin/../lib/gcc/arm-elf/4.4.0/../../../../arm-elf/lib/thumb/interwork\libg.a(lib_a-svfprintf.o)
                                                  c:/espardino_tmp/bin/../lib/gcc/arm-elf/4.4.0/../../../../arm-elf/lib/thumb/interwork\libg.a(lib_a-reallocr.o)
memset                                            c:/espardino_tmp/bin/../lib/gcc/arm-elf/4.4.0/../../../../arm-elf/lib/thumb/interwork\libg.a(lib_a-memset.o)
                                                  c:/espardino_tmp/bin/../lib/gcc/arm-elf/4.4.0/../../../../arm-elf/lib/thumb/interwork\libg.a(lib_a-callocr.o)
                                                  c:/espardino_tmp/bin/../lib/gcc/arm-elf/4.4.0/../../../../arm-elf/lib/thumb/interwork\libg.a(lib_a-findfp.o)
                                                  c:/espardino_tmp/bin/../lib/gcc/arm-elf/4.4.0/../../../../arm-elf/lib/thumb/interwork\libg.a(lib_a-syscalls.o)
modf                                              c:/espardino_tmp/bin/../lib/gcc/arm-elf/4.4.0/../../../../arm-elf/lib/thumb/interwork\libm.a(lib_a-s_modf.o)
                                                  c:/espardino_tmp/bin/../lib/gcc/arm-elf/4.4.0/../../../../arm-elf/lib\liblua.a(all.o)
my_exit                                           c:/espardino_tmp/bin/../lib/gcc/arm-elf/4.4.0/../../../../arm-elf/lib\liblua.a(lua_io_wrappers.o)
                                                  c:/espardino_tmp/bin/../lib/gcc/arm-elf/4.4.0/../../../../arm-elf/lib\liblua.a(all.o)
my_f_out                                          c:/espardino_tmp/bin/../lib/gcc/arm-elf/4.4.0/../../../../arm-elf/lib\liblua.a(lua_io_wrappers.o)
my_fclose                                         c:/espardino_tmp/bin/../lib/gcc/arm-elf/4.4.0/../../../../arm-elf/lib\liblua.a(lua_io_wrappers.o)
                                                  c:/espardino_tmp/bin/../lib/gcc/arm-elf/4.4.0/../../../../arm-elf/lib\liblua.a(all.o)
my_feof                                           c:/espardino_tmp/bin/../lib/gcc/arm-elf/4.4.0/../../../../arm-elf/lib\liblua.a(lua_io_wrappers.o)
                                                  c:/espardino_tmp/bin/../lib/gcc/arm-elf/4.4.0/../../../../arm-elf/lib\liblua.a(all.o)
my_fflush                                         c:/espardino_tmp/bin/../lib/gcc/arm-elf/4.4.0/../../../../arm-elf/lib\liblua.a(lua_io_wrappers.o)
                                                  c:/espardino_tmp/bin/../lib/gcc/arm-elf/4.4.0/../../../../arm-elf/lib\liblua.a(all.o)
my_fgets                                          c:/espardino_tmp/bin/../lib/gcc/arm-elf/4.4.0/../../../../arm-elf/lib\liblua.a(lua_io_wrappers.o)
                                                  c:/espardino_tmp/bin/../lib/gcc/arm-elf/4.4.0/../../../../arm-elf/lib\liblua.a(all.o)
                                                  c:/espardino_tmp/bin/../lib/gcc/arm-elf/4.4.0/../../../../arm-elf/lib\liblua.a(lualib_console.o)
my_fopen                                          c:/espardino_tmp/bin/../lib/gcc/arm-elf/4.4.0/../../../../arm-elf/lib\liblua.a(lua_io_wrappers.o)
                                                  c:/espardino_tmp/bin/../lib/gcc/arm-elf/4.4.0/../../../../arm-elf/lib\liblua.a(all.o)
my_fprintF                                        c:/espardino_tmp/bin/../lib/gcc/arm-elf/4.4.0/../../../../arm-elf/lib\liblua.a(lua_io_wrappers.o)
                                                  c:/espardino_tmp/bin/../lib/gcc/arm-elf/4.4.0/../../../../arm-elf/lib\liblua.a(all.o)
my_fputc                                          c:/espardino_tmp/bin/../lib/gcc/arm-elf/4.4.0/../../../../arm-elf/lib\liblua.a(lua_io_wrappers.o)
my_fputs                                          c:/espardino_tmp/bin/../lib/gcc/arm-elf/4.4.0/../../../../arm-elf/lib\liblua.a(lua_io_wrappers.o)
                                                  c:/espardino_tmp/bin/../lib/gcc/arm-elf/4.4.0/../../../../arm-elf/lib\liblua.a(all.o)
my_fread                                          c:/espardino_tmp/bin/../lib/gcc/arm-elf/4.4.0/../../../../arm-elf/lib\liblua.a(lua_io_wrappers.o)
                                                  c:/espardino_tmp/bin/../lib/gcc/arm-elf/4.4.0/../../../../arm-elf/lib\liblua.a(all.o)
my_freopen                                        c:/espardino_tmp/bin/../lib/gcc/arm-elf/4.4.0/../../../../arm-elf/lib\liblua.a(lua_io_wrappers.o)
                                                  c:/espardino_tmp/bin/../lib/gcc/arm-elf/4.4.0/../../../../arm-elf/lib\liblua.a(all.o)
my_fseek                                          c:/espardino_tmp/bin/../lib/gcc/arm-elf/4.4.0/../../../../arm-elf/lib\liblua.a(lua_io_wrappers.o)
                                                  c:/espardino_tmp/bin/../lib/gcc/arm-elf/4.4.0/../../../../arm-elf/lib\liblua.a(all.o)
my_ftell                                          c:/espardino_tmp/bin/../lib/gcc/arm-elf/4.4.0/../../../../arm-elf/lib\liblua.a(lua_io_wrappers.o)
                                                  c:/espardino_tmp/bin/../lib/gcc/arm-elf/4.4.0/../../../../arm-elf/lib\liblua.a(all.o)
my_fwrite                                         c:/espardino_tmp/bin/../lib/gcc/arm-elf/4.4.0/../../../../arm-elf/lib\liblua.a(lua_io_wrappers.o)
                                                  c:/espardino_tmp/bin/../lib/gcc/arm-elf/4.4.0/../../../../arm-elf/lib\liblua.a(all.o)
my_getc                                           c:/espardino_tmp/bin/../lib/gcc/arm-elf/4.4.0/../../../../arm-elf/lib\liblua.a(lua_io_wrappers.o)
                                                  c:/espardino_tmp/bin/../lib/gcc/arm-elf/4.4.0/../../../../arm-elf/lib\liblua.a(all.o)
my_printF                                         c:/espardino_tmp/bin/../lib/gcc/arm-elf/4.4.0/../../../../arm-elf/lib\liblua.a(lua_io_wrappers.o)
my_putchar                                        c:/espardino_tmp/bin/../lib/gcc/arm-elf/4.4.0/../../../../arm-elf/lib\liblua.a(lua_io_wrappers.o)
my_sprintF                                        c:/espardino_tmp/bin/../lib/gcc/arm-elf/4.4.0/../../../../arm-elf/lib\liblua.a(lua_io_wrappers.o)
                                                  c:/espardino_tmp/bin/../lib/gcc/arm-elf/4.4.0/../../../../arm-elf/lib\liblua.a(all.o)
my_stdin_eof                                      c:/espardino_tmp/bin/../lib/gcc/arm-elf/4.4.0/../../../../arm-elf/lib\liblua.a(lua_io_wrappers.o)
my_ungetc                                         c:/espardino_tmp/bin/../lib/gcc/arm-elf/4.4.0/../../../../arm-elf/lib\liblua.a(lua_io_wrappers.o)
                                                  c:/espardino_tmp/bin/../lib/gcc/arm-elf/4.4.0/../../../../arm-elf/lib\liblua.a(all.o)
nan                                               c:/espardino_tmp/bin/../lib/gcc/arm-elf/4.4.0/../../../../arm-elf/lib/thumb/interwork\libm.a(lib_a-s_nan.o)
                                                  c:/espardino_tmp/bin/../lib/gcc/arm-elf/4.4.0/../../../../arm-elf/lib/thumb/interwork\libm.a(lib_a-e_pow.o)
                                                  c:/espardino_tmp/bin/../lib/gcc/arm-elf/4.4.0/../../../../arm-elf/lib/thumb/interwork\libm.a(lib_a-w_log10.o)
                                                  c:/espardino_tmp/bin/../lib/gcc/arm-elf/4.4.0/../../../../arm-elf/lib/thumb/interwork\libm.a(lib_a-w_log.o)
                                                  c:/espardino_tmp/bin/../lib/gcc/arm-elf/4.4.0/../../../../arm-elf/lib/thumb/interwork\libm.a(lib_a-w_asin.o)
                                                  c:/espardino_tmp/bin/../lib/gcc/arm-elf/4.4.0/../../../../arm-elf/lib/thumb/interwork\libm.a(lib_a-w_acos.o)
nanf                                              c:/espardino_tmp/bin/../lib/gcc/arm-elf/4.4.0/../../../../arm-elf/lib/thumb/interwork\libg.a(lib_a-sf_nan.o)
                                                  c:/espardino_tmp/bin/../lib/gcc/arm-elf/4.4.0/../../../../arm-elf/lib/thumb/interwork\libg.a(lib_a-strtod.o)
openlibs                                          c:/espardino_tmp/bin/../lib/gcc/arm-elf/4.4.0/../../../../arm-elf/lib\liblua.a(lualib.o)
pow                                               c:/espardino_tmp/bin/../lib/gcc/arm-elf/4.4.0/../../../../arm-elf/lib/thumb/interwork\libm.a(lib_a-w_pow.o)
                                                  c:/espardino_tmp/bin/../lib/gcc/arm-elf/4.4.0/../../../../arm-elf/lib\liblua.a(all.o)
print                                             c:/espardino_tmp/bin/../lib/gcc/arm-elf/4.4.0/../../../../arm-elf/lib\libmicro214x.a(miniprintf.o)
                                                  c:/espardino_tmp/bin/../lib/gcc/arm-elf/4.4.0/../../../../arm-elf/lib\liblua.a(lua_io_wrappers.o)
rand                                              c:/espardino_tmp/bin/../lib/gcc/arm-elf/4.4.0/../../../../arm-elf/lib/thumb/interwork\libg.a(lib_a-rand.o)
                                                  c:/espardino_tmp/bin/../lib/gcc/arm-elf/4.4.0/../../../../arm-elf/lib\liblua.a(all.o)
realloc                                           c:/espardino_tmp/bin/../lib/gcc/arm-elf/4.4.0/../../../../arm-elf/lib/thumb/interwork\libg.a(lib_a-realloc.o)
                                                  c:/espardino_tmp/bin/../lib/gcc/arm-elf/4.4.0/../../../../arm-elf/lib\liblua.a(all.o)
register_funcs                                    c:/espardino_tmp/bin/../lib/gcc/arm-elf/4.4.0/../../../../arm-elf/lib\liblua.a(lualib.o)
remove                                            c:/espardino_tmp/bin/../lib/gcc/arm-elf/4.4.0/../../../../arm-elf/lib/thumb/interwork\libg.a(lib_a-remove.o)
restoreFIQ                                        c:/espardino_tmp/bin/../lib/gcc/arm-elf/4.4.0/../../../../arm-elf/lib/thumb/interwork\libvcom.a(armVIC.o)
restoreIRQ                                        c:/espardino_tmp/bin/../lib/gcc/arm-elf/4.4.0/../../../../arm-elf/lib/thumb/interwork\libvcom.a(armVIC.o)
rint                                              c:/espardino_tmp/bin/../lib/gcc/arm-elf/4.4.0/../../../../arm-elf/lib/thumb/interwork\libm.a(lib_a-s_rint.o)
                                                  c:/espardino_tmp/bin/../lib/gcc/arm-elf/4.4.0/../../../../arm-elf/lib/thumb/interwork\libm.a(lib_a-w_pow.o)
run_lua_console                                   main.o
scalbn                                            c:/espardino_tmp/bin/../lib/gcc/arm-elf/4.4.0/../../../../arm-elf/lib/thumb/interwork\libm.a(lib_a-s_scalbn.o)
                                                  c:/espardino_tmp/bin/../lib/gcc/arm-elf/4.4.0/../../../../arm-elf/lib/thumb/interwork\libm.a(lib_a-k_rem_pio2.o)
                                                  c:/espardino_tmp/bin/../lib/gcc/arm-elf/4.4.0/../../../../arm-elf/lib/thumb/interwork\libm.a(lib_a-e_pow.o)
                                                  c:/espardino_tmp/bin/../lib/gcc/arm-elf/4.4.0/../../../../arm-elf/lib/thumb/interwork\libm.a(lib_a-s_ldexp.o)
setjmp                                            c:/espardino_tmp/bin/../lib/gcc/arm-elf/4.4.0/../../../../arm-elf/lib/thumb/interwork\libg.a(lib_a-setjmp.o)
                                                  c:/espardino_tmp/bin/../lib/gcc/arm-elf/4.4.0/../../../../arm-elf/lib\liblua.a(all.o)
setlocale                                         c:/espardino_tmp/bin/../lib/gcc/arm-elf/4.4.0/../../../../arm-elf/lib/thumb/interwork\libg.a(lib_a-locale.o)
sin                                               c:/espardino_tmp/bin/../lib/gcc/arm-elf/4.4.0/../../../../arm-elf/lib/thumb/interwork\libm.a(lib_a-s_sin.o)
                                                  c:/espardino_tmp/bin/../lib/gcc/arm-elf/4.4.0/../../../../arm-elf/lib\liblua.a(all.o)
sinh                                              c:/espardino_tmp/bin/../lib/gcc/arm-elf/4.4.0/../../../../arm-elf/lib/thumb/interwork\libm.a(lib_a-w_sinh.o)
                                                  c:/espardino_tmp/bin/../lib/gcc/arm-elf/4.4.0/../../../../arm-elf/lib\liblua.a(all.o)
sprintf                                           c:/espardino_tmp/bin/../lib/gcc/arm-elf/4.4.0/../../../../arm-elf/lib/thumb/interwork\libg.a(lib_a-sprintf.o)
sqrt                                              c:/espardino_tmp/bin/../lib/gcc/arm-elf/4.4.0/../../../../arm-elf/lib/thumb/interwork\libm.a(lib_a-w_sqrt.o)
                                                  c:/espardino_tmp/bin/../lib/gcc/arm-elf/4.4.0/../../../../arm-elf/lib\liblua.a(all.o)
srand                                             c:/espardino_tmp/bin/../lib/gcc/arm-elf/4.4.0/../../../../arm-elf/lib/thumb/interwork\libg.a(lib_a-rand.o)
                                                  c:/espardino_tmp/bin/../lib/gcc/arm-elf/4.4.0/../../../../arm-elf/lib\liblua.a(all.o)
strcat                                            c:/espardino_tmp/bin/../lib/gcc/arm-elf/4.4.0/../../../../arm-elf/lib/thumb/interwork\libg.a(lib_a-strcat.o)
                                                  c:/espardino_tmp/bin/../lib/gcc/arm-elf/4.4.0/../../../../arm-elf/lib\liblua.a(all.o)
strchr                                            c:/espardino_tmp/bin/../lib/gcc/arm-elf/4.4.0/../../../../arm-elf/lib/thumb/interwork\libg.a(lib_a-strchr.o)
                                                  c:/espardino_tmp/bin/../lib/gcc/arm-elf/4.4.0/../../../../arm-elf/lib/thumb/interwork\libg.a(lib_a-strstr.o)
                                                  c:/espardino_tmp/bin/../lib/gcc/arm-elf/4.4.0/../../../../arm-elf/lib\liblua.a(all.o)
strcmp                                            c:/espardino_tmp/bin/../lib/gcc/arm-elf/4.4.0/../../../../arm-elf/lib/thumb/interwork\libg.a(lib_a-strcmp.o)
                                                  c:/espardino_tmp/bin/../lib/gcc/arm-elf/4.4.0/../../../../arm-elf/lib/thumb/interwork\libg.a(lib_a-strcoll.o)
                                                  c:/espardino_tmp/bin/../lib/gcc/arm-elf/4.4.0/../../../../arm-elf/lib/thumb/interwork\libg.a(lib_a-locale.o)
                                                  c:/espardino_tmp/bin/../lib/gcc/arm-elf/4.4.0/../../../../arm-elf/lib\liblua.a(all.o)
strcoll                                           c:/espardino_tmp/bin/../lib/gcc/arm-elf/4.4.0/../../../../arm-elf/lib/thumb/interwork\libg.a(lib_a-strcoll.o)
                                                  c:/espardino_tmp/bin/../lib/gcc/arm-elf/4.4.0/../../../../arm-elf/lib\liblua.a(all.o)
strcpy                                            c:/espardino_tmp/bin/../lib/gcc/arm-elf/4.4.0/../../../../arm-elf/lib/thumb/interwork\libg.a(lib_a-strcpy.o)
                                                  c:/espardino_tmp/bin/../lib/gcc/arm-elf/4.4.0/../../../../arm-elf/lib/thumb/interwork\libg.a(lib_a-strcat.o)
                                                  c:/espardino_tmp/bin/../lib/gcc/arm-elf/4.4.0/../../../../arm-elf/lib\liblua.a(all.o)
strcspn                                           c:/espardino_tmp/bin/../lib/gcc/arm-elf/4.4.0/../../../../arm-elf/lib/thumb/interwork\libg.a(lib_a-strcspn.o)
                                                  c:/espardino_tmp/bin/../lib/gcc/arm-elf/4.4.0/../../../../arm-elf/lib\liblua.a(all.o)
strlen                                            c:/espardino_tmp/bin/../lib/gcc/arm-elf/4.4.0/../../../../arm-elf/lib/thumb/interwork\libg.a(lib_a-strlen.o)
                                                  c:/espardino_tmp/bin/../lib/gcc/arm-elf/4.4.0/../../../../arm-elf/lib/thumb/interwork\libg.a(lib_a-svfprintf.o)
                                                  c:/espardino_tmp/bin/../lib/gcc/arm-elf/4.4.0/../../../../arm-elf/lib/thumb/interwork\libg.a(lib_a-tmpnam.o)
                                                  c:/espardino_tmp/bin/../lib/gcc/arm-elf/4.4.0/../../../../arm-elf/lib/thumb/interwork\libg.a(lib_a-syscalls.o)
                                                  c:/espardino_tmp/bin/../lib/gcc/arm-elf/4.4.0/../../../../arm-elf/lib\liblua.a(all.o)
                                                  c:/espardino_tmp/bin/../lib/gcc/arm-elf/4.4.0/../../../../arm-elf/lib\liblua.a(lualib_console.o)
strncat                                           c:/espardino_tmp/bin/../lib/gcc/arm-elf/4.4.0/../../../../arm-elf/lib/thumb/interwork\libg.a(lib_a-strncat.o)
                                                  c:/espardino_tmp/bin/../lib/gcc/arm-elf/4.4.0/../../../../arm-elf/lib\liblua.a(all.o)
strncmp                                           c:/espardino_tmp/bin/../lib/gcc/arm-elf/4.4.0/../../../../arm-elf/lib/thumb/interwork\libg.a(lib_a-strncmp.o)
                                                  c:/espardino_tmp/bin/../lib/gcc/arm-elf/4.4.0/../../../../arm-elf/lib/thumb/interwork\libg.a(lib_a-getenv_r.o)
strncpy                                           c:/espardino_tmp/bin/../lib/gcc/arm-elf/4.4.0/../../../../arm-elf/lib/thumb/interwork\libg.a(lib_a-strncpy.o)
                                                  c:/espardino_tmp/bin/../lib/gcc/arm-elf/4.4.0/../../../../arm-elf/lib\liblua.a(all.o)
strstr                                            c:/espardino_tmp/bin/../lib/gcc/arm-elf/4.4.0/../../../../arm-elf/lib/thumb/interwork\libg.a(lib_a-strstr.o)
                                                  c:/espardino_tmp/bin/../lib/gcc/arm-elf/4.4.0/../../../../arm-elf/lib\liblua.a(all.o)
                                                  c:/espardino_tmp/bin/../lib/gcc/arm-elf/4.4.0/../../../../arm-elf/lib\liblua.a(lualib_console.o)
strtod                                            c:/espardino_tmp/bin/../lib/gcc/arm-elf/4.4.0/../../../../arm-elf/lib/thumb/interwork\libg.a(lib_a-strtod.o)
                                                  c:/espardino_tmp/bin/../lib/gcc/arm-elf/4.4.0/../../../../arm-elf/lib\liblua.a(all.o)
strtof                                            c:/espardino_tmp/bin/../lib/gcc/arm-elf/4.4.0/../../../../arm-elf/lib/thumb/interwork\libg.a(lib_a-strtod.o)
strtoul                                           c:/espardino_tmp/bin/../lib/gcc/arm-elf/4.4.0/../../../../arm-elf/lib/thumb/interwork\libg.a(lib_a-strtoul.o)
                                                  c:/espardino_tmp/bin/../lib/gcc/arm-elf/4.4.0/../../../../arm-elf/lib\liblua.a(all.o)
tan                                               c:/espardino_tmp/bin/../lib/gcc/arm-elf/4.4.0/../../../../arm-elf/lib/thumb/interwork\libm.a(lib_a-s_tan.o)
                                                  c:/espardino_tmp/bin/../lib/gcc/arm-elf/4.4.0/../../../../arm-elf/lib\liblua.a(all.o)
tanh                                              c:/espardino_tmp/bin/../lib/gcc/arm-elf/4.4.0/../../../../arm-elf/lib/thumb/interwork\libm.a(lib_a-s_tanh.o)
                                                  c:/espardino_tmp/bin/../lib/gcc/arm-elf/4.4.0/../../../../arm-elf/lib\liblua.a(all.o)
tempnam                                           c:/espardino_tmp/bin/../lib/gcc/arm-elf/4.4.0/../../../../arm-elf/lib/thumb/interwork\libg.a(lib_a-tmpnam.o)
tmpfile                                           c:/espardino_tmp/bin/../lib/gcc/arm-elf/4.4.0/../../../../arm-elf/lib/thumb/interwork\libg.a(lib_a-tmpfile.o)
                                                  c:/espardino_tmp/bin/../lib/gcc/arm-elf/4.4.0/../../../../arm-elf/lib\liblua.a(all.o)
tmpnam                                            c:/espardino_tmp/bin/../lib/gcc/arm-elf/4.4.0/../../../../arm-elf/lib/thumb/interwork\libg.a(lib_a-tmpnam.o)
xfprintf                                          c:/espardino_tmp/bin/../lib/gcc/arm-elf/4.4.0/../../../../arm-elf/lib\libmicro214x.a(miniprintf.o)
xprintf                                           c:/espardino_tmp/bin/../lib/gcc/arm-elf/4.4.0/../../../../arm-elf/lib\libmicro214x.a(miniprintf.o)
                                                  c:/espardino_tmp/bin/../lib/gcc/arm-elf/4.4.0/../../../../arm-elf/lib\liblua.a(lua_io_wrappers.o)
                                                  main.o
xprintf_output                                    c:/espardino_tmp/bin/../lib/gcc/arm-elf/4.4.0/../../../../arm-elf/lib\libmicro214x.a(miniprintf.o)
                                                  c:/espardino_tmp/bin/../lib/gcc/arm-elf/4.4.0/../../../../arm-elf/lib\liblua.a(lua_io_wrappers.o)
                                                  main.o
xputs                                             c:/espardino_tmp/bin/../lib/gcc/arm-elf/4.4.0/../../../../arm-elf/lib\libmicro214x.a(miniprintf.o)
                                                  c:/espardino_tmp/bin/../lib/gcc/arm-elf/4.4.0/../../../../arm-elf/lib\liblua.a(lualib_console.o)
                                                  c:/espardino_tmp/bin/../lib/gcc/arm-elf/4.4.0/../../../../arm-elf/lib\liblua.a(lua_io_wrappers.o)
                                                  main.o
xsprintf                                          c:/espardino_tmp/bin/../lib/gcc/arm-elf/4.4.0/../../../../arm-elf/lib\libmicro214x.a(miniprintf.o)
